Archive member included to satisfy reference by file (symbol)

c:/progra~2/gnuarm~1/102020~1/bin/../lib/gcc/arm-none-eabi/10.2.1/thumb/v6-m/nofp\libgcc.a(_dvmd_tls.o)
                              CMakeFiles/1.8inch_TFT_Display.dir/E_/Pi_Pico/pico-sdk/src/rp2_common/pico_divider/divider.S.obj (__aeabi_idiv0)
c:/progra~2/gnuarm~1/102020~1/bin/../lib/gcc/arm-none-eabi/10.2.1/../../../../arm-none-eabi/lib/thumb/v6-m/nofp\libg.a(lib_a-calloc.o)
                              CMakeFiles/1.8inch_TFT_Display.dir/E_/Pi_Pico/pico-sdk/src/rp2_common/pico_malloc/pico_malloc.c.obj (calloc)
c:/progra~2/gnuarm~1/102020~1/bin/../lib/gcc/arm-none-eabi/10.2.1/../../../../arm-none-eabi/lib/thumb/v6-m/nofp\libg.a(lib_a-callocr.o)
                              c:/progra~2/gnuarm~1/102020~1/bin/../lib/gcc/arm-none-eabi/10.2.1/../../../../arm-none-eabi/lib/thumb/v6-m/nofp\libg.a(lib_a-calloc.o) (_calloc_r)
c:/progra~2/gnuarm~1/102020~1/bin/../lib/gcc/arm-none-eabi/10.2.1/../../../../arm-none-eabi/lib/thumb/v6-m/nofp\libg.a(lib_a-ctype_.o)
                              CMakeFiles/1.8inch_TFT_Display.dir/E_/Pi_Pico/pico-sdk/lib/tinyusb/src/tusb.c.obj (_ctype_)
c:/progra~2/gnuarm~1/102020~1/bin/../lib/gcc/arm-none-eabi/10.2.1/../../../../arm-none-eabi/lib/thumb/v6-m/nofp\libg.a(lib_a-impure.o)
                              c:/progra~2/gnuarm~1/102020~1/bin/../lib/gcc/arm-none-eabi/10.2.1/../../../../arm-none-eabi/lib/thumb/v6-m/nofp\libg.a(lib_a-calloc.o) (_impure_ptr)
c:/progra~2/gnuarm~1/102020~1/bin/../lib/gcc/arm-none-eabi/10.2.1/../../../../arm-none-eabi/lib/thumb/v6-m/nofp\libg.a(lib_a-init.o)
                              c:/progra~2/gnuarm~1/102020~1/bin/../lib/gcc/arm-none-eabi/10.2.1/../../../../arm-none-eabi/lib/thumb/v6-m/nofp/crt0.o (__libc_init_array)
c:/progra~2/gnuarm~1/102020~1/bin/../lib/gcc/arm-none-eabi/10.2.1/../../../../arm-none-eabi/lib/thumb/v6-m/nofp\libg.a(lib_a-malloc.o)
                              CMakeFiles/1.8inch_TFT_Display.dir/E_/Pi_Pico/pico-sdk/src/rp2_common/pico_malloc/pico_malloc.c.obj (malloc)
c:/progra~2/gnuarm~1/102020~1/bin/../lib/gcc/arm-none-eabi/10.2.1/../../../../arm-none-eabi/lib/thumb/v6-m/nofp\libg.a(lib_a-mallocr.o)
                              c:/progra~2/gnuarm~1/102020~1/bin/../lib/gcc/arm-none-eabi/10.2.1/../../../../arm-none-eabi/lib/thumb/v6-m/nofp\libg.a(lib_a-callocr.o) (_malloc_r)
c:/progra~2/gnuarm~1/102020~1/bin/../lib/gcc/arm-none-eabi/10.2.1/../../../../arm-none-eabi/lib/thumb/v6-m/nofp\libg.a(lib_a-mlock.o)
                              c:/progra~2/gnuarm~1/102020~1/bin/../lib/gcc/arm-none-eabi/10.2.1/../../../../arm-none-eabi/lib/thumb/v6-m/nofp\libg.a(lib_a-mallocr.o) (__malloc_lock)
c:/progra~2/gnuarm~1/102020~1/bin/../lib/gcc/arm-none-eabi/10.2.1/../../../../arm-none-eabi/lib/thumb/v6-m/nofp\libg.a(lib_a-sbrkr.o)
                              c:/progra~2/gnuarm~1/102020~1/bin/../lib/gcc/arm-none-eabi/10.2.1/../../../../arm-none-eabi/lib/thumb/v6-m/nofp\libg.a(lib_a-mallocr.o) (_sbrk_r)
c:/progra~2/gnuarm~1/102020~1/bin/../lib/gcc/arm-none-eabi/10.2.1/../../../../arm-none-eabi/lib/thumb/v6-m/nofp\libg.a(lib_a-strlen-stub.o)
                              CMakeFiles/1.8inch_TFT_Display.dir/E_/Pi_Pico/pico-sdk/src/rp2_common/pico_stdio/stdio.c.obj (strlen)
c:/progra~2/gnuarm~1/102020~1/bin/../lib/gcc/arm-none-eabi/10.2.1/../../../../arm-none-eabi/lib/thumb/v6-m/nofp\libg.a(lib_a-freer.o)
                              c:/progra~2/gnuarm~1/102020~1/bin/../lib/gcc/arm-none-eabi/10.2.1/../../../../arm-none-eabi/lib/thumb/v6-m/nofp\libg.a(lib_a-malloc.o) (_free_r)
c:/progra~2/gnuarm~1/102020~1/bin/../lib/gcc/arm-none-eabi/10.2.1/../../../../arm-none-eabi/lib/thumb/v6-m/nofp\libg.a(lib_a-lock.o)
                              c:/progra~2/gnuarm~1/102020~1/bin/../lib/gcc/arm-none-eabi/10.2.1/../../../../arm-none-eabi/lib/thumb/v6-m/nofp\libg.a(lib_a-mlock.o) (__retarget_lock_acquire_recursive)
c:/progra~2/gnuarm~1/102020~1/bin/../lib/gcc/arm-none-eabi/10.2.1/../../../../arm-none-eabi/lib/thumb/v6-m/nofp\libg.a(lib_a-reent.o)
                              c:/progra~2/gnuarm~1/102020~1/bin/../lib/gcc/arm-none-eabi/10.2.1/../../../../arm-none-eabi/lib/thumb/v6-m/nofp\libg.a(lib_a-sbrkr.o) (errno)

Discarded input sections

 .text          0x00000000        0x0 c:/progra~2/gnuarm~1/102020~1/bin/../lib/gcc/arm-none-eabi/10.2.1/thumb/v6-m/nofp/crti.o
 .data          0x00000000        0x0 c:/progra~2/gnuarm~1/102020~1/bin/../lib/gcc/arm-none-eabi/10.2.1/thumb/v6-m/nofp/crti.o
 .bss           0x00000000        0x0 c:/progra~2/gnuarm~1/102020~1/bin/../lib/gcc/arm-none-eabi/10.2.1/thumb/v6-m/nofp/crti.o
 .data          0x00000000        0x4 c:/progra~2/gnuarm~1/102020~1/bin/../lib/gcc/arm-none-eabi/10.2.1/thumb/v6-m/nofp/crtbegin.o
 .rodata        0x00000000       0x24 c:/progra~2/gnuarm~1/102020~1/bin/../lib/gcc/arm-none-eabi/10.2.1/thumb/v6-m/nofp/crtbegin.o
 .fini_array    0x00000000        0x4 c:/progra~2/gnuarm~1/102020~1/bin/../lib/gcc/arm-none-eabi/10.2.1/thumb/v6-m/nofp/crtbegin.o
 .text          0x00000000       0x80 c:/progra~2/gnuarm~1/102020~1/bin/../lib/gcc/arm-none-eabi/10.2.1/../../../../arm-none-eabi/lib/thumb/v6-m/nofp/crt0.o
 .data          0x00000000        0x0 c:/progra~2/gnuarm~1/102020~1/bin/../lib/gcc/arm-none-eabi/10.2.1/../../../../arm-none-eabi/lib/thumb/v6-m/nofp/crt0.o
 .bss           0x00000000        0x0 c:/progra~2/gnuarm~1/102020~1/bin/../lib/gcc/arm-none-eabi/10.2.1/../../../../arm-none-eabi/lib/thumb/v6-m/nofp/crt0.o
 .ARM.extab     0x00000000        0x0 c:/progra~2/gnuarm~1/102020~1/bin/../lib/gcc/arm-none-eabi/10.2.1/../../../../arm-none-eabi/lib/thumb/v6-m/nofp/crt0.o
 .ARM.exidx     0x00000000       0x10 c:/progra~2/gnuarm~1/102020~1/bin/../lib/gcc/arm-none-eabi/10.2.1/../../../../arm-none-eabi/lib/thumb/v6-m/nofp/crt0.o
 .ARM.attributes
                0x00000000       0x1b c:/progra~2/gnuarm~1/102020~1/bin/../lib/gcc/arm-none-eabi/10.2.1/../../../../arm-none-eabi/lib/thumb/v6-m/nofp/crt0.o
 .text          0x00000000        0x0 CMakeFiles/1.8inch_TFT_Display.dir/src/main.c.obj
 .data          0x00000000        0x0 CMakeFiles/1.8inch_TFT_Display.dir/src/main.c.obj
 .bss           0x00000000        0x0 CMakeFiles/1.8inch_TFT_Display.dir/src/main.c.obj
 .text          0x00000000        0x0 CMakeFiles/1.8inch_TFT_Display.dir/src/st7735.c.obj
 .data          0x00000000        0x0 CMakeFiles/1.8inch_TFT_Display.dir/src/st7735.c.obj
 .bss           0x00000000        0x0 CMakeFiles/1.8inch_TFT_Display.dir/src/st7735.c.obj
 .text.ST7735_InvertColors
                0x00000000       0x26 CMakeFiles/1.8inch_TFT_Display.dir/src/st7735.c.obj
 .text.ST7735_DrawCircleHelper
                0x00000000      0x15c CMakeFiles/1.8inch_TFT_Display.dir/src/st7735.c.obj
 .text.ST7735_DrawEllipse
                0x00000000      0x182 CMakeFiles/1.8inch_TFT_Display.dir/src/st7735.c.obj
 .text.ST7735_DrawTriangle
                0x00000000       0x5a CMakeFiles/1.8inch_TFT_Display.dir/src/st7735.c.obj
 .text.ST7735_FillCircleHelper
                0x00000000      0x130 CMakeFiles/1.8inch_TFT_Display.dir/src/st7735.c.obj
 .text.ST7735_FillRoundRect
                0x00000000       0x8a CMakeFiles/1.8inch_TFT_Display.dir/src/st7735.c.obj
 .text.ST7735_FillCircle
                0x00000000       0x38 CMakeFiles/1.8inch_TFT_Display.dir/src/st7735.c.obj
 .text.ST7735_FillEllipse
                0x00000000      0x160 CMakeFiles/1.8inch_TFT_Display.dir/src/st7735.c.obj
 .text.ST7735_DrawRect
                0x00000000       0x4e CMakeFiles/1.8inch_TFT_Display.dir/src/st7735.c.obj
 .text.ST7735_DrawRoundRect
                0x00000000       0xf4 CMakeFiles/1.8inch_TFT_Display.dir/src/st7735.c.obj
 .text.ST7735_GetRotation
                0x00000000        0xc CMakeFiles/1.8inch_TFT_Display.dir/src/st7735.c.obj
 .text          0x00000000        0x0 CMakeFiles/1.8inch_TFT_Display.dir/src/fonts.c.obj
 .data          0x00000000        0x0 CMakeFiles/1.8inch_TFT_Display.dir/src/fonts.c.obj
 .bss           0x00000000        0x0 CMakeFiles/1.8inch_TFT_Display.dir/src/fonts.c.obj
 .text          0x00000000        0x0 CMakeFiles/1.8inch_TFT_Display.dir/E_/Pi_Pico/pico-sdk/src/rp2_common/pico_stdlib/stdlib.c.obj
 .data          0x00000000        0x0 CMakeFiles/1.8inch_TFT_Display.dir/E_/Pi_Pico/pico-sdk/src/rp2_common/pico_stdlib/stdlib.c.obj
 .bss           0x00000000        0x0 CMakeFiles/1.8inch_TFT_Display.dir/E_/Pi_Pico/pico-sdk/src/rp2_common/pico_stdlib/stdlib.c.obj
 .text.set_sys_clock_48mhz
                0x00000000       0x40 CMakeFiles/1.8inch_TFT_Display.dir/E_/Pi_Pico/pico-sdk/src/rp2_common/pico_stdlib/stdlib.c.obj
 .text.set_sys_clock_pll
                0x00000000       0x7c CMakeFiles/1.8inch_TFT_Display.dir/E_/Pi_Pico/pico-sdk/src/rp2_common/pico_stdlib/stdlib.c.obj
 .text.check_sys_clock_khz
                0x00000000       0xb0 CMakeFiles/1.8inch_TFT_Display.dir/E_/Pi_Pico/pico-sdk/src/rp2_common/pico_stdlib/stdlib.c.obj
 .text.setup_default_uart
                0x00000000       0x2c CMakeFiles/1.8inch_TFT_Display.dir/E_/Pi_Pico/pico-sdk/src/rp2_common/pico_stdlib/stdlib.c.obj
 .binary_info.__bi_ptr102
                0x00000000        0x4 CMakeFiles/1.8inch_TFT_Display.dir/E_/Pi_Pico/pico-sdk/src/rp2_common/pico_stdlib/stdlib.c.obj
 .rodata.__bi_102.0
                0x00000000        0x8 CMakeFiles/1.8inch_TFT_Display.dir/E_/Pi_Pico/pico-sdk/src/rp2_common/pico_stdlib/stdlib.c.obj
 .debug_info    0x00000000      0x763 CMakeFiles/1.8inch_TFT_Display.dir/E_/Pi_Pico/pico-sdk/src/rp2_common/pico_stdlib/stdlib.c.obj
 .debug_abbrev  0x00000000      0x1f0 CMakeFiles/1.8inch_TFT_Display.dir/E_/Pi_Pico/pico-sdk/src/rp2_common/pico_stdlib/stdlib.c.obj
 .debug_loc     0x00000000      0x2d7 CMakeFiles/1.8inch_TFT_Display.dir/E_/Pi_Pico/pico-sdk/src/rp2_common/pico_stdlib/stdlib.c.obj
 .debug_aranges
                0x00000000       0x38 CMakeFiles/1.8inch_TFT_Display.dir/E_/Pi_Pico/pico-sdk/src/rp2_common/pico_stdlib/stdlib.c.obj
 .debug_ranges  0x00000000       0x98 CMakeFiles/1.8inch_TFT_Display.dir/E_/Pi_Pico/pico-sdk/src/rp2_common/pico_stdlib/stdlib.c.obj
 .debug_line    0x00000000      0x55b CMakeFiles/1.8inch_TFT_Display.dir/E_/Pi_Pico/pico-sdk/src/rp2_common/pico_stdlib/stdlib.c.obj
 .debug_str     0x00000000      0x521 CMakeFiles/1.8inch_TFT_Display.dir/E_/Pi_Pico/pico-sdk/src/rp2_common/pico_stdlib/stdlib.c.obj
 .comment       0x00000000       0x4e CMakeFiles/1.8inch_TFT_Display.dir/E_/Pi_Pico/pico-sdk/src/rp2_common/pico_stdlib/stdlib.c.obj
 .debug_frame   0x00000000       0x90 CMakeFiles/1.8inch_TFT_Display.dir/E_/Pi_Pico/pico-sdk/src/rp2_common/pico_stdlib/stdlib.c.obj
 .ARM.attributes
                0x00000000       0x2b CMakeFiles/1.8inch_TFT_Display.dir/E_/Pi_Pico/pico-sdk/src/rp2_common/pico_stdlib/stdlib.c.obj
 .text          0x00000000        0x0 CMakeFiles/1.8inch_TFT_Display.dir/E_/Pi_Pico/pico-sdk/src/rp2_common/hardware_gpio/gpio.c.obj
 .data          0x00000000        0x0 CMakeFiles/1.8inch_TFT_Display.dir/E_/Pi_Pico/pico-sdk/src/rp2_common/hardware_gpio/gpio.c.obj
 .bss           0x00000000        0x0 CMakeFiles/1.8inch_TFT_Display.dir/E_/Pi_Pico/pico-sdk/src/rp2_common/hardware_gpio/gpio.c.obj
 .text.gpio_get_pad
                0x00000000       0x28 CMakeFiles/1.8inch_TFT_Display.dir/E_/Pi_Pico/pico-sdk/src/rp2_common/hardware_gpio/gpio.c.obj
 .text.gpio_get_function
                0x00000000       0x14 CMakeFiles/1.8inch_TFT_Display.dir/E_/Pi_Pico/pico-sdk/src/rp2_common/hardware_gpio/gpio.c.obj
 .text.gpio_set_pulls
                0x00000000       0x34 CMakeFiles/1.8inch_TFT_Display.dir/E_/Pi_Pico/pico-sdk/src/rp2_common/hardware_gpio/gpio.c.obj
 .text.gpio_set_inover
                0x00000000       0x24 CMakeFiles/1.8inch_TFT_Display.dir/E_/Pi_Pico/pico-sdk/src/rp2_common/hardware_gpio/gpio.c.obj
 .text.gpio_set_outover
                0x00000000       0x24 CMakeFiles/1.8inch_TFT_Display.dir/E_/Pi_Pico/pico-sdk/src/rp2_common/hardware_gpio/gpio.c.obj
 .text.gpio_set_oeover
                0x00000000       0x24 CMakeFiles/1.8inch_TFT_Display.dir/E_/Pi_Pico/pico-sdk/src/rp2_common/hardware_gpio/gpio.c.obj
 .text.gpio_acknowledge_irq
                0x00000000       0x18 CMakeFiles/1.8inch_TFT_Display.dir/E_/Pi_Pico/pico-sdk/src/rp2_common/hardware_gpio/gpio.c.obj
 .text._gpio_set_irq_enabled
                0x00000000       0x34 CMakeFiles/1.8inch_TFT_Display.dir/E_/Pi_Pico/pico-sdk/src/rp2_common/hardware_gpio/gpio.c.obj
 .text.gpio_set_irq_enabled
                0x00000000       0x20 CMakeFiles/1.8inch_TFT_Display.dir/E_/Pi_Pico/pico-sdk/src/rp2_common/hardware_gpio/gpio.c.obj
 .text.gpio_set_irq_enabled_with_callback
                0x00000000       0x30 CMakeFiles/1.8inch_TFT_Display.dir/E_/Pi_Pico/pico-sdk/src/rp2_common/hardware_gpio/gpio.c.obj
 .text.gpio_set_dormant_irq_enabled
                0x00000000       0x10 CMakeFiles/1.8inch_TFT_Display.dir/E_/Pi_Pico/pico-sdk/src/rp2_common/hardware_gpio/gpio.c.obj
 .text.gpio_irq_handler
                0x00000000       0x68 CMakeFiles/1.8inch_TFT_Display.dir/E_/Pi_Pico/pico-sdk/src/rp2_common/hardware_gpio/gpio.c.obj
 .text.gpio_set_input_enabled
                0x00000000       0x30 CMakeFiles/1.8inch_TFT_Display.dir/E_/Pi_Pico/pico-sdk/src/rp2_common/hardware_gpio/gpio.c.obj
 .text.gpio_init_mask
                0x00000000       0x1e CMakeFiles/1.8inch_TFT_Display.dir/E_/Pi_Pico/pico-sdk/src/rp2_common/hardware_gpio/gpio.c.obj
 .text.gpio_debug_pins_init
                0x00000000       0x20 CMakeFiles/1.8inch_TFT_Display.dir/E_/Pi_Pico/pico-sdk/src/rp2_common/hardware_gpio/gpio.c.obj
 .rodata.str1.4
                0x00000000        0x6 CMakeFiles/1.8inch_TFT_Display.dir/E_/Pi_Pico/pico-sdk/src/rp2_common/hardware_gpio/gpio.c.obj
 .binary_info.__bi_ptr144
                0x00000000        0x4 CMakeFiles/1.8inch_TFT_Display.dir/E_/Pi_Pico/pico-sdk/src/rp2_common/hardware_gpio/gpio.c.obj
 .bss._callbacks
                0x00000000        0x8 CMakeFiles/1.8inch_TFT_Display.dir/E_/Pi_Pico/pico-sdk/src/rp2_common/hardware_gpio/gpio.c.obj
 .rodata.__bi_144.0
                0x00000000        0xc CMakeFiles/1.8inch_TFT_Display.dir/E_/Pi_Pico/pico-sdk/src/rp2_common/hardware_gpio/gpio.c.obj
 .text          0x00000000        0x0 CMakeFiles/1.8inch_TFT_Display.dir/E_/Pi_Pico/pico-sdk/src/rp2_common/hardware_claim/claim.c.obj
 .data          0x00000000        0x0 CMakeFiles/1.8inch_TFT_Display.dir/E_/Pi_Pico/pico-sdk/src/rp2_common/hardware_claim/claim.c.obj
 .bss           0x00000000        0x0 CMakeFiles/1.8inch_TFT_Display.dir/E_/Pi_Pico/pico-sdk/src/rp2_common/hardware_claim/claim.c.obj
 .text.hw_is_claimed
                0x00000000       0x32 CMakeFiles/1.8inch_TFT_Display.dir/E_/Pi_Pico/pico-sdk/src/rp2_common/hardware_claim/claim.c.obj
 .rodata.hw_claim_clear.str1.4
                0x00000000       0x6e CMakeFiles/1.8inch_TFT_Display.dir/E_/Pi_Pico/pico-sdk/src/rp2_common/hardware_claim/claim.c.obj
 .text.hw_claim_clear
                0x00000000       0x44 CMakeFiles/1.8inch_TFT_Display.dir/E_/Pi_Pico/pico-sdk/src/rp2_common/hardware_claim/claim.c.obj
 .rodata.__func__.0
                0x00000000        0xf CMakeFiles/1.8inch_TFT_Display.dir/E_/Pi_Pico/pico-sdk/src/rp2_common/hardware_claim/claim.c.obj
 .text          0x00000000        0x0 CMakeFiles/1.8inch_TFT_Display.dir/E_/Pi_Pico/pico-sdk/src/rp2_common/hardware_sync/sync.c.obj
 .data          0x00000000        0x0 CMakeFiles/1.8inch_TFT_Display.dir/E_/Pi_Pico/pico-sdk/src/rp2_common/hardware_sync/sync.c.obj
 .bss           0x00000000        0x0 CMakeFiles/1.8inch_TFT_Display.dir/E_/Pi_Pico/pico-sdk/src/rp2_common/hardware_sync/sync.c.obj
 .rodata.spin_lock_init.str1.4
                0x00000000       0x64 CMakeFiles/1.8inch_TFT_Display.dir/E_/Pi_Pico/pico-sdk/src/rp2_common/hardware_sync/sync.c.obj
 .text.spin_lock_init
                0x00000000       0x34 CMakeFiles/1.8inch_TFT_Display.dir/E_/Pi_Pico/pico-sdk/src/rp2_common/hardware_sync/sync.c.obj
 .rodata.spin_lock_claim.str1.4
                0x00000000       0x1f CMakeFiles/1.8inch_TFT_Display.dir/E_/Pi_Pico/pico-sdk/src/rp2_common/hardware_sync/sync.c.obj
 .text.spin_lock_claim
                0x00000000       0x18 CMakeFiles/1.8inch_TFT_Display.dir/E_/Pi_Pico/pico-sdk/src/rp2_common/hardware_sync/sync.c.obj
 .text.spin_lock_claim_mask
                0x00000000       0x1e CMakeFiles/1.8inch_TFT_Display.dir/E_/Pi_Pico/pico-sdk/src/rp2_common/hardware_sync/sync.c.obj
 .text.spin_lock_unclaim
                0x00000000       0x10 CMakeFiles/1.8inch_TFT_Display.dir/E_/Pi_Pico/pico-sdk/src/rp2_common/hardware_sync/sync.c.obj
 .rodata.__func__.0
                0x00000000        0xf CMakeFiles/1.8inch_TFT_Display.dir/E_/Pi_Pico/pico-sdk/src/rp2_common/hardware_sync/sync.c.obj
 .text          0x00000000        0x0 CMakeFiles/1.8inch_TFT_Display.dir/E_/Pi_Pico/pico-sdk/src/rp2_common/pico_platform/platform.c.obj
 .data          0x00000000        0x0 CMakeFiles/1.8inch_TFT_Display.dir/E_/Pi_Pico/pico-sdk/src/rp2_common/pico_platform/platform.c.obj
 .bss           0x00000000        0x0 CMakeFiles/1.8inch_TFT_Display.dir/E_/Pi_Pico/pico-sdk/src/rp2_common/pico_platform/platform.c.obj
 .rodata.rp2040_chip_version.str1.4
                0x00000000       0x71 CMakeFiles/1.8inch_TFT_Display.dir/E_/Pi_Pico/pico-sdk/src/rp2_common/pico_platform/platform.c.obj
 .text.rp2040_chip_version
                0x00000000       0x4c CMakeFiles/1.8inch_TFT_Display.dir/E_/Pi_Pico/pico-sdk/src/rp2_common/pico_platform/platform.c.obj
 .rodata.__func__.0
                0x00000000       0x14 CMakeFiles/1.8inch_TFT_Display.dir/E_/Pi_Pico/pico-sdk/src/rp2_common/pico_platform/platform.c.obj
 .text          0x00000000        0x0 CMakeFiles/1.8inch_TFT_Display.dir/E_/Pi_Pico/pico-sdk/src/rp2_common/hardware_uart/uart.c.obj
 .data          0x00000000        0x0 CMakeFiles/1.8inch_TFT_Display.dir/E_/Pi_Pico/pico-sdk/src/rp2_common/hardware_uart/uart.c.obj
 .bss           0x00000000        0x0 CMakeFiles/1.8inch_TFT_Display.dir/E_/Pi_Pico/pico-sdk/src/rp2_common/hardware_uart/uart.c.obj
 .text.uart_deinit
                0x00000000       0x20 CMakeFiles/1.8inch_TFT_Display.dir/E_/Pi_Pico/pico-sdk/src/rp2_common/hardware_uart/uart.c.obj
 .text.uart_set_baudrate
                0x00000000       0x64 CMakeFiles/1.8inch_TFT_Display.dir/E_/Pi_Pico/pico-sdk/src/rp2_common/hardware_uart/uart.c.obj
 .text.uart_set_translate_crlf
                0x00000000       0x28 CMakeFiles/1.8inch_TFT_Display.dir/E_/Pi_Pico/pico-sdk/src/rp2_common/hardware_uart/uart.c.obj
 .text.uart_init
                0x00000000       0x80 CMakeFiles/1.8inch_TFT_Display.dir/E_/Pi_Pico/pico-sdk/src/rp2_common/hardware_uart/uart.c.obj
 .text.uart_is_readable_within_us
                0x00000000       0x20 CMakeFiles/1.8inch_TFT_Display.dir/E_/Pi_Pico/pico-sdk/src/rp2_common/hardware_uart/uart.c.obj
 .bss.uart_char_to_line_feed
                0x00000000        0x4 CMakeFiles/1.8inch_TFT_Display.dir/E_/Pi_Pico/pico-sdk/src/rp2_common/hardware_uart/uart.c.obj
 .debug_info    0x00000000      0xb64 CMakeFiles/1.8inch_TFT_Display.dir/E_/Pi_Pico/pico-sdk/src/rp2_common/hardware_uart/uart.c.obj
 .debug_abbrev  0x00000000      0x2ce CMakeFiles/1.8inch_TFT_Display.dir/E_/Pi_Pico/pico-sdk/src/rp2_common/hardware_uart/uart.c.obj
 .debug_loc     0x00000000      0x51e CMakeFiles/1.8inch_TFT_Display.dir/E_/Pi_Pico/pico-sdk/src/rp2_common/hardware_uart/uart.c.obj
 .debug_aranges
                0x00000000       0x40 CMakeFiles/1.8inch_TFT_Display.dir/E_/Pi_Pico/pico-sdk/src/rp2_common/hardware_uart/uart.c.obj
 .debug_ranges  0x00000000       0xf8 CMakeFiles/1.8inch_TFT_Display.dir/E_/Pi_Pico/pico-sdk/src/rp2_common/hardware_uart/uart.c.obj
 .debug_line    0x00000000      0x6bb CMakeFiles/1.8inch_TFT_Display.dir/E_/Pi_Pico/pico-sdk/src/rp2_common/hardware_uart/uart.c.obj
 .debug_str     0x00000000      0x53d CMakeFiles/1.8inch_TFT_Display.dir/E_/Pi_Pico/pico-sdk/src/rp2_common/hardware_uart/uart.c.obj
 .comment       0x00000000       0x4e CMakeFiles/1.8inch_TFT_Display.dir/E_/Pi_Pico/pico-sdk/src/rp2_common/hardware_uart/uart.c.obj
 .debug_frame   0x00000000       0x78 CMakeFiles/1.8inch_TFT_Display.dir/E_/Pi_Pico/pico-sdk/src/rp2_common/hardware_uart/uart.c.obj
 .ARM.attributes
                0x00000000       0x2b CMakeFiles/1.8inch_TFT_Display.dir/E_/Pi_Pico/pico-sdk/src/rp2_common/hardware_uart/uart.c.obj
 .text          0x00000000        0x0 CMakeFiles/1.8inch_TFT_Display.dir/E_/Pi_Pico/pico-sdk/src/rp2_common/hardware_divider/divider.S.obj
 .data          0x00000000        0x0 CMakeFiles/1.8inch_TFT_Display.dir/E_/Pi_Pico/pico-sdk/src/rp2_common/hardware_divider/divider.S.obj
 .bss           0x00000000        0x0 CMakeFiles/1.8inch_TFT_Display.dir/E_/Pi_Pico/pico-sdk/src/rp2_common/hardware_divider/divider.S.obj
 .text.hw_divider_divmod_s32
                0x00000000       0x18 CMakeFiles/1.8inch_TFT_Display.dir/E_/Pi_Pico/pico-sdk/src/rp2_common/hardware_divider/divider.S.obj
 .text.hw_divider_divmod_u32
                0x00000000       0x18 CMakeFiles/1.8inch_TFT_Display.dir/E_/Pi_Pico/pico-sdk/src/rp2_common/hardware_divider/divider.S.obj
 .text.hw_divider_save_state
                0x00000000       0x1c CMakeFiles/1.8inch_TFT_Display.dir/E_/Pi_Pico/pico-sdk/src/rp2_common/hardware_divider/divider.S.obj
 .text.hw_divider_restore_state
                0x00000000       0x14 CMakeFiles/1.8inch_TFT_Display.dir/E_/Pi_Pico/pico-sdk/src/rp2_common/hardware_divider/divider.S.obj
 .debug_line    0x00000000       0xc4 CMakeFiles/1.8inch_TFT_Display.dir/E_/Pi_Pico/pico-sdk/src/rp2_common/hardware_divider/divider.S.obj
 .debug_info    0x00000000       0x22 CMakeFiles/1.8inch_TFT_Display.dir/E_/Pi_Pico/pico-sdk/src/rp2_common/hardware_divider/divider.S.obj
 .debug_abbrev  0x00000000       0x12 CMakeFiles/1.8inch_TFT_Display.dir/E_/Pi_Pico/pico-sdk/src/rp2_common/hardware_divider/divider.S.obj
 .debug_aranges
                0x00000000       0x38 CMakeFiles/1.8inch_TFT_Display.dir/E_/Pi_Pico/pico-sdk/src/rp2_common/hardware_divider/divider.S.obj
 .debug_str     0x00000000       0x80 CMakeFiles/1.8inch_TFT_Display.dir/E_/Pi_Pico/pico-sdk/src/rp2_common/hardware_divider/divider.S.obj
 .debug_ranges  0x00000000       0x30 CMakeFiles/1.8inch_TFT_Display.dir/E_/Pi_Pico/pico-sdk/src/rp2_common/hardware_divider/divider.S.obj
 .ARM.attributes
                0x00000000       0x22 CMakeFiles/1.8inch_TFT_Display.dir/E_/Pi_Pico/pico-sdk/src/rp2_common/hardware_divider/divider.S.obj
 .text          0x00000000        0x0 CMakeFiles/1.8inch_TFT_Display.dir/E_/Pi_Pico/pico-sdk/src/common/pico_time/time.c.obj
 .data          0x00000000        0x0 CMakeFiles/1.8inch_TFT_Display.dir/E_/Pi_Pico/pico-sdk/src/common/pico_time/time.c.obj
 .bss           0x00000000        0x0 CMakeFiles/1.8inch_TFT_Display.dir/E_/Pi_Pico/pico-sdk/src/common/pico_time/time.c.obj
 .text.repeating_timer_callback
                0x00000000       0x1e CMakeFiles/1.8inch_TFT_Display.dir/E_/Pi_Pico/pico-sdk/src/common/pico_time/time.c.obj
 .text.alarm_pool_dump_key
                0x00000000       0x70 CMakeFiles/1.8inch_TFT_Display.dir/E_/Pi_Pico/pico-sdk/src/common/pico_time/time.c.obj
 .rodata.alarm_pool_destroy.str1.4
                0x00000000       0x28 CMakeFiles/1.8inch_TFT_Display.dir/E_/Pi_Pico/pico-sdk/src/common/pico_time/time.c.obj
 .text.alarm_pool_destroy
                0x00000000       0x5c CMakeFiles/1.8inch_TFT_Display.dir/E_/Pi_Pico/pico-sdk/src/common/pico_time/time.c.obj
 .text.alarm_pool_hardware_alarm_num
                0x00000000        0x4 CMakeFiles/1.8inch_TFT_Display.dir/E_/Pi_Pico/pico-sdk/src/common/pico_time/time.c.obj
 .text.alarm_pool_add_repeating_timer_us
                0x00000000       0x74 CMakeFiles/1.8inch_TFT_Display.dir/E_/Pi_Pico/pico-sdk/src/common/pico_time/time.c.obj
 .text.cancel_repeating_timer
                0x00000000       0x1a CMakeFiles/1.8inch_TFT_Display.dir/E_/Pi_Pico/pico-sdk/src/common/pico_time/time.c.obj
 .text.alarm_pool_dump
                0x00000000       0x34 CMakeFiles/1.8inch_TFT_Display.dir/E_/Pi_Pico/pico-sdk/src/common/pico_time/time.c.obj
 .rodata.__func__.1
                0x00000000       0x13 CMakeFiles/1.8inch_TFT_Display.dir/E_/Pi_Pico/pico-sdk/src/common/pico_time/time.c.obj
 .rodata.at_the_end_of_time
                0x00000000        0x8 CMakeFiles/1.8inch_TFT_Display.dir/E_/Pi_Pico/pico-sdk/src/common/pico_time/time.c.obj
 .rodata.nil_time
                0x00000000        0x8 CMakeFiles/1.8inch_TFT_Display.dir/E_/Pi_Pico/pico-sdk/src/common/pico_time/time.c.obj
 .text          0x00000000        0x0 CMakeFiles/1.8inch_TFT_Display.dir/E_/Pi_Pico/pico-sdk/src/common/pico_time/timeout_helper.c.obj
 .data          0x00000000        0x0 CMakeFiles/1.8inch_TFT_Display.dir/E_/Pi_Pico/pico-sdk/src/common/pico_time/timeout_helper.c.obj
 .bss           0x00000000        0x0 CMakeFiles/1.8inch_TFT_Display.dir/E_/Pi_Pico/pico-sdk/src/common/pico_time/timeout_helper.c.obj
 .text.check_per_iteration_timeout_us
                0x00000000       0x60 CMakeFiles/1.8inch_TFT_Display.dir/E_/Pi_Pico/pico-sdk/src/common/pico_time/timeout_helper.c.obj
 .text.check_single_timeout_us
                0x00000000       0x2c CMakeFiles/1.8inch_TFT_Display.dir/E_/Pi_Pico/pico-sdk/src/common/pico_time/timeout_helper.c.obj
 .text.init_single_timeout_until
                0x00000000        0xc CMakeFiles/1.8inch_TFT_Display.dir/E_/Pi_Pico/pico-sdk/src/common/pico_time/timeout_helper.c.obj
 .text.init_per_iteration_timeout_us
                0x00000000       0x38 CMakeFiles/1.8inch_TFT_Display.dir/E_/Pi_Pico/pico-sdk/src/common/pico_time/timeout_helper.c.obj
 .debug_info    0x00000000      0x70b CMakeFiles/1.8inch_TFT_Display.dir/E_/Pi_Pico/pico-sdk/src/common/pico_time/timeout_helper.c.obj
 .debug_abbrev  0x00000000      0x232 CMakeFiles/1.8inch_TFT_Display.dir/E_/Pi_Pico/pico-sdk/src/common/pico_time/timeout_helper.c.obj
 .debug_loc     0x00000000      0x35b CMakeFiles/1.8inch_TFT_Display.dir/E_/Pi_Pico/pico-sdk/src/common/pico_time/timeout_helper.c.obj
 .debug_aranges
                0x00000000       0x38 CMakeFiles/1.8inch_TFT_Display.dir/E_/Pi_Pico/pico-sdk/src/common/pico_time/timeout_helper.c.obj
 .debug_ranges  0x00000000       0x58 CMakeFiles/1.8inch_TFT_Display.dir/E_/Pi_Pico/pico-sdk/src/common/pico_time/timeout_helper.c.obj
 .debug_line    0x00000000      0x49e CMakeFiles/1.8inch_TFT_Display.dir/E_/Pi_Pico/pico-sdk/src/common/pico_time/timeout_helper.c.obj
 .debug_str     0x00000000      0x3c8 CMakeFiles/1.8inch_TFT_Display.dir/E_/Pi_Pico/pico-sdk/src/common/pico_time/timeout_helper.c.obj
 .comment       0x00000000       0x4e CMakeFiles/1.8inch_TFT_Display.dir/E_/Pi_Pico/pico-sdk/src/common/pico_time/timeout_helper.c.obj
 .debug_frame   0x00000000       0x6c CMakeFiles/1.8inch_TFT_Display.dir/E_/Pi_Pico/pico-sdk/src/common/pico_time/timeout_helper.c.obj
 .ARM.attributes
                0x00000000       0x2b CMakeFiles/1.8inch_TFT_Display.dir/E_/Pi_Pico/pico-sdk/src/common/pico_time/timeout_helper.c.obj
 .text          0x00000000        0x0 CMakeFiles/1.8inch_TFT_Display.dir/E_/Pi_Pico/pico-sdk/src/rp2_common/hardware_timer/timer.c.obj
 .data          0x00000000        0x0 CMakeFiles/1.8inch_TFT_Display.dir/E_/Pi_Pico/pico-sdk/src/rp2_common/hardware_timer/timer.c.obj
 .bss           0x00000000        0x0 CMakeFiles/1.8inch_TFT_Display.dir/E_/Pi_Pico/pico-sdk/src/rp2_common/hardware_timer/timer.c.obj
 .text.hardware_alarm_unclaim
                0x00000000       0x10 CMakeFiles/1.8inch_TFT_Display.dir/E_/Pi_Pico/pico-sdk/src/rp2_common/hardware_timer/timer.c.obj
 .text.busy_wait_us
                0x00000000       0x2c CMakeFiles/1.8inch_TFT_Display.dir/E_/Pi_Pico/pico-sdk/src/rp2_common/hardware_timer/timer.c.obj
 .text.busy_wait_us_32
                0x00000000       0x24 CMakeFiles/1.8inch_TFT_Display.dir/E_/Pi_Pico/pico-sdk/src/rp2_common/hardware_timer/timer.c.obj
 .text          0x00000000        0x0 CMakeFiles/1.8inch_TFT_Display.dir/E_/Pi_Pico/pico-sdk/src/common/pico_sync/sem.c.obj
 .data          0x00000000        0x0 CMakeFiles/1.8inch_TFT_Display.dir/E_/Pi_Pico/pico-sdk/src/common/pico_sync/sem.c.obj
 .bss           0x00000000        0x0 CMakeFiles/1.8inch_TFT_Display.dir/E_/Pi_Pico/pico-sdk/src/common/pico_sync/sem.c.obj
 .text.sem_init
                0x00000000       0x1e CMakeFiles/1.8inch_TFT_Display.dir/E_/Pi_Pico/pico-sdk/src/common/pico_sync/sem.c.obj
 .time_critical.sem_available
                0x00000000        0x6 CMakeFiles/1.8inch_TFT_Display.dir/E_/Pi_Pico/pico-sdk/src/common/pico_sync/sem.c.obj
 .time_critical.sem_acquire_blocking
                0x00000000       0x3e CMakeFiles/1.8inch_TFT_Display.dir/E_/Pi_Pico/pico-sdk/src/common/pico_sync/sem.c.obj
 .time_critical.sem_acquire_timeout_ms
                0x00000000       0xa8 CMakeFiles/1.8inch_TFT_Display.dir/E_/Pi_Pico/pico-sdk/src/common/pico_sync/sem.c.obj
 .time_critical.sem_release
                0x00000000       0x3c CMakeFiles/1.8inch_TFT_Display.dir/E_/Pi_Pico/pico-sdk/src/common/pico_sync/sem.c.obj
 .rodata.str1.4
                0x00000000       0x5b CMakeFiles/1.8inch_TFT_Display.dir/E_/Pi_Pico/pico-sdk/src/common/pico_sync/sem.c.obj
 .time_critical.sem_reset
                0x00000000       0x54 CMakeFiles/1.8inch_TFT_Display.dir/E_/Pi_Pico/pico-sdk/src/common/pico_sync/sem.c.obj
 .rodata.__func__.0
                0x00000000        0xa CMakeFiles/1.8inch_TFT_Display.dir/E_/Pi_Pico/pico-sdk/src/common/pico_sync/sem.c.obj
 .debug_info    0x00000000      0xd2d CMakeFiles/1.8inch_TFT_Display.dir/E_/Pi_Pico/pico-sdk/src/common/pico_sync/sem.c.obj
 .debug_abbrev  0x00000000      0x338 CMakeFiles/1.8inch_TFT_Display.dir/E_/Pi_Pico/pico-sdk/src/common/pico_sync/sem.c.obj
 .debug_loc     0x00000000      0x685 CMakeFiles/1.8inch_TFT_Display.dir/E_/Pi_Pico/pico-sdk/src/common/pico_sync/sem.c.obj
 .debug_aranges
                0x00000000       0x48 CMakeFiles/1.8inch_TFT_Display.dir/E_/Pi_Pico/pico-sdk/src/common/pico_sync/sem.c.obj
 .debug_ranges  0x00000000      0x338 CMakeFiles/1.8inch_TFT_Display.dir/E_/Pi_Pico/pico-sdk/src/common/pico_sync/sem.c.obj
 .debug_line    0x00000000      0x7a6 CMakeFiles/1.8inch_TFT_Display.dir/E_/Pi_Pico/pico-sdk/src/common/pico_sync/sem.c.obj
 .debug_str     0x00000000      0x49a CMakeFiles/1.8inch_TFT_Display.dir/E_/Pi_Pico/pico-sdk/src/common/pico_sync/sem.c.obj
 .comment       0x00000000       0x4e CMakeFiles/1.8inch_TFT_Display.dir/E_/Pi_Pico/pico-sdk/src/common/pico_sync/sem.c.obj
 .debug_frame   0x00000000       0x94 CMakeFiles/1.8inch_TFT_Display.dir/E_/Pi_Pico/pico-sdk/src/common/pico_sync/sem.c.obj
 .ARM.attributes
                0x00000000       0x2b CMakeFiles/1.8inch_TFT_Display.dir/E_/Pi_Pico/pico-sdk/src/common/pico_sync/sem.c.obj
 .text          0x00000000        0x0 CMakeFiles/1.8inch_TFT_Display.dir/E_/Pi_Pico/pico-sdk/src/common/pico_sync/lock_core.c.obj
 .data          0x00000000        0x0 CMakeFiles/1.8inch_TFT_Display.dir/E_/Pi_Pico/pico-sdk/src/common/pico_sync/lock_core.c.obj
 .bss           0x00000000        0x0 CMakeFiles/1.8inch_TFT_Display.dir/E_/Pi_Pico/pico-sdk/src/common/pico_sync/lock_core.c.obj
 .text          0x00000000        0x0 CMakeFiles/1.8inch_TFT_Display.dir/E_/Pi_Pico/pico-sdk/src/common/pico_sync/mutex.c.obj
 .data          0x00000000        0x0 CMakeFiles/1.8inch_TFT_Display.dir/E_/Pi_Pico/pico-sdk/src/common/pico_sync/mutex.c.obj
 .bss           0x00000000        0x0 CMakeFiles/1.8inch_TFT_Display.dir/E_/Pi_Pico/pico-sdk/src/common/pico_sync/mutex.c.obj
 .text          0x00000000        0x0 CMakeFiles/1.8inch_TFT_Display.dir/E_/Pi_Pico/pico-sdk/src/common/pico_sync/critical_section.c.obj
 .data          0x00000000        0x0 CMakeFiles/1.8inch_TFT_Display.dir/E_/Pi_Pico/pico-sdk/src/common/pico_sync/critical_section.c.obj
 .bss           0x00000000        0x0 CMakeFiles/1.8inch_TFT_Display.dir/E_/Pi_Pico/pico-sdk/src/common/pico_sync/critical_section.c.obj
 .text.critical_section_deinit
                0x00000000       0x18 CMakeFiles/1.8inch_TFT_Display.dir/E_/Pi_Pico/pico-sdk/src/common/pico_sync/critical_section.c.obj
 .text          0x00000000        0x0 CMakeFiles/1.8inch_TFT_Display.dir/E_/Pi_Pico/pico-sdk/src/common/pico_util/datetime.c.obj
 .data          0x00000000        0x0 CMakeFiles/1.8inch_TFT_Display.dir/E_/Pi_Pico/pico-sdk/src/common/pico_util/datetime.c.obj
 .bss           0x00000000        0x0 CMakeFiles/1.8inch_TFT_Display.dir/E_/Pi_Pico/pico-sdk/src/common/pico_util/datetime.c.obj
 .rodata.datetime_to_str.str1.4
                0x00000000       0x19 CMakeFiles/1.8inch_TFT_Display.dir/E_/Pi_Pico/pico-sdk/src/common/pico_util/datetime.c.obj
 .text.datetime_to_str
                0x00000000       0x64 CMakeFiles/1.8inch_TFT_Display.dir/E_/Pi_Pico/pico-sdk/src/common/pico_util/datetime.c.obj
 .rodata.str1.4
                0x00000000       0xad CMakeFiles/1.8inch_TFT_Display.dir/E_/Pi_Pico/pico-sdk/src/common/pico_util/datetime.c.obj
 .rodata.DATETIME_DOWS
                0x00000000       0x1c CMakeFiles/1.8inch_TFT_Display.dir/E_/Pi_Pico/pico-sdk/src/common/pico_util/datetime.c.obj
 .rodata.DATETIME_MONTHS
                0x00000000       0x30 CMakeFiles/1.8inch_TFT_Display.dir/E_/Pi_Pico/pico-sdk/src/common/pico_util/datetime.c.obj
 .debug_info    0x00000000      0x21a CMakeFiles/1.8inch_TFT_Display.dir/E_/Pi_Pico/pico-sdk/src/common/pico_util/datetime.c.obj
 .debug_abbrev  0x00000000      0x10b CMakeFiles/1.8inch_TFT_Display.dir/E_/Pi_Pico/pico-sdk/src/common/pico_util/datetime.c.obj
 .debug_loc     0x00000000       0x7c CMakeFiles/1.8inch_TFT_Display.dir/E_/Pi_Pico/pico-sdk/src/common/pico_util/datetime.c.obj
 .debug_aranges
                0x00000000       0x20 CMakeFiles/1.8inch_TFT_Display.dir/E_/Pi_Pico/pico-sdk/src/common/pico_util/datetime.c.obj
 .debug_ranges  0x00000000       0x10 CMakeFiles/1.8inch_TFT_Display.dir/E_/Pi_Pico/pico-sdk/src/common/pico_util/datetime.c.obj
 .debug_line    0x00000000      0x1a0 CMakeFiles/1.8inch_TFT_Display.dir/E_/Pi_Pico/pico-sdk/src/common/pico_util/datetime.c.obj
 .debug_str     0x00000000      0x20d CMakeFiles/1.8inch_TFT_Display.dir/E_/Pi_Pico/pico-sdk/src/common/pico_util/datetime.c.obj
 .comment       0x00000000       0x4e CMakeFiles/1.8inch_TFT_Display.dir/E_/Pi_Pico/pico-sdk/src/common/pico_util/datetime.c.obj
 .debug_frame   0x00000000       0x38 CMakeFiles/1.8inch_TFT_Display.dir/E_/Pi_Pico/pico-sdk/src/common/pico_util/datetime.c.obj
 .ARM.attributes
                0x00000000       0x2b CMakeFiles/1.8inch_TFT_Display.dir/E_/Pi_Pico/pico-sdk/src/common/pico_util/datetime.c.obj
 .text          0x00000000        0x0 CMakeFiles/1.8inch_TFT_Display.dir/E_/Pi_Pico/pico-sdk/src/common/pico_util/pheap.c.obj
 .data          0x00000000        0x0 CMakeFiles/1.8inch_TFT_Display.dir/E_/Pi_Pico/pico-sdk/src/common/pico_util/pheap.c.obj
 .bss           0x00000000        0x0 CMakeFiles/1.8inch_TFT_Display.dir/E_/Pi_Pico/pico-sdk/src/common/pico_util/pheap.c.obj
 .rodata.ph_dump_node.str1.4
                0x00000000       0x15 CMakeFiles/1.8inch_TFT_Display.dir/E_/Pi_Pico/pico-sdk/src/common/pico_util/pheap.c.obj
 .text.ph_dump_node
                0x00000000       0xb4 CMakeFiles/1.8inch_TFT_Display.dir/E_/Pi_Pico/pico-sdk/src/common/pico_util/pheap.c.obj
 .text.ph_destroy
                0x00000000       0x12 CMakeFiles/1.8inch_TFT_Display.dir/E_/Pi_Pico/pico-sdk/src/common/pico_util/pheap.c.obj
 .rodata.ph_dump.str1.4
                0x00000000        0xf CMakeFiles/1.8inch_TFT_Display.dir/E_/Pi_Pico/pico-sdk/src/common/pico_util/pheap.c.obj
 .text.ph_dump  0x00000000       0x24 CMakeFiles/1.8inch_TFT_Display.dir/E_/Pi_Pico/pico-sdk/src/common/pico_util/pheap.c.obj
 .text          0x00000000        0x0 CMakeFiles/1.8inch_TFT_Display.dir/E_/Pi_Pico/pico-sdk/src/common/pico_util/queue.c.obj
 .data          0x00000000        0x0 CMakeFiles/1.8inch_TFT_Display.dir/E_/Pi_Pico/pico-sdk/src/common/pico_util/queue.c.obj
 .bss           0x00000000        0x0 CMakeFiles/1.8inch_TFT_Display.dir/E_/Pi_Pico/pico-sdk/src/common/pico_util/queue.c.obj
 .text.queue_init_with_spinlock
                0x00000000       0x2c CMakeFiles/1.8inch_TFT_Display.dir/E_/Pi_Pico/pico-sdk/src/common/pico_util/queue.c.obj
 .text.queue_free
                0x00000000        0xa CMakeFiles/1.8inch_TFT_Display.dir/E_/Pi_Pico/pico-sdk/src/common/pico_util/queue.c.obj
 .rodata.queue_try_add.str1.4
                0x00000000       0x4d CMakeFiles/1.8inch_TFT_Display.dir/E_/Pi_Pico/pico-sdk/src/common/pico_util/queue.c.obj
 .text.queue_try_add
                0x00000000       0x84 CMakeFiles/1.8inch_TFT_Display.dir/E_/Pi_Pico/pico-sdk/src/common/pico_util/queue.c.obj
 .text.queue_try_remove
                0x00000000       0x84 CMakeFiles/1.8inch_TFT_Display.dir/E_/Pi_Pico/pico-sdk/src/common/pico_util/queue.c.obj
 .text.queue_try_peek
                0x00000000       0x70 CMakeFiles/1.8inch_TFT_Display.dir/E_/Pi_Pico/pico-sdk/src/common/pico_util/queue.c.obj
 .text.queue_add_blocking
                0x00000000       0x18 CMakeFiles/1.8inch_TFT_Display.dir/E_/Pi_Pico/pico-sdk/src/common/pico_util/queue.c.obj
 .text.queue_remove_blocking
                0x00000000       0x18 CMakeFiles/1.8inch_TFT_Display.dir/E_/Pi_Pico/pico-sdk/src/common/pico_util/queue.c.obj
 .text.queue_peek_blocking
                0x00000000       0x18 CMakeFiles/1.8inch_TFT_Display.dir/E_/Pi_Pico/pico-sdk/src/common/pico_util/queue.c.obj
 .rodata.__func__.0
                0x00000000        0xc CMakeFiles/1.8inch_TFT_Display.dir/E_/Pi_Pico/pico-sdk/src/common/pico_util/queue.c.obj
 .debug_info    0x00000000      0xd07 CMakeFiles/1.8inch_TFT_Display.dir/E_/Pi_Pico/pico-sdk/src/common/pico_util/queue.c.obj
 .debug_abbrev  0x00000000      0x29d CMakeFiles/1.8inch_TFT_Display.dir/E_/Pi_Pico/pico-sdk/src/common/pico_util/queue.c.obj
 .debug_loc     0x00000000      0xabc CMakeFiles/1.8inch_TFT_Display.dir/E_/Pi_Pico/pico-sdk/src/common/pico_util/queue.c.obj
 .debug_aranges
                0x00000000       0x58 CMakeFiles/1.8inch_TFT_Display.dir/E_/Pi_Pico/pico-sdk/src/common/pico_util/queue.c.obj
 .debug_ranges  0x00000000      0x2b8 CMakeFiles/1.8inch_TFT_Display.dir/E_/Pi_Pico/pico-sdk/src/common/pico_util/queue.c.obj
 .debug_line    0x00000000      0x755 CMakeFiles/1.8inch_TFT_Display.dir/E_/Pi_Pico/pico-sdk/src/common/pico_util/queue.c.obj
 .debug_str     0x00000000      0x421 CMakeFiles/1.8inch_TFT_Display.dir/E_/Pi_Pico/pico-sdk/src/common/pico_util/queue.c.obj
 .comment       0x00000000       0x4e CMakeFiles/1.8inch_TFT_Display.dir/E_/Pi_Pico/pico-sdk/src/common/pico_util/queue.c.obj
 .debug_frame   0x00000000       0xec CMakeFiles/1.8inch_TFT_Display.dir/E_/Pi_Pico/pico-sdk/src/common/pico_util/queue.c.obj
 .ARM.attributes
                0x00000000       0x2b CMakeFiles/1.8inch_TFT_Display.dir/E_/Pi_Pico/pico-sdk/src/common/pico_util/queue.c.obj
 .text          0x00000000        0x0 CMakeFiles/1.8inch_TFT_Display.dir/E_/Pi_Pico/pico-sdk/src/rp2_common/pico_runtime/runtime.c.obj
 .data          0x00000000        0x0 CMakeFiles/1.8inch_TFT_Display.dir/E_/Pi_Pico/pico-sdk/src/rp2_common/pico_runtime/runtime.c.obj
 .bss           0x00000000        0x0 CMakeFiles/1.8inch_TFT_Display.dir/E_/Pi_Pico/pico-sdk/src/rp2_common/pico_runtime/runtime.c.obj
 .text.runtime_install_stack_guard
                0x00000000       0x40 CMakeFiles/1.8inch_TFT_Display.dir/E_/Pi_Pico/pico-sdk/src/rp2_common/pico_runtime/runtime.c.obj
 .rodata.panic_unsupported.str1.4
                0x00000000        0xe CMakeFiles/1.8inch_TFT_Display.dir/E_/Pi_Pico/pico-sdk/src/rp2_common/pico_runtime/runtime.c.obj
 .text.panic_unsupported
                0x00000000        0xc CMakeFiles/1.8inch_TFT_Display.dir/E_/Pi_Pico/pico-sdk/src/rp2_common/pico_runtime/runtime.c.obj
 .rodata.hard_assertion_failure.str1.4
                0x00000000        0xc CMakeFiles/1.8inch_TFT_Display.dir/E_/Pi_Pico/pico-sdk/src/rp2_common/pico_runtime/runtime.c.obj
 .text.hard_assertion_failure
                0x00000000        0xc CMakeFiles/1.8inch_TFT_Display.dir/E_/Pi_Pico/pico-sdk/src/rp2_common/pico_runtime/runtime.c.obj
 .text          0x00000000        0x0 CMakeFiles/1.8inch_TFT_Display.dir/E_/Pi_Pico/pico-sdk/src/rp2_common/hardware_clocks/clocks.c.obj
 .data          0x00000000        0x0 CMakeFiles/1.8inch_TFT_Display.dir/E_/Pi_Pico/pico-sdk/src/rp2_common/hardware_clocks/clocks.c.obj
 .bss           0x00000000        0x0 CMakeFiles/1.8inch_TFT_Display.dir/E_/Pi_Pico/pico-sdk/src/rp2_common/hardware_clocks/clocks.c.obj
 .text.clock_stop
                0x00000000       0x2c CMakeFiles/1.8inch_TFT_Display.dir/E_/Pi_Pico/pico-sdk/src/rp2_common/hardware_clocks/clocks.c.obj
 .rodata.clocks_handle_resus.str1.4
                0x00000000       0x8b CMakeFiles/1.8inch_TFT_Display.dir/E_/Pi_Pico/pico-sdk/src/rp2_common/hardware_clocks/clocks.c.obj
 .text.clocks_handle_resus
                0x00000000       0x80 CMakeFiles/1.8inch_TFT_Display.dir/E_/Pi_Pico/pico-sdk/src/rp2_common/hardware_clocks/clocks.c.obj
 .rodata.clocks_irq_handler.str1.4
                0x00000000       0x17 CMakeFiles/1.8inch_TFT_Display.dir/E_/Pi_Pico/pico-sdk/src/rp2_common/hardware_clocks/clocks.c.obj
 .text.clocks_irq_handler
                0x00000000       0x2c CMakeFiles/1.8inch_TFT_Display.dir/E_/Pi_Pico/pico-sdk/src/rp2_common/hardware_clocks/clocks.c.obj
 .text.clock_set_reported_hz
                0x00000000        0xc CMakeFiles/1.8inch_TFT_Display.dir/E_/Pi_Pico/pico-sdk/src/rp2_common/hardware_clocks/clocks.c.obj
 .text.frequency_count_khz
                0x00000000       0x40 CMakeFiles/1.8inch_TFT_Display.dir/E_/Pi_Pico/pico-sdk/src/rp2_common/hardware_clocks/clocks.c.obj
 .text.clocks_enable_resus
                0x00000000       0x34 CMakeFiles/1.8inch_TFT_Display.dir/E_/Pi_Pico/pico-sdk/src/rp2_common/hardware_clocks/clocks.c.obj
 .text.clock_gpio_init
                0x00000000       0x4c CMakeFiles/1.8inch_TFT_Display.dir/E_/Pi_Pico/pico-sdk/src/rp2_common/hardware_clocks/clocks.c.obj
 .text.clock_configure_gpin
                0x00000000       0x5c CMakeFiles/1.8inch_TFT_Display.dir/E_/Pi_Pico/pico-sdk/src/rp2_common/hardware_clocks/clocks.c.obj
 .bss._resus_callback
                0x00000000        0x4 CMakeFiles/1.8inch_TFT_Display.dir/E_/Pi_Pico/pico-sdk/src/rp2_common/hardware_clocks/clocks.c.obj
 .rodata.__func__.0
                0x00000000       0x14 CMakeFiles/1.8inch_TFT_Display.dir/E_/Pi_Pico/pico-sdk/src/rp2_common/hardware_clocks/clocks.c.obj
 .rodata.gpin0_src
                0x00000000        0xa CMakeFiles/1.8inch_TFT_Display.dir/E_/Pi_Pico/pico-sdk/src/rp2_common/hardware_clocks/clocks.c.obj
 .text          0x00000000        0x0 CMakeFiles/1.8inch_TFT_Display.dir/E_/Pi_Pico/pico-sdk/src/rp2_common/hardware_watchdog/watchdog.c.obj
 .data          0x00000000        0x0 CMakeFiles/1.8inch_TFT_Display.dir/E_/Pi_Pico/pico-sdk/src/rp2_common/hardware_watchdog/watchdog.c.obj
 .bss           0x00000000        0x0 CMakeFiles/1.8inch_TFT_Display.dir/E_/Pi_Pico/pico-sdk/src/rp2_common/hardware_watchdog/watchdog.c.obj
 .text.watchdog_update
                0x00000000       0x14 CMakeFiles/1.8inch_TFT_Display.dir/E_/Pi_Pico/pico-sdk/src/rp2_common/hardware_watchdog/watchdog.c.obj
 .text.watchdog_get_count
                0x00000000       0x10 CMakeFiles/1.8inch_TFT_Display.dir/E_/Pi_Pico/pico-sdk/src/rp2_common/hardware_watchdog/watchdog.c.obj
 .text._watchdog_enable
                0x00000000       0x70 CMakeFiles/1.8inch_TFT_Display.dir/E_/Pi_Pico/pico-sdk/src/rp2_common/hardware_watchdog/watchdog.c.obj
 .text.watchdog_enable
                0x00000000       0x14 CMakeFiles/1.8inch_TFT_Display.dir/E_/Pi_Pico/pico-sdk/src/rp2_common/hardware_watchdog/watchdog.c.obj
 .text.watchdog_reboot
                0x00000000       0x48 CMakeFiles/1.8inch_TFT_Display.dir/E_/Pi_Pico/pico-sdk/src/rp2_common/hardware_watchdog/watchdog.c.obj
 .text.watchdog_caused_reboot
                0x00000000       0x10 CMakeFiles/1.8inch_TFT_Display.dir/E_/Pi_Pico/pico-sdk/src/rp2_common/hardware_watchdog/watchdog.c.obj
 .bss.load_value
                0x00000000        0x4 CMakeFiles/1.8inch_TFT_Display.dir/E_/Pi_Pico/pico-sdk/src/rp2_common/hardware_watchdog/watchdog.c.obj
 .text          0x00000000        0x0 CMakeFiles/1.8inch_TFT_Display.dir/E_/Pi_Pico/pico-sdk/src/rp2_common/hardware_xosc/xosc.c.obj
 .data          0x00000000        0x0 CMakeFiles/1.8inch_TFT_Display.dir/E_/Pi_Pico/pico-sdk/src/rp2_common/hardware_xosc/xosc.c.obj
 .bss           0x00000000        0x0 CMakeFiles/1.8inch_TFT_Display.dir/E_/Pi_Pico/pico-sdk/src/rp2_common/hardware_xosc/xosc.c.obj
 .text.xosc_disable
                0x00000000       0x24 CMakeFiles/1.8inch_TFT_Display.dir/E_/Pi_Pico/pico-sdk/src/rp2_common/hardware_xosc/xosc.c.obj
 .text.xosc_dormant
                0x00000000       0x18 CMakeFiles/1.8inch_TFT_Display.dir/E_/Pi_Pico/pico-sdk/src/rp2_common/hardware_xosc/xosc.c.obj
 .text          0x00000000        0x0 CMakeFiles/1.8inch_TFT_Display.dir/E_/Pi_Pico/pico-sdk/src/rp2_common/hardware_pll/pll.c.obj
 .data          0x00000000        0x0 CMakeFiles/1.8inch_TFT_Display.dir/E_/Pi_Pico/pico-sdk/src/rp2_common/hardware_pll/pll.c.obj
 .bss           0x00000000        0x0 CMakeFiles/1.8inch_TFT_Display.dir/E_/Pi_Pico/pico-sdk/src/rp2_common/hardware_pll/pll.c.obj
 .text.pll_deinit
                0x00000000        0x6 CMakeFiles/1.8inch_TFT_Display.dir/E_/Pi_Pico/pico-sdk/src/rp2_common/hardware_pll/pll.c.obj
 .text          0x00000000        0x0 CMakeFiles/1.8inch_TFT_Display.dir/E_/Pi_Pico/pico-sdk/src/rp2_common/hardware_vreg/vreg.c.obj
 .data          0x00000000        0x0 CMakeFiles/1.8inch_TFT_Display.dir/E_/Pi_Pico/pico-sdk/src/rp2_common/hardware_vreg/vreg.c.obj
 .bss           0x00000000        0x0 CMakeFiles/1.8inch_TFT_Display.dir/E_/Pi_Pico/pico-sdk/src/rp2_common/hardware_vreg/vreg.c.obj
 .text.vreg_set_voltage
                0x00000000       0x1c CMakeFiles/1.8inch_TFT_Display.dir/E_/Pi_Pico/pico-sdk/src/rp2_common/hardware_vreg/vreg.c.obj
 .debug_info    0x00000000      0x244 CMakeFiles/1.8inch_TFT_Display.dir/E_/Pi_Pico/pico-sdk/src/rp2_common/hardware_vreg/vreg.c.obj
 .debug_abbrev  0x00000000      0x11d CMakeFiles/1.8inch_TFT_Display.dir/E_/Pi_Pico/pico-sdk/src/rp2_common/hardware_vreg/vreg.c.obj
 .debug_loc     0x00000000       0x9a CMakeFiles/1.8inch_TFT_Display.dir/E_/Pi_Pico/pico-sdk/src/rp2_common/hardware_vreg/vreg.c.obj
 .debug_aranges
                0x00000000       0x20 CMakeFiles/1.8inch_TFT_Display.dir/E_/Pi_Pico/pico-sdk/src/rp2_common/hardware_vreg/vreg.c.obj
 .debug_ranges  0x00000000       0x10 CMakeFiles/1.8inch_TFT_Display.dir/E_/Pi_Pico/pico-sdk/src/rp2_common/hardware_vreg/vreg.c.obj
 .debug_line    0x00000000      0x235 CMakeFiles/1.8inch_TFT_Display.dir/E_/Pi_Pico/pico-sdk/src/rp2_common/hardware_vreg/vreg.c.obj
 .debug_str     0x00000000      0x32a CMakeFiles/1.8inch_TFT_Display.dir/E_/Pi_Pico/pico-sdk/src/rp2_common/hardware_vreg/vreg.c.obj
 .comment       0x00000000       0x4e CMakeFiles/1.8inch_TFT_Display.dir/E_/Pi_Pico/pico-sdk/src/rp2_common/hardware_vreg/vreg.c.obj
 .debug_frame   0x00000000       0x20 CMakeFiles/1.8inch_TFT_Display.dir/E_/Pi_Pico/pico-sdk/src/rp2_common/hardware_vreg/vreg.c.obj
 .ARM.attributes
                0x00000000       0x2b CMakeFiles/1.8inch_TFT_Display.dir/E_/Pi_Pico/pico-sdk/src/rp2_common/hardware_vreg/vreg.c.obj
 .text          0x00000000        0x0 CMakeFiles/1.8inch_TFT_Display.dir/E_/Pi_Pico/pico-sdk/src/rp2_common/hardware_irq/irq.c.obj
 .data          0x00000000        0x0 CMakeFiles/1.8inch_TFT_Display.dir/E_/Pi_Pico/pico-sdk/src/rp2_common/hardware_irq/irq.c.obj
 .bss           0x00000000        0x0 CMakeFiles/1.8inch_TFT_Display.dir/E_/Pi_Pico/pico-sdk/src/rp2_common/hardware_irq/irq.c.obj
 .text.irq_get_exclusive_handler
                0x00000000       0x4c CMakeFiles/1.8inch_TFT_Display.dir/E_/Pi_Pico/pico-sdk/src/rp2_common/hardware_irq/irq.c.obj
 .text.irq_add_shared_handler
                0x00000000      0x230 CMakeFiles/1.8inch_TFT_Display.dir/E_/Pi_Pico/pico-sdk/src/rp2_common/hardware_irq/irq.c.obj
 .rodata.__func__.5
                0x00000000       0x17 CMakeFiles/1.8inch_TFT_Display.dir/E_/Pi_Pico/pico-sdk/src/rp2_common/hardware_irq/irq.c.obj
 .text          0x00000000        0x0 CMakeFiles/1.8inch_TFT_Display.dir/E_/Pi_Pico/pico-sdk/src/rp2_common/hardware_irq/irq_handler_chain.S.obj
 .bss           0x00000000        0x0 CMakeFiles/1.8inch_TFT_Display.dir/E_/Pi_Pico/pico-sdk/src/rp2_common/hardware_irq/irq_handler_chain.S.obj
 .text          0x00000000        0x0 CMakeFiles/1.8inch_TFT_Display.dir/E_/Pi_Pico/pico-sdk/src/rp2_common/pico_printf/printf.c.obj
 .data          0x00000000        0x0 CMakeFiles/1.8inch_TFT_Display.dir/E_/Pi_Pico/pico-sdk/src/rp2_common/pico_printf/printf.c.obj
 .bss           0x00000000        0x0 CMakeFiles/1.8inch_TFT_Display.dir/E_/Pi_Pico/pico-sdk/src/rp2_common/pico_printf/printf.c.obj
 .text._out_buffer
                0x00000000        0x8 CMakeFiles/1.8inch_TFT_Display.dir/E_/Pi_Pico/pico-sdk/src/rp2_common/pico_printf/printf.c.obj
 .text.__wrap_sprintf
                0x00000000       0x28 CMakeFiles/1.8inch_TFT_Display.dir/E_/Pi_Pico/pico-sdk/src/rp2_common/pico_printf/printf.c.obj
 .text.__wrap_snprintf
                0x00000000       0x28 CMakeFiles/1.8inch_TFT_Display.dir/E_/Pi_Pico/pico-sdk/src/rp2_common/pico_printf/printf.c.obj
 .text.__wrap_vsnprintf
                0x00000000       0x1c CMakeFiles/1.8inch_TFT_Display.dir/E_/Pi_Pico/pico-sdk/src/rp2_common/pico_printf/printf.c.obj
 .data          0x00000000        0x0 CMakeFiles/1.8inch_TFT_Display.dir/E_/Pi_Pico/pico-sdk/src/rp2_common/pico_bit_ops/bit_ops_aeabi.S.obj
 .bss           0x00000000        0x0 CMakeFiles/1.8inch_TFT_Display.dir/E_/Pi_Pico/pico-sdk/src/rp2_common/pico_bit_ops/bit_ops_aeabi.S.obj
 .text.clzsi    0x00000000        0xc CMakeFiles/1.8inch_TFT_Display.dir/E_/Pi_Pico/pico-sdk/src/rp2_common/pico_bit_ops/bit_ops_aeabi.S.obj
 .text.ctzsi    0x00000000        0xc CMakeFiles/1.8inch_TFT_Display.dir/E_/Pi_Pico/pico-sdk/src/rp2_common/pico_bit_ops/bit_ops_aeabi.S.obj
 .text.popcountsi
                0x00000000        0xc CMakeFiles/1.8inch_TFT_Display.dir/E_/Pi_Pico/pico-sdk/src/rp2_common/pico_bit_ops/bit_ops_aeabi.S.obj
 .text.clzdi    0x00000000       0x18 CMakeFiles/1.8inch_TFT_Display.dir/E_/Pi_Pico/pico-sdk/src/rp2_common/pico_bit_ops/bit_ops_aeabi.S.obj
 .text.ctzdi    0x00000000       0x18 CMakeFiles/1.8inch_TFT_Display.dir/E_/Pi_Pico/pico-sdk/src/rp2_common/pico_bit_ops/bit_ops_aeabi.S.obj
 .text.popcountdi
                0x00000000       0x18 CMakeFiles/1.8inch_TFT_Display.dir/E_/Pi_Pico/pico-sdk/src/rp2_common/pico_bit_ops/bit_ops_aeabi.S.obj
 .text.reverse32
                0x00000000        0xc CMakeFiles/1.8inch_TFT_Display.dir/E_/Pi_Pico/pico-sdk/src/rp2_common/pico_bit_ops/bit_ops_aeabi.S.obj
 .text.__rev    0x00000000        0xc CMakeFiles/1.8inch_TFT_Display.dir/E_/Pi_Pico/pico-sdk/src/rp2_common/pico_bit_ops/bit_ops_aeabi.S.obj
 .text.__revll  0x00000000       0x18 CMakeFiles/1.8inch_TFT_Display.dir/E_/Pi_Pico/pico-sdk/src/rp2_common/pico_bit_ops/bit_ops_aeabi.S.obj
 .text          0x00000000        0x0 CMakeFiles/1.8inch_TFT_Display.dir/E_/Pi_Pico/pico-sdk/src/rp2_common/pico_bootrom/bootrom.c.obj
 .data          0x00000000        0x0 CMakeFiles/1.8inch_TFT_Display.dir/E_/Pi_Pico/pico-sdk/src/rp2_common/pico_bootrom/bootrom.c.obj
 .bss           0x00000000        0x0 CMakeFiles/1.8inch_TFT_Display.dir/E_/Pi_Pico/pico-sdk/src/rp2_common/pico_bootrom/bootrom.c.obj
 .text          0x00000000        0x0 CMakeFiles/1.8inch_TFT_Display.dir/E_/Pi_Pico/pico-sdk/src/rp2_common/pico_divider/divider.S.obj
 .data          0x00000000        0x0 CMakeFiles/1.8inch_TFT_Display.dir/E_/Pi_Pico/pico-sdk/src/rp2_common/pico_divider/divider.S.obj
 .bss           0x00000000        0x0 CMakeFiles/1.8inch_TFT_Display.dir/E_/Pi_Pico/pico-sdk/src/rp2_common/pico_divider/divider.S.obj
 .text.divmod_s64s64_rem
                0x00000000        0xc CMakeFiles/1.8inch_TFT_Display.dir/E_/Pi_Pico/pico-sdk/src/rp2_common/pico_divider/divider.S.obj
 .text.divmod_u64u64_rem
                0x00000000        0xc CMakeFiles/1.8inch_TFT_Display.dir/E_/Pi_Pico/pico-sdk/src/rp2_common/pico_divider/divider.S.obj
 .text          0x00000000        0x0 CMakeFiles/1.8inch_TFT_Display.dir/E_/Pi_Pico/pico-sdk/src/rp2_common/pico_double/double_aeabi.S.obj
 .data          0x00000000        0x0 CMakeFiles/1.8inch_TFT_Display.dir/E_/Pi_Pico/pico-sdk/src/rp2_common/pico_double/double_aeabi.S.obj
 .bss           0x00000000        0x0 CMakeFiles/1.8inch_TFT_Display.dir/E_/Pi_Pico/pico-sdk/src/rp2_common/pico_double/double_aeabi.S.obj
 .text.push_r8_r11
                0x00000000        0xc CMakeFiles/1.8inch_TFT_Display.dir/E_/Pi_Pico/pico-sdk/src/rp2_common/pico_double/double_aeabi.S.obj
 .text.pop_r8_r11
                0x00000000        0xc CMakeFiles/1.8inch_TFT_Display.dir/E_/Pi_Pico/pico-sdk/src/rp2_common/pico_double/double_aeabi.S.obj
 .text.__wrap___aeabi_dcmpeq
                0x00000000       0x10 CMakeFiles/1.8inch_TFT_Display.dir/E_/Pi_Pico/pico-sdk/src/rp2_common/pico_double/double_aeabi.S.obj
 .text.__wrap___aeabi_ui2d
                0x00000000       0x18 CMakeFiles/1.8inch_TFT_Display.dir/E_/Pi_Pico/pico-sdk/src/rp2_common/pico_double/double_aeabi.S.obj
 .text.double2int
                0x00000000       0x18 CMakeFiles/1.8inch_TFT_Display.dir/E_/Pi_Pico/pico-sdk/src/rp2_common/pico_double/double_aeabi.S.obj
 .text.fix2double
                0x00000000       0x18 CMakeFiles/1.8inch_TFT_Display.dir/E_/Pi_Pico/pico-sdk/src/rp2_common/pico_double/double_aeabi.S.obj
 .text.ufix2double
                0x00000000       0x28 CMakeFiles/1.8inch_TFT_Display.dir/E_/Pi_Pico/pico-sdk/src/rp2_common/pico_double/double_aeabi.S.obj
 .text.fix642double
                0x00000000       0x18 CMakeFiles/1.8inch_TFT_Display.dir/E_/Pi_Pico/pico-sdk/src/rp2_common/pico_double/double_aeabi.S.obj
 .text.__wrap___aeabi_l2d
                0x00000000       0x18 CMakeFiles/1.8inch_TFT_Display.dir/E_/Pi_Pico/pico-sdk/src/rp2_common/pico_double/double_aeabi.S.obj
 .text.__wrap___aeabi_ul2d
                0x00000000       0x18 CMakeFiles/1.8inch_TFT_Display.dir/E_/Pi_Pico/pico-sdk/src/rp2_common/pico_double/double_aeabi.S.obj
 .text.__wrap___aeabi_d2lz
                0x00000000       0x26 CMakeFiles/1.8inch_TFT_Display.dir/E_/Pi_Pico/pico-sdk/src/rp2_common/pico_double/double_aeabi.S.obj
 .text.double2int64
                0x00000000       0x18 CMakeFiles/1.8inch_TFT_Display.dir/E_/Pi_Pico/pico-sdk/src/rp2_common/pico_double/double_aeabi.S.obj
 .text.__wrap___aeabi_d2ulz
                0x00000000       0x18 CMakeFiles/1.8inch_TFT_Display.dir/E_/Pi_Pico/pico-sdk/src/rp2_common/pico_double/double_aeabi.S.obj
 .text.double2fix64
                0x00000000       0x18 CMakeFiles/1.8inch_TFT_Display.dir/E_/Pi_Pico/pico-sdk/src/rp2_common/pico_double/double_aeabi.S.obj
 .text.double2ufix64
                0x00000000       0x18 CMakeFiles/1.8inch_TFT_Display.dir/E_/Pi_Pico/pico-sdk/src/rp2_common/pico_double/double_aeabi.S.obj
 .text.double2fix
                0x00000000       0x18 CMakeFiles/1.8inch_TFT_Display.dir/E_/Pi_Pico/pico-sdk/src/rp2_common/pico_double/double_aeabi.S.obj
 .text.double2ufix
                0x00000000       0x18 CMakeFiles/1.8inch_TFT_Display.dir/E_/Pi_Pico/pico-sdk/src/rp2_common/pico_double/double_aeabi.S.obj
 .text.__wrap___aeabi_d2f
                0x00000000       0x18 CMakeFiles/1.8inch_TFT_Display.dir/E_/Pi_Pico/pico-sdk/src/rp2_common/pico_double/double_aeabi.S.obj
 .text.__wrap_srqt
                0x00000000       0x18 CMakeFiles/1.8inch_TFT_Display.dir/E_/Pi_Pico/pico-sdk/src/rp2_common/pico_double/double_aeabi.S.obj
 .text.__wrap_sincostan_remainder
                0x00000000       0x14 CMakeFiles/1.8inch_TFT_Display.dir/E_/Pi_Pico/pico-sdk/src/rp2_common/pico_double/double_aeabi.S.obj
 .text.__wrap_cos
                0x00000000       0x2c CMakeFiles/1.8inch_TFT_Display.dir/E_/Pi_Pico/pico-sdk/src/rp2_common/pico_double/double_aeabi.S.obj
 .text.__wrap_sin
                0x00000000       0x2c CMakeFiles/1.8inch_TFT_Display.dir/E_/Pi_Pico/pico-sdk/src/rp2_common/pico_double/double_aeabi.S.obj
 .text.__wrap_sincos
                0x00000000       0xa0 CMakeFiles/1.8inch_TFT_Display.dir/E_/Pi_Pico/pico-sdk/src/rp2_common/pico_double/double_aeabi.S.obj
 .text.__wrap_tan
                0x00000000       0x2c CMakeFiles/1.8inch_TFT_Display.dir/E_/Pi_Pico/pico-sdk/src/rp2_common/pico_double/double_aeabi.S.obj
 .text.__wrap_atan2
                0x00000000       0x18 CMakeFiles/1.8inch_TFT_Display.dir/E_/Pi_Pico/pico-sdk/src/rp2_common/pico_double/double_aeabi.S.obj
 .text.__wrap_exp
                0x00000000       0x18 CMakeFiles/1.8inch_TFT_Display.dir/E_/Pi_Pico/pico-sdk/src/rp2_common/pico_double/double_aeabi.S.obj
 .text.__wrap_log
                0x00000000       0x18 CMakeFiles/1.8inch_TFT_Display.dir/E_/Pi_Pico/pico-sdk/src/rp2_common/pico_double/double_aeabi.S.obj
 .text          0x00000000        0x0 CMakeFiles/1.8inch_TFT_Display.dir/E_/Pi_Pico/pico-sdk/src/rp2_common/pico_double/double_init_rom.c.obj
 .data          0x00000000        0x0 CMakeFiles/1.8inch_TFT_Display.dir/E_/Pi_Pico/pico-sdk/src/rp2_common/pico_double/double_init_rom.c.obj
 .bss           0x00000000        0x0 CMakeFiles/1.8inch_TFT_Display.dir/E_/Pi_Pico/pico-sdk/src/rp2_common/pico_double/double_init_rom.c.obj
 .text          0x00000000        0x0 CMakeFiles/1.8inch_TFT_Display.dir/E_/Pi_Pico/pico-sdk/src/rp2_common/pico_double/double_math.c.obj
 .data          0x00000000        0x0 CMakeFiles/1.8inch_TFT_Display.dir/E_/Pi_Pico/pico-sdk/src/rp2_common/pico_double/double_math.c.obj
 .bss           0x00000000        0x0 CMakeFiles/1.8inch_TFT_Display.dir/E_/Pi_Pico/pico-sdk/src/rp2_common/pico_double/double_math.c.obj
 .text.dpow_int2
                0x00000000       0x2c CMakeFiles/1.8inch_TFT_Display.dir/E_/Pi_Pico/pico-sdk/src/rp2_common/pico_double/double_math.c.obj
 .text.drem_0   0x00000000      0x130 CMakeFiles/1.8inch_TFT_Display.dir/E_/Pi_Pico/pico-sdk/src/rp2_common/pico_double/double_math.c.obj
 .text.dpow_1   0x00000000      0x2a8 CMakeFiles/1.8inch_TFT_Display.dir/E_/Pi_Pico/pico-sdk/src/rp2_common/pico_double/double_math.c.obj
 .text.dpowint_0
                0x00000000      0x180 CMakeFiles/1.8inch_TFT_Display.dir/E_/Pi_Pico/pico-sdk/src/rp2_common/pico_double/double_math.c.obj
 .text.dpow_0   0x00000000      0x180 CMakeFiles/1.8inch_TFT_Display.dir/E_/Pi_Pico/pico-sdk/src/rp2_common/pico_double/double_math.c.obj
 .text.__wrap_ldexp
                0x00000000       0x50 CMakeFiles/1.8inch_TFT_Display.dir/E_/Pi_Pico/pico-sdk/src/rp2_common/pico_double/double_math.c.obj
 .text.__wrap_copysign
                0x00000000       0x10 CMakeFiles/1.8inch_TFT_Display.dir/E_/Pi_Pico/pico-sdk/src/rp2_common/pico_double/double_math.c.obj
 .text.__wrap_trunc
                0x00000000       0x60 CMakeFiles/1.8inch_TFT_Display.dir/E_/Pi_Pico/pico-sdk/src/rp2_common/pico_double/double_math.c.obj
 .text.__wrap_round
                0x00000000       0x9c CMakeFiles/1.8inch_TFT_Display.dir/E_/Pi_Pico/pico-sdk/src/rp2_common/pico_double/double_math.c.obj
 .text.__wrap_floor
                0x00000000       0x9c CMakeFiles/1.8inch_TFT_Display.dir/E_/Pi_Pico/pico-sdk/src/rp2_common/pico_double/double_math.c.obj
 .text.__wrap_ceil
                0x00000000       0x9c CMakeFiles/1.8inch_TFT_Display.dir/E_/Pi_Pico/pico-sdk/src/rp2_common/pico_double/double_math.c.obj
 .text.__wrap_asin
                0x00000000       0x60 CMakeFiles/1.8inch_TFT_Display.dir/E_/Pi_Pico/pico-sdk/src/rp2_common/pico_double/double_math.c.obj
 .text.__wrap_acos
                0x00000000       0x5c CMakeFiles/1.8inch_TFT_Display.dir/E_/Pi_Pico/pico-sdk/src/rp2_common/pico_double/double_math.c.obj
 .text.__wrap_atan
                0x00000000       0x40 CMakeFiles/1.8inch_TFT_Display.dir/E_/Pi_Pico/pico-sdk/src/rp2_common/pico_double/double_math.c.obj
 .text.__wrap_sinh
                0x00000000       0x7c CMakeFiles/1.8inch_TFT_Display.dir/E_/Pi_Pico/pico-sdk/src/rp2_common/pico_double/double_math.c.obj
 .text.__wrap_cosh
                0x00000000       0x7c CMakeFiles/1.8inch_TFT_Display.dir/E_/Pi_Pico/pico-sdk/src/rp2_common/pico_double/double_math.c.obj
 .text.__wrap_tanh
                0x00000000       0x98 CMakeFiles/1.8inch_TFT_Display.dir/E_/Pi_Pico/pico-sdk/src/rp2_common/pico_double/double_math.c.obj
 .text.__wrap_asinh
                0x00000000       0xb4 CMakeFiles/1.8inch_TFT_Display.dir/E_/Pi_Pico/pico-sdk/src/rp2_common/pico_double/double_math.c.obj
 .text.__wrap_acosh
                0x00000000       0x78 CMakeFiles/1.8inch_TFT_Display.dir/E_/Pi_Pico/pico-sdk/src/rp2_common/pico_double/double_math.c.obj
 .text.__wrap_atanh
                0x00000000       0x84 CMakeFiles/1.8inch_TFT_Display.dir/E_/Pi_Pico/pico-sdk/src/rp2_common/pico_double/double_math.c.obj
 .text.__wrap_exp2
                0x00000000       0xcc CMakeFiles/1.8inch_TFT_Display.dir/E_/Pi_Pico/pico-sdk/src/rp2_common/pico_double/double_math.c.obj
 .text.__wrap_log2
                0x00000000       0x18 CMakeFiles/1.8inch_TFT_Display.dir/E_/Pi_Pico/pico-sdk/src/rp2_common/pico_double/double_math.c.obj
 .text.__wrap_exp10
                0x00000000       0x14 CMakeFiles/1.8inch_TFT_Display.dir/E_/Pi_Pico/pico-sdk/src/rp2_common/pico_double/double_math.c.obj
 .text.__wrap_log10
                0x00000000       0x18 CMakeFiles/1.8inch_TFT_Display.dir/E_/Pi_Pico/pico-sdk/src/rp2_common/pico_double/double_math.c.obj
 .text.__wrap_expm1
                0x00000000       0x14 CMakeFiles/1.8inch_TFT_Display.dir/E_/Pi_Pico/pico-sdk/src/rp2_common/pico_double/double_math.c.obj
 .text.__wrap_log1p
                0x00000000       0x14 CMakeFiles/1.8inch_TFT_Display.dir/E_/Pi_Pico/pico-sdk/src/rp2_common/pico_double/double_math.c.obj
 .text.__wrap_fma
                0x00000000       0x10 CMakeFiles/1.8inch_TFT_Display.dir/E_/Pi_Pico/pico-sdk/src/rp2_common/pico_double/double_math.c.obj
 .text.__wrap_powint
                0x00000000       0xbc CMakeFiles/1.8inch_TFT_Display.dir/E_/Pi_Pico/pico-sdk/src/rp2_common/pico_double/double_math.c.obj
 .text.__wrap_pow
                0x00000000      0x384 CMakeFiles/1.8inch_TFT_Display.dir/E_/Pi_Pico/pico-sdk/src/rp2_common/pico_double/double_math.c.obj
 .text.__wrap_hypot
                0x00000000      0x238 CMakeFiles/1.8inch_TFT_Display.dir/E_/Pi_Pico/pico-sdk/src/rp2_common/pico_double/double_math.c.obj
 .text.__wrap_cbrt
                0x00000000       0xec CMakeFiles/1.8inch_TFT_Display.dir/E_/Pi_Pico/pico-sdk/src/rp2_common/pico_double/double_math.c.obj
 .text.__wrap_fmod
                0x00000000       0xa8 CMakeFiles/1.8inch_TFT_Display.dir/E_/Pi_Pico/pico-sdk/src/rp2_common/pico_double/double_math.c.obj
 .text.__wrap_remquo
                0x00000000      0x17c CMakeFiles/1.8inch_TFT_Display.dir/E_/Pi_Pico/pico-sdk/src/rp2_common/pico_double/double_math.c.obj
 .text.__wrap_drem
                0x00000000       0x10 CMakeFiles/1.8inch_TFT_Display.dir/E_/Pi_Pico/pico-sdk/src/rp2_common/pico_double/double_math.c.obj
 .text.__wrap_remainder
                0x00000000       0x10 CMakeFiles/1.8inch_TFT_Display.dir/E_/Pi_Pico/pico-sdk/src/rp2_common/pico_double/double_math.c.obj
 .debug_info    0x00000000     0x320e CMakeFiles/1.8inch_TFT_Display.dir/E_/Pi_Pico/pico-sdk/src/rp2_common/pico_double/double_math.c.obj
 .debug_abbrev  0x00000000      0x2bc CMakeFiles/1.8inch_TFT_Display.dir/E_/Pi_Pico/pico-sdk/src/rp2_common/pico_double/double_math.c.obj
 .debug_loc     0x00000000     0x58ac CMakeFiles/1.8inch_TFT_Display.dir/E_/Pi_Pico/pico-sdk/src/rp2_common/pico_double/double_math.c.obj
 .debug_aranges
                0x00000000      0x130 CMakeFiles/1.8inch_TFT_Display.dir/E_/Pi_Pico/pico-sdk/src/rp2_common/pico_double/double_math.c.obj
 .debug_ranges  0x00000000      0x518 CMakeFiles/1.8inch_TFT_Display.dir/E_/Pi_Pico/pico-sdk/src/rp2_common/pico_double/double_math.c.obj
 .debug_line    0x00000000     0x21c5 CMakeFiles/1.8inch_TFT_Display.dir/E_/Pi_Pico/pico-sdk/src/rp2_common/pico_double/double_math.c.obj
 .debug_str     0x00000000      0x4ed CMakeFiles/1.8inch_TFT_Display.dir/E_/Pi_Pico/pico-sdk/src/rp2_common/pico_double/double_math.c.obj
 .comment       0x00000000       0x4e CMakeFiles/1.8inch_TFT_Display.dir/E_/Pi_Pico/pico-sdk/src/rp2_common/pico_double/double_math.c.obj
 .debug_frame   0x00000000      0x440 CMakeFiles/1.8inch_TFT_Display.dir/E_/Pi_Pico/pico-sdk/src/rp2_common/pico_double/double_math.c.obj
 .ARM.attributes
                0x00000000       0x2b CMakeFiles/1.8inch_TFT_Display.dir/E_/Pi_Pico/pico-sdk/src/rp2_common/pico_double/double_math.c.obj
 .text          0x00000000        0x0 CMakeFiles/1.8inch_TFT_Display.dir/E_/Pi_Pico/pico-sdk/src/rp2_common/pico_double/double_v1_rom_shim.S.obj
 .data          0x00000000        0x0 CMakeFiles/1.8inch_TFT_Display.dir/E_/Pi_Pico/pico-sdk/src/rp2_common/pico_double/double_v1_rom_shim.S.obj
 .bss           0x00000000        0x0 CMakeFiles/1.8inch_TFT_Display.dir/E_/Pi_Pico/pico-sdk/src/rp2_common/pico_double/double_v1_rom_shim.S.obj
 .text.dsqrt_shim
                0x00000000      0x1a8 CMakeFiles/1.8inch_TFT_Display.dir/E_/Pi_Pico/pico-sdk/src/rp2_common/pico_double/double_v1_rom_shim.S.obj
 .text.dcordic_vec_step
                0x00000000        0xe CMakeFiles/1.8inch_TFT_Display.dir/E_/Pi_Pico/pico-sdk/src/rp2_common/pico_double/double_v1_rom_shim.S.obj
 .text.double2int_shim
                0x00000000        0xe CMakeFiles/1.8inch_TFT_Display.dir/E_/Pi_Pico/pico-sdk/src/rp2_common/pico_double/double_v1_rom_shim.S.obj
 .text.double2int64_shim
                0x00000000       0x1a CMakeFiles/1.8inch_TFT_Display.dir/E_/Pi_Pico/pico-sdk/src/rp2_common/pico_double/double_v1_rom_shim.S.obj
 .text.double2float_shim
                0x00000000       0x5c CMakeFiles/1.8inch_TFT_Display.dir/E_/Pi_Pico/pico-sdk/src/rp2_common/pico_double/double_v1_rom_shim.S.obj
 .text.x2double_shims
                0x00000000       0x90 CMakeFiles/1.8inch_TFT_Display.dir/E_/Pi_Pico/pico-sdk/src/rp2_common/pico_double/double_v1_rom_shim.S.obj
 .text.dreduce  0x00000000       0x82 CMakeFiles/1.8inch_TFT_Display.dir/E_/Pi_Pico/pico-sdk/src/rp2_common/pico_double/double_v1_rom_shim.S.obj
 .text.dtan_shim
                0x00000000       0x20 CMakeFiles/1.8inch_TFT_Display.dir/E_/Pi_Pico/pico-sdk/src/rp2_common/pico_double/double_v1_rom_shim.S.obj
 .text.dcos_shim
                0x00000000       0x10 CMakeFiles/1.8inch_TFT_Display.dir/E_/Pi_Pico/pico-sdk/src/rp2_common/pico_double/double_v1_rom_shim.S.obj
 .text.dsin_shim
                0x00000000       0x14 CMakeFiles/1.8inch_TFT_Display.dir/E_/Pi_Pico/pico-sdk/src/rp2_common/pico_double/double_v1_rom_shim.S.obj
 .text.dsincos_shim
                0x00000000       0x26 CMakeFiles/1.8inch_TFT_Display.dir/E_/Pi_Pico/pico-sdk/src/rp2_common/pico_double/double_v1_rom_shim.S.obj
 .text.dtrig_guts
                0x00000000      0x2ec CMakeFiles/1.8inch_TFT_Display.dir/E_/Pi_Pico/pico-sdk/src/rp2_common/pico_double/double_v1_rom_shim.S.obj
 .text.dexp_guts
                0x00000000      0x268 CMakeFiles/1.8inch_TFT_Display.dir/E_/Pi_Pico/pico-sdk/src/rp2_common/pico_double/double_v1_rom_shim.S.obj
 .text          0x00000000        0x0 CMakeFiles/1.8inch_TFT_Display.dir/E_/Pi_Pico/pico-sdk/src/rp2_common/pico_int64_ops/pico_int64_ops_aeabi.S.obj
 .data          0x00000000        0x0 CMakeFiles/1.8inch_TFT_Display.dir/E_/Pi_Pico/pico-sdk/src/rp2_common/pico_int64_ops/pico_int64_ops_aeabi.S.obj
 .bss           0x00000000        0x0 CMakeFiles/1.8inch_TFT_Display.dir/E_/Pi_Pico/pico-sdk/src/rp2_common/pico_int64_ops/pico_int64_ops_aeabi.S.obj
 .text          0x00000000        0x0 CMakeFiles/1.8inch_TFT_Display.dir/E_/Pi_Pico/pico-sdk/src/rp2_common/pico_float/float_aeabi.S.obj
 .data          0x00000000        0x0 CMakeFiles/1.8inch_TFT_Display.dir/E_/Pi_Pico/pico-sdk/src/rp2_common/pico_float/float_aeabi.S.obj
 .bss           0x00000000        0x0 CMakeFiles/1.8inch_TFT_Display.dir/E_/Pi_Pico/pico-sdk/src/rp2_common/pico_float/float_aeabi.S.obj
 .text.__wrap___aeabi_farithmetic
                0x00000000       0x34 CMakeFiles/1.8inch_TFT_Display.dir/E_/Pi_Pico/pico-sdk/src/rp2_common/pico_float/float_aeabi.S.obj
 .text.__wrap___aeabi_cfcmple
                0x00000000       0x50 CMakeFiles/1.8inch_TFT_Display.dir/E_/Pi_Pico/pico-sdk/src/rp2_common/pico_float/float_aeabi.S.obj
 .text.__wrap___aeabi_fcmpeq
                0x00000000       0x10 CMakeFiles/1.8inch_TFT_Display.dir/E_/Pi_Pico/pico-sdk/src/rp2_common/pico_float/float_aeabi.S.obj
 .text.__wrap___aeabi_fcmplt
                0x00000000        0xc CMakeFiles/1.8inch_TFT_Display.dir/E_/Pi_Pico/pico-sdk/src/rp2_common/pico_float/float_aeabi.S.obj
 .text.__wrap___aeabi_fcmple
                0x00000000       0x10 CMakeFiles/1.8inch_TFT_Display.dir/E_/Pi_Pico/pico-sdk/src/rp2_common/pico_float/float_aeabi.S.obj
 .text.__wrap___aeabi_fcmpge
                0x00000000       0x10 CMakeFiles/1.8inch_TFT_Display.dir/E_/Pi_Pico/pico-sdk/src/rp2_common/pico_float/float_aeabi.S.obj
 .text.__wrap___aeabi_fcmpgt
                0x00000000        0xa CMakeFiles/1.8inch_TFT_Display.dir/E_/Pi_Pico/pico-sdk/src/rp2_common/pico_float/float_aeabi.S.obj
 .text.__wrap___aeabi_fcmpun
                0x00000000       0x18 CMakeFiles/1.8inch_TFT_Display.dir/E_/Pi_Pico/pico-sdk/src/rp2_common/pico_float/float_aeabi.S.obj
 .text.__wrap___aeabi_ui2f
                0x00000000        0xa CMakeFiles/1.8inch_TFT_Display.dir/E_/Pi_Pico/pico-sdk/src/rp2_common/pico_float/float_aeabi.S.obj
 .text.__wrap___aeabi_i2f
                0x00000000       0x44 CMakeFiles/1.8inch_TFT_Display.dir/E_/Pi_Pico/pico-sdk/src/rp2_common/pico_float/float_aeabi.S.obj
 .text.__wrap___aeabi_f2iz
                0x00000000       0x4e CMakeFiles/1.8inch_TFT_Display.dir/E_/Pi_Pico/pico-sdk/src/rp2_common/pico_float/float_aeabi.S.obj
 .text.float2int
                0x00000000       0x14 CMakeFiles/1.8inch_TFT_Display.dir/E_/Pi_Pico/pico-sdk/src/rp2_common/pico_float/float_aeabi.S.obj
 .text.float2fix
                0x00000000       0x14 CMakeFiles/1.8inch_TFT_Display.dir/E_/Pi_Pico/pico-sdk/src/rp2_common/pico_float/float_aeabi.S.obj
 .text.float2ufix
                0x00000000       0x10 CMakeFiles/1.8inch_TFT_Display.dir/E_/Pi_Pico/pico-sdk/src/rp2_common/pico_float/float_aeabi.S.obj
 .text.__wrap___aeabi_f2uiz
                0x00000000       0x10 CMakeFiles/1.8inch_TFT_Display.dir/E_/Pi_Pico/pico-sdk/src/rp2_common/pico_float/float_aeabi.S.obj
 .text.fix2float
                0x00000000       0x10 CMakeFiles/1.8inch_TFT_Display.dir/E_/Pi_Pico/pico-sdk/src/rp2_common/pico_float/float_aeabi.S.obj
 .text.ufix2float
                0x00000000       0x10 CMakeFiles/1.8inch_TFT_Display.dir/E_/Pi_Pico/pico-sdk/src/rp2_common/pico_float/float_aeabi.S.obj
 .text.fix642float
                0x00000000       0x14 CMakeFiles/1.8inch_TFT_Display.dir/E_/Pi_Pico/pico-sdk/src/rp2_common/pico_float/float_aeabi.S.obj
 .text.ufix642float
                0x00000000       0x14 CMakeFiles/1.8inch_TFT_Display.dir/E_/Pi_Pico/pico-sdk/src/rp2_common/pico_float/float_aeabi.S.obj
 .text.__wrap___aeabi_l2f
                0x00000000       0x20 CMakeFiles/1.8inch_TFT_Display.dir/E_/Pi_Pico/pico-sdk/src/rp2_common/pico_float/float_aeabi.S.obj
 .text.__wrap___aeabi_ul2f
                0x00000000       0x20 CMakeFiles/1.8inch_TFT_Display.dir/E_/Pi_Pico/pico-sdk/src/rp2_common/pico_float/float_aeabi.S.obj
 .text.__wrap___aeabi_f2lz
                0x00000000       0x26 CMakeFiles/1.8inch_TFT_Display.dir/E_/Pi_Pico/pico-sdk/src/rp2_common/pico_float/float_aeabi.S.obj
 .text.float2int64
                0x00000000       0x14 CMakeFiles/1.8inch_TFT_Display.dir/E_/Pi_Pico/pico-sdk/src/rp2_common/pico_float/float_aeabi.S.obj
 .text.float2fix64
                0x00000000       0x14 CMakeFiles/1.8inch_TFT_Display.dir/E_/Pi_Pico/pico-sdk/src/rp2_common/pico_float/float_aeabi.S.obj
 .text.__wrap___aeabi_f2ulz
                0x00000000       0x14 CMakeFiles/1.8inch_TFT_Display.dir/E_/Pi_Pico/pico-sdk/src/rp2_common/pico_float/float_aeabi.S.obj
 .text.float2ufix64
                0x00000000       0x14 CMakeFiles/1.8inch_TFT_Display.dir/E_/Pi_Pico/pico-sdk/src/rp2_common/pico_float/float_aeabi.S.obj
 .text.__wrap___aeabi_f2d
                0x00000000       0x14 CMakeFiles/1.8inch_TFT_Display.dir/E_/Pi_Pico/pico-sdk/src/rp2_common/pico_float/float_aeabi.S.obj
 .text.__wrap_srqtf
                0x00000000       0x24 CMakeFiles/1.8inch_TFT_Display.dir/E_/Pi_Pico/pico-sdk/src/rp2_common/pico_float/float_aeabi.S.obj
 .text.__wrap_cosf
                0x00000000       0x28 CMakeFiles/1.8inch_TFT_Display.dir/E_/Pi_Pico/pico-sdk/src/rp2_common/pico_float/float_aeabi.S.obj
 .text.__wrap_sinf
                0x00000000       0x28 CMakeFiles/1.8inch_TFT_Display.dir/E_/Pi_Pico/pico-sdk/src/rp2_common/pico_float/float_aeabi.S.obj
 .text.__wrap_sincosf
                0x00000000       0x30 CMakeFiles/1.8inch_TFT_Display.dir/E_/Pi_Pico/pico-sdk/src/rp2_common/pico_float/float_aeabi.S.obj
 .text.__wrap_tanf
                0x00000000       0x28 CMakeFiles/1.8inch_TFT_Display.dir/E_/Pi_Pico/pico-sdk/src/rp2_common/pico_float/float_aeabi.S.obj
 .text.__wrap_atan2f
                0x00000000       0x14 CMakeFiles/1.8inch_TFT_Display.dir/E_/Pi_Pico/pico-sdk/src/rp2_common/pico_float/float_aeabi.S.obj
 .text.__wrap_expf
                0x00000000       0x10 CMakeFiles/1.8inch_TFT_Display.dir/E_/Pi_Pico/pico-sdk/src/rp2_common/pico_float/float_aeabi.S.obj
 .text.__wrap_logf
                0x00000000       0x10 CMakeFiles/1.8inch_TFT_Display.dir/E_/Pi_Pico/pico-sdk/src/rp2_common/pico_float/float_aeabi.S.obj
 .text          0x00000000        0x0 CMakeFiles/1.8inch_TFT_Display.dir/E_/Pi_Pico/pico-sdk/src/rp2_common/pico_float/float_init_rom.c.obj
 .data          0x00000000        0x0 CMakeFiles/1.8inch_TFT_Display.dir/E_/Pi_Pico/pico-sdk/src/rp2_common/pico_float/float_init_rom.c.obj
 .bss           0x00000000        0x0 CMakeFiles/1.8inch_TFT_Display.dir/E_/Pi_Pico/pico-sdk/src/rp2_common/pico_float/float_init_rom.c.obj
 .text          0x00000000        0x0 CMakeFiles/1.8inch_TFT_Display.dir/E_/Pi_Pico/pico-sdk/src/rp2_common/pico_float/float_math.c.obj
 .data          0x00000000        0x0 CMakeFiles/1.8inch_TFT_Display.dir/E_/Pi_Pico/pico-sdk/src/rp2_common/pico_float/float_math.c.obj
 .bss           0x00000000        0x0 CMakeFiles/1.8inch_TFT_Display.dir/E_/Pi_Pico/pico-sdk/src/rp2_common/pico_float/float_math.c.obj
 .text.fpow_int2
                0x00000000       0x26 CMakeFiles/1.8inch_TFT_Display.dir/E_/Pi_Pico/pico-sdk/src/rp2_common/pico_float/float_math.c.obj
 .text.frem_0   0x00000000       0x80 CMakeFiles/1.8inch_TFT_Display.dir/E_/Pi_Pico/pico-sdk/src/rp2_common/pico_float/float_math.c.obj
 .text.fpow_0   0x00000000      0x130 CMakeFiles/1.8inch_TFT_Display.dir/E_/Pi_Pico/pico-sdk/src/rp2_common/pico_float/float_math.c.obj
 .text.fpowint_0
                0x00000000      0x11c CMakeFiles/1.8inch_TFT_Display.dir/E_/Pi_Pico/pico-sdk/src/rp2_common/pico_float/float_math.c.obj
 .text.__wrap_ldexpf
                0x00000000       0x34 CMakeFiles/1.8inch_TFT_Display.dir/E_/Pi_Pico/pico-sdk/src/rp2_common/pico_float/float_math.c.obj
 .text.__wrap_copysignf
                0x00000000        0xc CMakeFiles/1.8inch_TFT_Display.dir/E_/Pi_Pico/pico-sdk/src/rp2_common/pico_float/float_math.c.obj
 .text.__wrap_truncf
                0x00000000       0x22 CMakeFiles/1.8inch_TFT_Display.dir/E_/Pi_Pico/pico-sdk/src/rp2_common/pico_float/float_math.c.obj
 .text.__wrap_roundf
                0x00000000       0x3e CMakeFiles/1.8inch_TFT_Display.dir/E_/Pi_Pico/pico-sdk/src/rp2_common/pico_float/float_math.c.obj
 .text.__wrap_floorf
                0x00000000       0x44 CMakeFiles/1.8inch_TFT_Display.dir/E_/Pi_Pico/pico-sdk/src/rp2_common/pico_float/float_math.c.obj
 .text.__wrap_ceilf
                0x00000000       0x44 CMakeFiles/1.8inch_TFT_Display.dir/E_/Pi_Pico/pico-sdk/src/rp2_common/pico_float/float_math.c.obj
 .text.__wrap_asinf
                0x00000000       0x42 CMakeFiles/1.8inch_TFT_Display.dir/E_/Pi_Pico/pico-sdk/src/rp2_common/pico_float/float_math.c.obj
 .text.__wrap_acosf
                0x00000000       0x40 CMakeFiles/1.8inch_TFT_Display.dir/E_/Pi_Pico/pico-sdk/src/rp2_common/pico_float/float_math.c.obj
 .text.__wrap_atanf
                0x00000000       0x2c CMakeFiles/1.8inch_TFT_Display.dir/E_/Pi_Pico/pico-sdk/src/rp2_common/pico_float/float_math.c.obj
 .text.__wrap_sinhf
                0x00000000       0x54 CMakeFiles/1.8inch_TFT_Display.dir/E_/Pi_Pico/pico-sdk/src/rp2_common/pico_float/float_math.c.obj
 .text.__wrap_coshf
                0x00000000       0x54 CMakeFiles/1.8inch_TFT_Display.dir/E_/Pi_Pico/pico-sdk/src/rp2_common/pico_float/float_math.c.obj
 .text.__wrap_tanhf
                0x00000000       0x6c CMakeFiles/1.8inch_TFT_Display.dir/E_/Pi_Pico/pico-sdk/src/rp2_common/pico_float/float_math.c.obj
 .text.__wrap_asinhf
                0x00000000       0xb8 CMakeFiles/1.8inch_TFT_Display.dir/E_/Pi_Pico/pico-sdk/src/rp2_common/pico_float/float_math.c.obj
 .text.__wrap_acoshf
                0x00000000       0x74 CMakeFiles/1.8inch_TFT_Display.dir/E_/Pi_Pico/pico-sdk/src/rp2_common/pico_float/float_math.c.obj
 .text.__wrap_atanhf
                0x00000000       0x5c CMakeFiles/1.8inch_TFT_Display.dir/E_/Pi_Pico/pico-sdk/src/rp2_common/pico_float/float_math.c.obj
 .text.__wrap_exp2f
                0x00000000       0x20 CMakeFiles/1.8inch_TFT_Display.dir/E_/Pi_Pico/pico-sdk/src/rp2_common/pico_float/float_math.c.obj
 .text.__wrap_log2f
                0x00000000       0x14 CMakeFiles/1.8inch_TFT_Display.dir/E_/Pi_Pico/pico-sdk/src/rp2_common/pico_float/float_math.c.obj
 .text.__wrap_exp10f
                0x00000000       0x20 CMakeFiles/1.8inch_TFT_Display.dir/E_/Pi_Pico/pico-sdk/src/rp2_common/pico_float/float_math.c.obj
 .text.__wrap_log10f
                0x00000000       0x14 CMakeFiles/1.8inch_TFT_Display.dir/E_/Pi_Pico/pico-sdk/src/rp2_common/pico_float/float_math.c.obj
 .text.__wrap_expm1f
                0x00000000       0x1c CMakeFiles/1.8inch_TFT_Display.dir/E_/Pi_Pico/pico-sdk/src/rp2_common/pico_float/float_math.c.obj
 .text.__wrap_log1pf
                0x00000000       0x1c CMakeFiles/1.8inch_TFT_Display.dir/E_/Pi_Pico/pico-sdk/src/rp2_common/pico_float/float_math.c.obj
 .text.__wrap_fmaf
                0x00000000       0x3c CMakeFiles/1.8inch_TFT_Display.dir/E_/Pi_Pico/pico-sdk/src/rp2_common/pico_float/float_math.c.obj
 .text.__wrap_powintf
                0x00000000       0xa0 CMakeFiles/1.8inch_TFT_Display.dir/E_/Pi_Pico/pico-sdk/src/rp2_common/pico_float/float_math.c.obj
 .text.__wrap_powf
                0x00000000      0x214 CMakeFiles/1.8inch_TFT_Display.dir/E_/Pi_Pico/pico-sdk/src/rp2_common/pico_float/float_math.c.obj
 .text.__wrap_hypotf
                0x00000000      0x18a CMakeFiles/1.8inch_TFT_Display.dir/E_/Pi_Pico/pico-sdk/src/rp2_common/pico_float/float_math.c.obj
 .text.__wrap_cbrtf
                0x00000000       0xc4 CMakeFiles/1.8inch_TFT_Display.dir/E_/Pi_Pico/pico-sdk/src/rp2_common/pico_float/float_math.c.obj
 .text.__wrap_fmodf
                0x00000000       0x62 CMakeFiles/1.8inch_TFT_Display.dir/E_/Pi_Pico/pico-sdk/src/rp2_common/pico_float/float_math.c.obj
 .text.__wrap_remquof
                0x00000000       0xda CMakeFiles/1.8inch_TFT_Display.dir/E_/Pi_Pico/pico-sdk/src/rp2_common/pico_float/float_math.c.obj
 .text.__wrap_dremf
                0x00000000        0xa CMakeFiles/1.8inch_TFT_Display.dir/E_/Pi_Pico/pico-sdk/src/rp2_common/pico_float/float_math.c.obj
 .text.__wrap_remainderf
                0x00000000        0xa CMakeFiles/1.8inch_TFT_Display.dir/E_/Pi_Pico/pico-sdk/src/rp2_common/pico_float/float_math.c.obj
 .debug_info    0x00000000     0x2f14 CMakeFiles/1.8inch_TFT_Display.dir/E_/Pi_Pico/pico-sdk/src/rp2_common/pico_float/float_math.c.obj
 .debug_abbrev  0x00000000      0x296 CMakeFiles/1.8inch_TFT_Display.dir/E_/Pi_Pico/pico-sdk/src/rp2_common/pico_float/float_math.c.obj
 .debug_loc     0x00000000     0x465d CMakeFiles/1.8inch_TFT_Display.dir/E_/Pi_Pico/pico-sdk/src/rp2_common/pico_float/float_math.c.obj
 .debug_aranges
                0x00000000      0x128 CMakeFiles/1.8inch_TFT_Display.dir/E_/Pi_Pico/pico-sdk/src/rp2_common/pico_float/float_math.c.obj
 .debug_ranges  0x00000000      0x4b8 CMakeFiles/1.8inch_TFT_Display.dir/E_/Pi_Pico/pico-sdk/src/rp2_common/pico_float/float_math.c.obj
 .debug_line    0x00000000     0x1dc6 CMakeFiles/1.8inch_TFT_Display.dir/E_/Pi_Pico/pico-sdk/src/rp2_common/pico_float/float_math.c.obj
 .debug_str     0x00000000      0x503 CMakeFiles/1.8inch_TFT_Display.dir/E_/Pi_Pico/pico-sdk/src/rp2_common/pico_float/float_math.c.obj
 .comment       0x00000000       0x4e CMakeFiles/1.8inch_TFT_Display.dir/E_/Pi_Pico/pico-sdk/src/rp2_common/pico_float/float_math.c.obj
 .debug_frame   0x00000000      0x3a0 CMakeFiles/1.8inch_TFT_Display.dir/E_/Pi_Pico/pico-sdk/src/rp2_common/pico_float/float_math.c.obj
 .ARM.attributes
                0x00000000       0x2b CMakeFiles/1.8inch_TFT_Display.dir/E_/Pi_Pico/pico-sdk/src/rp2_common/pico_float/float_math.c.obj
 .text          0x00000000        0x0 CMakeFiles/1.8inch_TFT_Display.dir/E_/Pi_Pico/pico-sdk/src/rp2_common/pico_float/float_v1_rom_shim.S.obj
 .data          0x00000000        0x0 CMakeFiles/1.8inch_TFT_Display.dir/E_/Pi_Pico/pico-sdk/src/rp2_common/pico_float/float_v1_rom_shim.S.obj
 .bss           0x00000000        0x0 CMakeFiles/1.8inch_TFT_Display.dir/E_/Pi_Pico/pico-sdk/src/rp2_common/pico_float/float_v1_rom_shim.S.obj
 .text.642float_shims
                0x00000000       0x44 CMakeFiles/1.8inch_TFT_Display.dir/E_/Pi_Pico/pico-sdk/src/rp2_common/pico_float/float_v1_rom_shim.S.obj
 .text.fatan2_shim
                0x00000000       0x88 CMakeFiles/1.8inch_TFT_Display.dir/E_/Pi_Pico/pico-sdk/src/rp2_common/pico_float/float_v1_rom_shim.S.obj
 .text.float232_shims
                0x00000000       0x18 CMakeFiles/1.8inch_TFT_Display.dir/E_/Pi_Pico/pico-sdk/src/rp2_common/pico_float/float_v1_rom_shim.S.obj
 .text.float264_shims
                0x00000000       0x4c CMakeFiles/1.8inch_TFT_Display.dir/E_/Pi_Pico/pico-sdk/src/rp2_common/pico_float/float_v1_rom_shim.S.obj
 .text.d2fix_a_float
                0x00000000       0x5c CMakeFiles/1.8inch_TFT_Display.dir/E_/Pi_Pico/pico-sdk/src/rp2_common/pico_float/float_v1_rom_shim.S.obj
 .text.float2double_shim
                0x00000000       0x30 CMakeFiles/1.8inch_TFT_Display.dir/E_/Pi_Pico/pico-sdk/src/rp2_common/pico_float/float_v1_rom_shim.S.obj
 .text          0x00000000        0x0 CMakeFiles/1.8inch_TFT_Display.dir/E_/Pi_Pico/pico-sdk/src/rp2_common/pico_malloc/pico_malloc.c.obj
 .data          0x00000000        0x0 CMakeFiles/1.8inch_TFT_Display.dir/E_/Pi_Pico/pico-sdk/src/rp2_common/pico_malloc/pico_malloc.c.obj
 .bss           0x00000000        0x0 CMakeFiles/1.8inch_TFT_Display.dir/E_/Pi_Pico/pico-sdk/src/rp2_common/pico_malloc/pico_malloc.c.obj
 .text.__wrap_free
                0x00000000        0x8 CMakeFiles/1.8inch_TFT_Display.dir/E_/Pi_Pico/pico-sdk/src/rp2_common/pico_malloc/pico_malloc.c.obj
 .data          0x00000000        0x0 CMakeFiles/1.8inch_TFT_Display.dir/E_/Pi_Pico/pico-sdk/src/rp2_common/pico_mem_ops/mem_ops_aeabi.S.obj
 .bss           0x00000000        0x0 CMakeFiles/1.8inch_TFT_Display.dir/E_/Pi_Pico/pico-sdk/src/rp2_common/pico_mem_ops/mem_ops_aeabi.S.obj
 .text.aeabi_memset_memcpy
                0x00000000       0x24 CMakeFiles/1.8inch_TFT_Display.dir/E_/Pi_Pico/pico-sdk/src/rp2_common/pico_mem_ops/mem_ops_aeabi.S.obj
 .text          0x00000000        0x0 CMakeFiles/1.8inch_TFT_Display.dir/E_/Pi_Pico/pico-sdk/src/rp2_common/pico_standard_link/crt0.S.obj
 .data          0x00000000        0x0 CMakeFiles/1.8inch_TFT_Display.dir/E_/Pi_Pico/pico-sdk/src/rp2_common/pico_standard_link/crt0.S.obj
 .bss           0x00000000        0x0 CMakeFiles/1.8inch_TFT_Display.dir/E_/Pi_Pico/pico-sdk/src/rp2_common/pico_standard_link/crt0.S.obj
 .text          0x00000000        0x0 CMakeFiles/1.8inch_TFT_Display.dir/E_/Pi_Pico/pico-sdk/src/rp2_common/pico_standard_link/new_delete.cpp.obj
 .data          0x00000000        0x0 CMakeFiles/1.8inch_TFT_Display.dir/E_/Pi_Pico/pico-sdk/src/rp2_common/pico_standard_link/new_delete.cpp.obj
 .bss           0x00000000        0x0 CMakeFiles/1.8inch_TFT_Display.dir/E_/Pi_Pico/pico-sdk/src/rp2_common/pico_standard_link/new_delete.cpp.obj
 .text._Znwj    0x00000000        0x8 CMakeFiles/1.8inch_TFT_Display.dir/E_/Pi_Pico/pico-sdk/src/rp2_common/pico_standard_link/new_delete.cpp.obj
 .text._Znaj    0x00000000        0x8 CMakeFiles/1.8inch_TFT_Display.dir/E_/Pi_Pico/pico-sdk/src/rp2_common/pico_standard_link/new_delete.cpp.obj
 .text._ZdlPvj  0x00000000        0x8 CMakeFiles/1.8inch_TFT_Display.dir/E_/Pi_Pico/pico-sdk/src/rp2_common/pico_standard_link/new_delete.cpp.obj
 .text._ZdlPv   0x00000000        0x8 CMakeFiles/1.8inch_TFT_Display.dir/E_/Pi_Pico/pico-sdk/src/rp2_common/pico_standard_link/new_delete.cpp.obj
 .text._ZdaPv   0x00000000        0x8 CMakeFiles/1.8inch_TFT_Display.dir/E_/Pi_Pico/pico-sdk/src/rp2_common/pico_standard_link/new_delete.cpp.obj
 .debug_info    0x00000000      0x750 CMakeFiles/1.8inch_TFT_Display.dir/E_/Pi_Pico/pico-sdk/src/rp2_common/pico_standard_link/new_delete.cpp.obj
 .debug_abbrev  0x00000000      0x1eb CMakeFiles/1.8inch_TFT_Display.dir/E_/Pi_Pico/pico-sdk/src/rp2_common/pico_standard_link/new_delete.cpp.obj
 .debug_loc     0x00000000       0xde CMakeFiles/1.8inch_TFT_Display.dir/E_/Pi_Pico/pico-sdk/src/rp2_common/pico_standard_link/new_delete.cpp.obj
 .debug_aranges
                0x00000000       0x40 CMakeFiles/1.8inch_TFT_Display.dir/E_/Pi_Pico/pico-sdk/src/rp2_common/pico_standard_link/new_delete.cpp.obj
 .debug_ranges  0x00000000       0x30 CMakeFiles/1.8inch_TFT_Display.dir/E_/Pi_Pico/pico-sdk/src/rp2_common/pico_standard_link/new_delete.cpp.obj
 .debug_line    0x00000000      0x253 CMakeFiles/1.8inch_TFT_Display.dir/E_/Pi_Pico/pico-sdk/src/rp2_common/pico_standard_link/new_delete.cpp.obj
 .debug_str     0x00000000      0x387 CMakeFiles/1.8inch_TFT_Display.dir/E_/Pi_Pico/pico-sdk/src/rp2_common/pico_standard_link/new_delete.cpp.obj
 .comment       0x00000000       0x4e CMakeFiles/1.8inch_TFT_Display.dir/E_/Pi_Pico/pico-sdk/src/rp2_common/pico_standard_link/new_delete.cpp.obj
 .debug_frame   0x00000000       0x88 CMakeFiles/1.8inch_TFT_Display.dir/E_/Pi_Pico/pico-sdk/src/rp2_common/pico_standard_link/new_delete.cpp.obj
 .ARM.attributes
                0x00000000       0x2b CMakeFiles/1.8inch_TFT_Display.dir/E_/Pi_Pico/pico-sdk/src/rp2_common/pico_standard_link/new_delete.cpp.obj
 .text          0x00000000        0x0 CMakeFiles/1.8inch_TFT_Display.dir/E_/Pi_Pico/pico-sdk/src/rp2_common/pico_standard_link/binary_info.c.obj
 .data          0x00000000        0x0 CMakeFiles/1.8inch_TFT_Display.dir/E_/Pi_Pico/pico-sdk/src/rp2_common/pico_standard_link/binary_info.c.obj
 .bss           0x00000000        0x0 CMakeFiles/1.8inch_TFT_Display.dir/E_/Pi_Pico/pico-sdk/src/rp2_common/pico_standard_link/binary_info.c.obj
 .text          0x00000000        0x0 CMakeFiles/1.8inch_TFT_Display.dir/E_/Pi_Pico/pico-sdk/src/rp2_common/pico_stdio/stdio.c.obj
 .data          0x00000000        0x0 CMakeFiles/1.8inch_TFT_Display.dir/E_/Pi_Pico/pico-sdk/src/rp2_common/pico_stdio/stdio.c.obj
 .bss           0x00000000        0x0 CMakeFiles/1.8inch_TFT_Display.dir/E_/Pi_Pico/pico-sdk/src/rp2_common/pico_stdio/stdio.c.obj
 .text.stdio_get_until
                0x00000000       0x78 CMakeFiles/1.8inch_TFT_Display.dir/E_/Pi_Pico/pico-sdk/src/rp2_common/pico_stdio/stdio.c.obj
 .text.__wrap_putchar
                0x00000000       0x1a CMakeFiles/1.8inch_TFT_Display.dir/E_/Pi_Pico/pico-sdk/src/rp2_common/pico_stdio/stdio.c.obj
 .text._read    0x00000000       0x24 CMakeFiles/1.8inch_TFT_Display.dir/E_/Pi_Pico/pico-sdk/src/rp2_common/pico_stdio/stdio.c.obj
 .text._write   0x00000000       0x1e CMakeFiles/1.8inch_TFT_Display.dir/E_/Pi_Pico/pico-sdk/src/rp2_common/pico_stdio/stdio.c.obj
 .text.__wrap_getchar
                0x00000000       0x28 CMakeFiles/1.8inch_TFT_Display.dir/E_/Pi_Pico/pico-sdk/src/rp2_common/pico_stdio/stdio.c.obj
 .rodata.getchar_timeout_us.str1.4
                0x00000000       0x3a CMakeFiles/1.8inch_TFT_Display.dir/E_/Pi_Pico/pico-sdk/src/rp2_common/pico_stdio/stdio.c.obj
 .text.getchar_timeout_us
                0x00000000       0x54 CMakeFiles/1.8inch_TFT_Display.dir/E_/Pi_Pico/pico-sdk/src/rp2_common/pico_stdio/stdio.c.obj
 .text.stdio_filter_driver
                0x00000000        0xc CMakeFiles/1.8inch_TFT_Display.dir/E_/Pi_Pico/pico-sdk/src/rp2_common/pico_stdio/stdio.c.obj
 .text.stdio_set_translate_crlf
                0x00000000       0x10 CMakeFiles/1.8inch_TFT_Display.dir/E_/Pi_Pico/pico-sdk/src/rp2_common/pico_stdio/stdio.c.obj
 .rodata.__func__.0
                0x00000000       0x13 CMakeFiles/1.8inch_TFT_Display.dir/E_/Pi_Pico/pico-sdk/src/rp2_common/pico_stdio/stdio.c.obj
 .text          0x00000000        0x0 CMakeFiles/1.8inch_TFT_Display.dir/E_/Pi_Pico/pico-sdk/src/rp2_common/pico_stdio_usb/stdio_usb.c.obj
 .data          0x00000000        0x0 CMakeFiles/1.8inch_TFT_Display.dir/E_/Pi_Pico/pico-sdk/src/rp2_common/pico_stdio_usb/stdio_usb.c.obj
 .bss           0x00000000        0x0 CMakeFiles/1.8inch_TFT_Display.dir/E_/Pi_Pico/pico-sdk/src/rp2_common/pico_stdio_usb/stdio_usb.c.obj
 .text          0x00000000        0x0 CMakeFiles/1.8inch_TFT_Display.dir/E_/Pi_Pico/pico-sdk/src/rp2_common/pico_stdio_usb/stdio_usb_descriptors.c.obj
 .data          0x00000000        0x0 CMakeFiles/1.8inch_TFT_Display.dir/E_/Pi_Pico/pico-sdk/src/rp2_common/pico_stdio_usb/stdio_usb_descriptors.c.obj
 .bss           0x00000000        0x0 CMakeFiles/1.8inch_TFT_Display.dir/E_/Pi_Pico/pico-sdk/src/rp2_common/pico_stdio_usb/stdio_usb_descriptors.c.obj
 .text          0x00000000        0x0 CMakeFiles/1.8inch_TFT_Display.dir/E_/Pi_Pico/pico-sdk/lib/tinyusb/src/portable/raspberrypi/rp2040/dcd_rp2040.c.obj
 .data          0x00000000        0x0 CMakeFiles/1.8inch_TFT_Display.dir/E_/Pi_Pico/pico-sdk/lib/tinyusb/src/portable/raspberrypi/rp2040/dcd_rp2040.c.obj
 .bss           0x00000000        0x0 CMakeFiles/1.8inch_TFT_Display.dir/E_/Pi_Pico/pico-sdk/lib/tinyusb/src/portable/raspberrypi/rp2040/dcd_rp2040.c.obj
 .text.dcd_int_disable
                0x00000000       0x2c CMakeFiles/1.8inch_TFT_Display.dir/E_/Pi_Pico/pico-sdk/lib/tinyusb/src/portable/raspberrypi/rp2040/dcd_rp2040.c.obj
 .rodata.dcd_remote_wakeup.str1.4
                0x00000000       0x16 CMakeFiles/1.8inch_TFT_Display.dir/E_/Pi_Pico/pico-sdk/lib/tinyusb/src/portable/raspberrypi/rp2040/dcd_rp2040.c.obj
 .text.dcd_remote_wakeup
                0x00000000       0x10 CMakeFiles/1.8inch_TFT_Display.dir/E_/Pi_Pico/pico-sdk/lib/tinyusb/src/portable/raspberrypi/rp2040/dcd_rp2040.c.obj
 .text.dcd_disconnect
                0x00000000       0x30 CMakeFiles/1.8inch_TFT_Display.dir/E_/Pi_Pico/pico-sdk/lib/tinyusb/src/portable/raspberrypi/rp2040/dcd_rp2040.c.obj
 .text.dcd_edpt_close
                0x00000000        0x2 CMakeFiles/1.8inch_TFT_Display.dir/E_/Pi_Pico/pico-sdk/lib/tinyusb/src/portable/raspberrypi/rp2040/dcd_rp2040.c.obj
 .rodata.__func__.7
                0x00000000        0xf CMakeFiles/1.8inch_TFT_Display.dir/E_/Pi_Pico/pico-sdk/lib/tinyusb/src/portable/raspberrypi/rp2040/dcd_rp2040.c.obj
 .rodata.__func__.9
                0x00000000       0x10 CMakeFiles/1.8inch_TFT_Display.dir/E_/Pi_Pico/pico-sdk/lib/tinyusb/src/portable/raspberrypi/rp2040/dcd_rp2040.c.obj
 .text          0x00000000        0x0 CMakeFiles/1.8inch_TFT_Display.dir/E_/Pi_Pico/pico-sdk/lib/tinyusb/src/portable/raspberrypi/rp2040/rp2040_usb.c.obj
 .data          0x00000000        0x0 CMakeFiles/1.8inch_TFT_Display.dir/E_/Pi_Pico/pico-sdk/lib/tinyusb/src/portable/raspberrypi/rp2040/rp2040_usb.c.obj
 .bss           0x00000000        0x0 CMakeFiles/1.8inch_TFT_Display.dir/E_/Pi_Pico/pico-sdk/lib/tinyusb/src/portable/raspberrypi/rp2040/rp2040_usb.c.obj
 .text          0x00000000        0x0 CMakeFiles/1.8inch_TFT_Display.dir/E_/Pi_Pico/pico-sdk/lib/tinyusb/src/device/usbd.c.obj
 .data          0x00000000        0x0 CMakeFiles/1.8inch_TFT_Display.dir/E_/Pi_Pico/pico-sdk/lib/tinyusb/src/device/usbd.c.obj
 .bss           0x00000000        0x0 CMakeFiles/1.8inch_TFT_Display.dir/E_/Pi_Pico/pico-sdk/lib/tinyusb/src/device/usbd.c.obj
 .text.tud_speed_get
                0x00000000        0xc CMakeFiles/1.8inch_TFT_Display.dir/E_/Pi_Pico/pico-sdk/lib/tinyusb/src/device/usbd.c.obj
 .text.tud_remote_wakeup
                0x00000000       0x2c CMakeFiles/1.8inch_TFT_Display.dir/E_/Pi_Pico/pico-sdk/lib/tinyusb/src/device/usbd.c.obj
 .text.tud_disconnect
                0x00000000       0x1c CMakeFiles/1.8inch_TFT_Display.dir/E_/Pi_Pico/pico-sdk/lib/tinyusb/src/device/usbd.c.obj
 .text.tud_connect
                0x00000000       0x1c CMakeFiles/1.8inch_TFT_Display.dir/E_/Pi_Pico/pico-sdk/lib/tinyusb/src/device/usbd.c.obj
 .text.tud_task_event_ready
                0x00000000       0x20 CMakeFiles/1.8inch_TFT_Display.dir/E_/Pi_Pico/pico-sdk/lib/tinyusb/src/device/usbd.c.obj
 .text.dcd_event_bus_reset
                0x00000000       0x2a CMakeFiles/1.8inch_TFT_Display.dir/E_/Pi_Pico/pico-sdk/lib/tinyusb/src/device/usbd.c.obj
 .text.usbd_defer_func
                0x00000000       0x2a CMakeFiles/1.8inch_TFT_Display.dir/E_/Pi_Pico/pico-sdk/lib/tinyusb/src/device/usbd.c.obj
 .text.usbd_edpt_busy
                0x00000000       0x1c CMakeFiles/1.8inch_TFT_Display.dir/E_/Pi_Pico/pico-sdk/lib/tinyusb/src/device/usbd.c.obj
 .text.usbd_edpt_close
                0x00000000       0x2c CMakeFiles/1.8inch_TFT_Display.dir/E_/Pi_Pico/pico-sdk/lib/tinyusb/src/device/usbd.c.obj
 .rodata.__func__.0
                0x00000000       0x10 CMakeFiles/1.8inch_TFT_Display.dir/E_/Pi_Pico/pico-sdk/lib/tinyusb/src/device/usbd.c.obj
 .text          0x00000000        0x0 CMakeFiles/1.8inch_TFT_Display.dir/E_/Pi_Pico/pico-sdk/lib/tinyusb/src/device/usbd_control.c.obj
 .data          0x00000000        0x0 CMakeFiles/1.8inch_TFT_Display.dir/E_/Pi_Pico/pico-sdk/lib/tinyusb/src/device/usbd_control.c.obj
 .bss           0x00000000        0x0 CMakeFiles/1.8inch_TFT_Display.dir/E_/Pi_Pico/pico-sdk/lib/tinyusb/src/device/usbd_control.c.obj
 .text          0x00000000        0x0 CMakeFiles/1.8inch_TFT_Display.dir/E_/Pi_Pico/pico-sdk/lib/tinyusb/src/class/audio/audio_device.c.obj
 .data          0x00000000        0x0 CMakeFiles/1.8inch_TFT_Display.dir/E_/Pi_Pico/pico-sdk/lib/tinyusb/src/class/audio/audio_device.c.obj
 .bss           0x00000000        0x0 CMakeFiles/1.8inch_TFT_Display.dir/E_/Pi_Pico/pico-sdk/lib/tinyusb/src/class/audio/audio_device.c.obj
 .debug_line    0x00000000        0x0 CMakeFiles/1.8inch_TFT_Display.dir/E_/Pi_Pico/pico-sdk/lib/tinyusb/src/class/audio/audio_device.c.obj
 .debug_str     0x00000000       0xfc CMakeFiles/1.8inch_TFT_Display.dir/E_/Pi_Pico/pico-sdk/lib/tinyusb/src/class/audio/audio_device.c.obj
 .comment       0x00000000       0x4e CMakeFiles/1.8inch_TFT_Display.dir/E_/Pi_Pico/pico-sdk/lib/tinyusb/src/class/audio/audio_device.c.obj
 .ARM.attributes
                0x00000000       0x32 CMakeFiles/1.8inch_TFT_Display.dir/E_/Pi_Pico/pico-sdk/lib/tinyusb/src/class/audio/audio_device.c.obj
 .text          0x00000000        0x0 CMakeFiles/1.8inch_TFT_Display.dir/E_/Pi_Pico/pico-sdk/lib/tinyusb/src/class/cdc/cdc_device.c.obj
 .data          0x00000000        0x0 CMakeFiles/1.8inch_TFT_Display.dir/E_/Pi_Pico/pico-sdk/lib/tinyusb/src/class/cdc/cdc_device.c.obj
 .bss           0x00000000        0x0 CMakeFiles/1.8inch_TFT_Display.dir/E_/Pi_Pico/pico-sdk/lib/tinyusb/src/class/cdc/cdc_device.c.obj
 .text.tud_cdc_n_get_line_state
                0x00000000       0x18 CMakeFiles/1.8inch_TFT_Display.dir/E_/Pi_Pico/pico-sdk/lib/tinyusb/src/class/cdc/cdc_device.c.obj
 .text.tud_cdc_n_get_line_coding
                0x00000000       0x24 CMakeFiles/1.8inch_TFT_Display.dir/E_/Pi_Pico/pico-sdk/lib/tinyusb/src/class/cdc/cdc_device.c.obj
 .text.tud_cdc_n_set_wanted_char
                0x00000000       0x18 CMakeFiles/1.8inch_TFT_Display.dir/E_/Pi_Pico/pico-sdk/lib/tinyusb/src/class/cdc/cdc_device.c.obj
 .text.tud_cdc_n_peek
                0x00000000       0x20 CMakeFiles/1.8inch_TFT_Display.dir/E_/Pi_Pico/pico-sdk/lib/tinyusb/src/class/cdc/cdc_device.c.obj
 .text.tud_cdc_n_read_flush
                0x00000000       0x28 CMakeFiles/1.8inch_TFT_Display.dir/E_/Pi_Pico/pico-sdk/lib/tinyusb/src/class/cdc/cdc_device.c.obj
 .text          0x00000000        0x0 CMakeFiles/1.8inch_TFT_Display.dir/E_/Pi_Pico/pico-sdk/lib/tinyusb/src/class/dfu/dfu_rt_device.c.obj
 .data          0x00000000        0x0 CMakeFiles/1.8inch_TFT_Display.dir/E_/Pi_Pico/pico-sdk/lib/tinyusb/src/class/dfu/dfu_rt_device.c.obj
 .bss           0x00000000        0x0 CMakeFiles/1.8inch_TFT_Display.dir/E_/Pi_Pico/pico-sdk/lib/tinyusb/src/class/dfu/dfu_rt_device.c.obj
 .debug_line    0x00000000        0x0 CMakeFiles/1.8inch_TFT_Display.dir/E_/Pi_Pico/pico-sdk/lib/tinyusb/src/class/dfu/dfu_rt_device.c.obj
 .debug_str     0x00000000       0xfb CMakeFiles/1.8inch_TFT_Display.dir/E_/Pi_Pico/pico-sdk/lib/tinyusb/src/class/dfu/dfu_rt_device.c.obj
 .comment       0x00000000       0x4e CMakeFiles/1.8inch_TFT_Display.dir/E_/Pi_Pico/pico-sdk/lib/tinyusb/src/class/dfu/dfu_rt_device.c.obj
 .ARM.attributes
                0x00000000       0x32 CMakeFiles/1.8inch_TFT_Display.dir/E_/Pi_Pico/pico-sdk/lib/tinyusb/src/class/dfu/dfu_rt_device.c.obj
 .text          0x00000000        0x0 CMakeFiles/1.8inch_TFT_Display.dir/E_/Pi_Pico/pico-sdk/lib/tinyusb/src/class/hid/hid_device.c.obj
 .data          0x00000000        0x0 CMakeFiles/1.8inch_TFT_Display.dir/E_/Pi_Pico/pico-sdk/lib/tinyusb/src/class/hid/hid_device.c.obj
 .bss           0x00000000        0x0 CMakeFiles/1.8inch_TFT_Display.dir/E_/Pi_Pico/pico-sdk/lib/tinyusb/src/class/hid/hid_device.c.obj
 .debug_line    0x00000000        0x0 CMakeFiles/1.8inch_TFT_Display.dir/E_/Pi_Pico/pico-sdk/lib/tinyusb/src/class/hid/hid_device.c.obj
 .debug_str     0x00000000       0xf8 CMakeFiles/1.8inch_TFT_Display.dir/E_/Pi_Pico/pico-sdk/lib/tinyusb/src/class/hid/hid_device.c.obj
 .comment       0x00000000       0x4e CMakeFiles/1.8inch_TFT_Display.dir/E_/Pi_Pico/pico-sdk/lib/tinyusb/src/class/hid/hid_device.c.obj
 .ARM.attributes
                0x00000000       0x32 CMakeFiles/1.8inch_TFT_Display.dir/E_/Pi_Pico/pico-sdk/lib/tinyusb/src/class/hid/hid_device.c.obj
 .text          0x00000000        0x0 CMakeFiles/1.8inch_TFT_Display.dir/E_/Pi_Pico/pico-sdk/lib/tinyusb/src/class/midi/midi_device.c.obj
 .data          0x00000000        0x0 CMakeFiles/1.8inch_TFT_Display.dir/E_/Pi_Pico/pico-sdk/lib/tinyusb/src/class/midi/midi_device.c.obj
 .bss           0x00000000        0x0 CMakeFiles/1.8inch_TFT_Display.dir/E_/Pi_Pico/pico-sdk/lib/tinyusb/src/class/midi/midi_device.c.obj
 .debug_line    0x00000000        0x0 CMakeFiles/1.8inch_TFT_Display.dir/E_/Pi_Pico/pico-sdk/lib/tinyusb/src/class/midi/midi_device.c.obj
 .debug_str     0x00000000       0xfa CMakeFiles/1.8inch_TFT_Display.dir/E_/Pi_Pico/pico-sdk/lib/tinyusb/src/class/midi/midi_device.c.obj
 .comment       0x00000000       0x4e CMakeFiles/1.8inch_TFT_Display.dir/E_/Pi_Pico/pico-sdk/lib/tinyusb/src/class/midi/midi_device.c.obj
 .ARM.attributes
                0x00000000       0x32 CMakeFiles/1.8inch_TFT_Display.dir/E_/Pi_Pico/pico-sdk/lib/tinyusb/src/class/midi/midi_device.c.obj
 .text          0x00000000        0x0 CMakeFiles/1.8inch_TFT_Display.dir/E_/Pi_Pico/pico-sdk/lib/tinyusb/src/class/msc/msc_device.c.obj
 .data          0x00000000        0x0 CMakeFiles/1.8inch_TFT_Display.dir/E_/Pi_Pico/pico-sdk/lib/tinyusb/src/class/msc/msc_device.c.obj
 .bss           0x00000000        0x0 CMakeFiles/1.8inch_TFT_Display.dir/E_/Pi_Pico/pico-sdk/lib/tinyusb/src/class/msc/msc_device.c.obj
 .debug_line    0x00000000        0x0 CMakeFiles/1.8inch_TFT_Display.dir/E_/Pi_Pico/pico-sdk/lib/tinyusb/src/class/msc/msc_device.c.obj
 .debug_str     0x00000000       0xf8 CMakeFiles/1.8inch_TFT_Display.dir/E_/Pi_Pico/pico-sdk/lib/tinyusb/src/class/msc/msc_device.c.obj
 .comment       0x00000000       0x4e CMakeFiles/1.8inch_TFT_Display.dir/E_/Pi_Pico/pico-sdk/lib/tinyusb/src/class/msc/msc_device.c.obj
 .ARM.attributes
                0x00000000       0x32 CMakeFiles/1.8inch_TFT_Display.dir/E_/Pi_Pico/pico-sdk/lib/tinyusb/src/class/msc/msc_device.c.obj
 .text          0x00000000        0x0 CMakeFiles/1.8inch_TFT_Display.dir/E_/Pi_Pico/pico-sdk/lib/tinyusb/src/class/net/net_device.c.obj
 .data          0x00000000        0x0 CMakeFiles/1.8inch_TFT_Display.dir/E_/Pi_Pico/pico-sdk/lib/tinyusb/src/class/net/net_device.c.obj
 .bss           0x00000000        0x0 CMakeFiles/1.8inch_TFT_Display.dir/E_/Pi_Pico/pico-sdk/lib/tinyusb/src/class/net/net_device.c.obj
 .debug_line    0x00000000        0x0 CMakeFiles/1.8inch_TFT_Display.dir/E_/Pi_Pico/pico-sdk/lib/tinyusb/src/class/net/net_device.c.obj
 .debug_str     0x00000000       0xf8 CMakeFiles/1.8inch_TFT_Display.dir/E_/Pi_Pico/pico-sdk/lib/tinyusb/src/class/net/net_device.c.obj
 .comment       0x00000000       0x4e CMakeFiles/1.8inch_TFT_Display.dir/E_/Pi_Pico/pico-sdk/lib/tinyusb/src/class/net/net_device.c.obj
 .ARM.attributes
                0x00000000       0x32 CMakeFiles/1.8inch_TFT_Display.dir/E_/Pi_Pico/pico-sdk/lib/tinyusb/src/class/net/net_device.c.obj
 .text          0x00000000        0x0 CMakeFiles/1.8inch_TFT_Display.dir/E_/Pi_Pico/pico-sdk/lib/tinyusb/src/class/usbtmc/usbtmc_device.c.obj
 .data          0x00000000        0x0 CMakeFiles/1.8inch_TFT_Display.dir/E_/Pi_Pico/pico-sdk/lib/tinyusb/src/class/usbtmc/usbtmc_device.c.obj
 .bss           0x00000000        0x0 CMakeFiles/1.8inch_TFT_Display.dir/E_/Pi_Pico/pico-sdk/lib/tinyusb/src/class/usbtmc/usbtmc_device.c.obj
 .debug_line    0x00000000        0x0 CMakeFiles/1.8inch_TFT_Display.dir/E_/Pi_Pico/pico-sdk/lib/tinyusb/src/class/usbtmc/usbtmc_device.c.obj
 .debug_str     0x00000000       0xfe CMakeFiles/1.8inch_TFT_Display.dir/E_/Pi_Pico/pico-sdk/lib/tinyusb/src/class/usbtmc/usbtmc_device.c.obj
 .comment       0x00000000       0x4e CMakeFiles/1.8inch_TFT_Display.dir/E_/Pi_Pico/pico-sdk/lib/tinyusb/src/class/usbtmc/usbtmc_device.c.obj
 .ARM.attributes
                0x00000000       0x32 CMakeFiles/1.8inch_TFT_Display.dir/E_/Pi_Pico/pico-sdk/lib/tinyusb/src/class/usbtmc/usbtmc_device.c.obj
 .text          0x00000000        0x0 CMakeFiles/1.8inch_TFT_Display.dir/E_/Pi_Pico/pico-sdk/lib/tinyusb/src/class/vendor/vendor_device.c.obj
 .data          0x00000000        0x0 CMakeFiles/1.8inch_TFT_Display.dir/E_/Pi_Pico/pico-sdk/lib/tinyusb/src/class/vendor/vendor_device.c.obj
 .bss           0x00000000        0x0 CMakeFiles/1.8inch_TFT_Display.dir/E_/Pi_Pico/pico-sdk/lib/tinyusb/src/class/vendor/vendor_device.c.obj
 .debug_line    0x00000000        0x0 CMakeFiles/1.8inch_TFT_Display.dir/E_/Pi_Pico/pico-sdk/lib/tinyusb/src/class/vendor/vendor_device.c.obj
 .debug_str     0x00000000       0xfe CMakeFiles/1.8inch_TFT_Display.dir/E_/Pi_Pico/pico-sdk/lib/tinyusb/src/class/vendor/vendor_device.c.obj
 .comment       0x00000000       0x4e CMakeFiles/1.8inch_TFT_Display.dir/E_/Pi_Pico/pico-sdk/lib/tinyusb/src/class/vendor/vendor_device.c.obj
 .ARM.attributes
                0x00000000       0x32 CMakeFiles/1.8inch_TFT_Display.dir/E_/Pi_Pico/pico-sdk/lib/tinyusb/src/class/vendor/vendor_device.c.obj
 .text          0x00000000        0x0 CMakeFiles/1.8inch_TFT_Display.dir/E_/Pi_Pico/pico-sdk/lib/tinyusb/src/tusb.c.obj
 .data          0x00000000        0x0 CMakeFiles/1.8inch_TFT_Display.dir/E_/Pi_Pico/pico-sdk/lib/tinyusb/src/tusb.c.obj
 .bss           0x00000000        0x0 CMakeFiles/1.8inch_TFT_Display.dir/E_/Pi_Pico/pico-sdk/lib/tinyusb/src/tusb.c.obj
 .rodata.dump_str_line.str1.4
                0x00000000        0x7 CMakeFiles/1.8inch_TFT_Display.dir/E_/Pi_Pico/pico-sdk/lib/tinyusb/src/tusb.c.obj
 .text.dump_str_line
                0x00000000       0x40 CMakeFiles/1.8inch_TFT_Display.dir/E_/Pi_Pico/pico-sdk/lib/tinyusb/src/tusb.c.obj
 .rodata.tu_print_mem.str1.4
                0x00000000       0x15 CMakeFiles/1.8inch_TFT_Display.dir/E_/Pi_Pico/pico-sdk/lib/tinyusb/src/tusb.c.obj
 .text.tu_print_mem
                0x00000000       0xe0 CMakeFiles/1.8inch_TFT_Display.dir/E_/Pi_Pico/pico-sdk/lib/tinyusb/src/tusb.c.obj
 .rodata.str1.4
                0x00000000      0x132 CMakeFiles/1.8inch_TFT_Display.dir/E_/Pi_Pico/pico-sdk/lib/tinyusb/src/tusb.c.obj
 .rodata.tusb_strerr
                0x00000000       0x2c CMakeFiles/1.8inch_TFT_Display.dir/E_/Pi_Pico/pico-sdk/lib/tinyusb/src/tusb.c.obj
 .text          0x00000000        0x0 CMakeFiles/1.8inch_TFT_Display.dir/E_/Pi_Pico/pico-sdk/lib/tinyusb/src/common/tusb_fifo.c.obj
 .data          0x00000000        0x0 CMakeFiles/1.8inch_TFT_Display.dir/E_/Pi_Pico/pico-sdk/lib/tinyusb/src/common/tusb_fifo.c.obj
 .bss           0x00000000        0x0 CMakeFiles/1.8inch_TFT_Display.dir/E_/Pi_Pico/pico-sdk/lib/tinyusb/src/common/tusb_fifo.c.obj
 .text.tu_fifo_empty
                0x00000000       0x10 CMakeFiles/1.8inch_TFT_Display.dir/E_/Pi_Pico/pico-sdk/lib/tinyusb/src/common/tusb_fifo.c.obj
 .text.tu_fifo_full
                0x00000000       0x24 CMakeFiles/1.8inch_TFT_Display.dir/E_/Pi_Pico/pico-sdk/lib/tinyusb/src/common/tusb_fifo.c.obj
 .text.tu_fifo_overflowed
                0x00000000       0x22 CMakeFiles/1.8inch_TFT_Display.dir/E_/Pi_Pico/pico-sdk/lib/tinyusb/src/common/tusb_fifo.c.obj
 .text.tu_fifo_correct_read_pointer
                0x00000000       0x1e CMakeFiles/1.8inch_TFT_Display.dir/E_/Pi_Pico/pico-sdk/lib/tinyusb/src/common/tusb_fifo.c.obj
 .text.tu_fifo_peek_at
                0x00000000       0x2e CMakeFiles/1.8inch_TFT_Display.dir/E_/Pi_Pico/pico-sdk/lib/tinyusb/src/common/tusb_fifo.c.obj
 .text.tu_fifo_peek_at_n
                0x00000000       0x36 CMakeFiles/1.8inch_TFT_Display.dir/E_/Pi_Pico/pico-sdk/lib/tinyusb/src/common/tusb_fifo.c.obj
 .text.tu_fifo_advance_write_pointer
                0x00000000       0x12 CMakeFiles/1.8inch_TFT_Display.dir/E_/Pi_Pico/pico-sdk/lib/tinyusb/src/common/tusb_fifo.c.obj
 .text.tu_fifo_advance_read_pointer
                0x00000000       0x12 CMakeFiles/1.8inch_TFT_Display.dir/E_/Pi_Pico/pico-sdk/lib/tinyusb/src/common/tusb_fifo.c.obj
 .text          0x00000000        0x0 CMakeFiles/1.8inch_TFT_Display.dir/E_/Pi_Pico/pico-sdk/src/rp2_common/pico_fix/rp2040_usb_device_enumeration/rp2040_usb_device_enumeration.c.obj
 .data          0x00000000        0x0 CMakeFiles/1.8inch_TFT_Display.dir/E_/Pi_Pico/pico-sdk/src/rp2_common/pico_fix/rp2040_usb_device_enumeration/rp2040_usb_device_enumeration.c.obj
 .bss           0x00000000        0x0 CMakeFiles/1.8inch_TFT_Display.dir/E_/Pi_Pico/pico-sdk/src/rp2_common/pico_fix/rp2040_usb_device_enumeration/rp2040_usb_device_enumeration.c.obj
 .text.hw_enumeration_fix_finish
                0x00000000       0x20 CMakeFiles/1.8inch_TFT_Display.dir/E_/Pi_Pico/pico-sdk/src/rp2_common/pico_fix/rp2040_usb_device_enumeration/rp2040_usb_device_enumeration.c.obj
 .text.hw_enumeration_fix_force_ls_j_done
                0x00000000        0xc CMakeFiles/1.8inch_TFT_Display.dir/E_/Pi_Pico/pico-sdk/src/rp2_common/pico_fix/rp2040_usb_device_enumeration/rp2040_usb_device_enumeration.c.obj
 .rodata.hw_enumeration_fix_force_ls_j.str1.4
                0x00000000       0x82 CMakeFiles/1.8inch_TFT_Display.dir/E_/Pi_Pico/pico-sdk/src/rp2_common/pico_fix/rp2040_usb_device_enumeration/rp2040_usb_device_enumeration.c.obj
 .text.hw_enumeration_fix_force_ls_j
                0x00000000       0xac CMakeFiles/1.8inch_TFT_Display.dir/E_/Pi_Pico/pico-sdk/src/rp2_common/pico_fix/rp2040_usb_device_enumeration/rp2040_usb_device_enumeration.c.obj
 .text.hw_enumeration_fix_wait_se0_callback
                0x00000000       0x24 CMakeFiles/1.8inch_TFT_Display.dir/E_/Pi_Pico/pico-sdk/src/rp2_common/pico_fix/rp2040_usb_device_enumeration/rp2040_usb_device_enumeration.c.obj
 .text.hw_enumeration_fix_wait_se0
                0x00000000       0x60 CMakeFiles/1.8inch_TFT_Display.dir/E_/Pi_Pico/pico-sdk/src/rp2_common/pico_fix/rp2040_usb_device_enumeration/rp2040_usb_device_enumeration.c.obj
 .text.rp2040_usb_device_enumeration_fix
                0x00000000        0x8 CMakeFiles/1.8inch_TFT_Display.dir/E_/Pi_Pico/pico-sdk/src/rp2_common/pico_fix/rp2040_usb_device_enumeration/rp2040_usb_device_enumeration.c.obj
 .rodata.__func__.0
                0x00000000       0x1e CMakeFiles/1.8inch_TFT_Display.dir/E_/Pi_Pico/pico-sdk/src/rp2_common/pico_fix/rp2040_usb_device_enumeration/rp2040_usb_device_enumeration.c.obj
 .debug_info    0x00000000      0xa86 CMakeFiles/1.8inch_TFT_Display.dir/E_/Pi_Pico/pico-sdk/src/rp2_common/pico_fix/rp2040_usb_device_enumeration/rp2040_usb_device_enumeration.c.obj
 .debug_abbrev  0x00000000      0x359 CMakeFiles/1.8inch_TFT_Display.dir/E_/Pi_Pico/pico-sdk/src/rp2_common/pico_fix/rp2040_usb_device_enumeration/rp2040_usb_device_enumeration.c.obj
 .debug_loc     0x00000000      0x34a CMakeFiles/1.8inch_TFT_Display.dir/E_/Pi_Pico/pico-sdk/src/rp2_common/pico_fix/rp2040_usb_device_enumeration/rp2040_usb_device_enumeration.c.obj
 .debug_aranges
                0x00000000       0x48 CMakeFiles/1.8inch_TFT_Display.dir/E_/Pi_Pico/pico-sdk/src/rp2_common/pico_fix/rp2040_usb_device_enumeration/rp2040_usb_device_enumeration.c.obj
 .debug_ranges  0x00000000       0x38 CMakeFiles/1.8inch_TFT_Display.dir/E_/Pi_Pico/pico-sdk/src/rp2_common/pico_fix/rp2040_usb_device_enumeration/rp2040_usb_device_enumeration.c.obj
 .debug_line    0x00000000      0x5c7 CMakeFiles/1.8inch_TFT_Display.dir/E_/Pi_Pico/pico-sdk/src/rp2_common/pico_fix/rp2040_usb_device_enumeration/rp2040_usb_device_enumeration.c.obj
 .debug_str     0x00000000      0x647 CMakeFiles/1.8inch_TFT_Display.dir/E_/Pi_Pico/pico-sdk/src/rp2_common/pico_fix/rp2040_usb_device_enumeration/rp2040_usb_device_enumeration.c.obj
 .comment       0x00000000       0x4e CMakeFiles/1.8inch_TFT_Display.dir/E_/Pi_Pico/pico-sdk/src/rp2_common/pico_fix/rp2040_usb_device_enumeration/rp2040_usb_device_enumeration.c.obj
 .debug_frame   0x00000000       0xa8 CMakeFiles/1.8inch_TFT_Display.dir/E_/Pi_Pico/pico-sdk/src/rp2_common/pico_fix/rp2040_usb_device_enumeration/rp2040_usb_device_enumeration.c.obj
 .ARM.attributes
                0x00000000       0x2b CMakeFiles/1.8inch_TFT_Display.dir/E_/Pi_Pico/pico-sdk/src/rp2_common/pico_fix/rp2040_usb_device_enumeration/rp2040_usb_device_enumeration.c.obj
 .text          0x00000000        0x0 CMakeFiles/1.8inch_TFT_Display.dir/E_/Pi_Pico/pico-sdk/src/rp2_common/hardware_spi/spi.c.obj
 .data          0x00000000        0x0 CMakeFiles/1.8inch_TFT_Display.dir/E_/Pi_Pico/pico-sdk/src/rp2_common/hardware_spi/spi.c.obj
 .bss           0x00000000        0x0 CMakeFiles/1.8inch_TFT_Display.dir/E_/Pi_Pico/pico-sdk/src/rp2_common/hardware_spi/spi.c.obj
 .text.spi_deinit
                0x00000000       0x34 CMakeFiles/1.8inch_TFT_Display.dir/E_/Pi_Pico/pico-sdk/src/rp2_common/hardware_spi/spi.c.obj
 .time_critical.spi_write_read_blocking
                0x00000000       0x40 CMakeFiles/1.8inch_TFT_Display.dir/E_/Pi_Pico/pico-sdk/src/rp2_common/hardware_spi/spi.c.obj
 .time_critical.spi_read_blocking
                0x00000000       0x3c CMakeFiles/1.8inch_TFT_Display.dir/E_/Pi_Pico/pico-sdk/src/rp2_common/hardware_spi/spi.c.obj
 .time_critical.spi_write16_read16_blocking
                0x00000000       0x40 CMakeFiles/1.8inch_TFT_Display.dir/E_/Pi_Pico/pico-sdk/src/rp2_common/hardware_spi/spi.c.obj
 .time_critical.spi_write16_blocking
                0x00000000       0x3c CMakeFiles/1.8inch_TFT_Display.dir/E_/Pi_Pico/pico-sdk/src/rp2_common/hardware_spi/spi.c.obj
 .time_critical.spi_read16_blocking
                0x00000000       0x3c CMakeFiles/1.8inch_TFT_Display.dir/E_/Pi_Pico/pico-sdk/src/rp2_common/hardware_spi/spi.c.obj
 .text          0x00000000        0x0 C:\Users\Venki\AppData\Local\Temp\ccDkQiTn.o
 .data          0x00000000        0x0 C:\Users\Venki\AppData\Local\Temp\ccDkQiTn.o
 .bss           0x00000000        0x0 C:\Users\Venki\AppData\Local\Temp\ccDkQiTn.o
 .data          0x00000000        0x0 c:/progra~2/gnuarm~1/102020~1/bin/../lib/gcc/arm-none-eabi/10.2.1/thumb/v6-m/nofp\libgcc.a(_dvmd_tls.o)
 .bss           0x00000000        0x0 c:/progra~2/gnuarm~1/102020~1/bin/../lib/gcc/arm-none-eabi/10.2.1/thumb/v6-m/nofp\libgcc.a(_dvmd_tls.o)
 .text          0x00000000        0x0 c:/progra~2/gnuarm~1/102020~1/bin/../lib/gcc/arm-none-eabi/10.2.1/../../../../arm-none-eabi/lib/thumb/v6-m/nofp\libg.a(lib_a-calloc.o)
 .data          0x00000000        0x0 c:/progra~2/gnuarm~1/102020~1/bin/../lib/gcc/arm-none-eabi/10.2.1/../../../../arm-none-eabi/lib/thumb/v6-m/nofp\libg.a(lib_a-calloc.o)
 .bss           0x00000000        0x0 c:/progra~2/gnuarm~1/102020~1/bin/../lib/gcc/arm-none-eabi/10.2.1/../../../../arm-none-eabi/lib/thumb/v6-m/nofp\libg.a(lib_a-calloc.o)
 .text          0x00000000        0x0 c:/progra~2/gnuarm~1/102020~1/bin/../lib/gcc/arm-none-eabi/10.2.1/../../../../arm-none-eabi/lib/thumb/v6-m/nofp\libg.a(lib_a-callocr.o)
 .data          0x00000000        0x0 c:/progra~2/gnuarm~1/102020~1/bin/../lib/gcc/arm-none-eabi/10.2.1/../../../../arm-none-eabi/lib/thumb/v6-m/nofp\libg.a(lib_a-callocr.o)
 .bss           0x00000000        0x0 c:/progra~2/gnuarm~1/102020~1/bin/../lib/gcc/arm-none-eabi/10.2.1/../../../../arm-none-eabi/lib/thumb/v6-m/nofp\libg.a(lib_a-callocr.o)
 .text          0x00000000        0x0 c:/progra~2/gnuarm~1/102020~1/bin/../lib/gcc/arm-none-eabi/10.2.1/../../../../arm-none-eabi/lib/thumb/v6-m/nofp\libg.a(lib_a-ctype_.o)
 .data          0x00000000        0x0 c:/progra~2/gnuarm~1/102020~1/bin/../lib/gcc/arm-none-eabi/10.2.1/../../../../arm-none-eabi/lib/thumb/v6-m/nofp\libg.a(lib_a-ctype_.o)
 .bss           0x00000000        0x0 c:/progra~2/gnuarm~1/102020~1/bin/../lib/gcc/arm-none-eabi/10.2.1/../../../../arm-none-eabi/lib/thumb/v6-m/nofp\libg.a(lib_a-ctype_.o)
 .rodata._ctype_
                0x00000000      0x101 c:/progra~2/gnuarm~1/102020~1/bin/../lib/gcc/arm-none-eabi/10.2.1/../../../../arm-none-eabi/lib/thumb/v6-m/nofp\libg.a(lib_a-ctype_.o)
 .ARM.attributes
                0x00000000       0x2c c:/progra~2/gnuarm~1/102020~1/bin/../lib/gcc/arm-none-eabi/10.2.1/../../../../arm-none-eabi/lib/thumb/v6-m/nofp\libg.a(lib_a-ctype_.o)
 .text          0x00000000        0x0 c:/progra~2/gnuarm~1/102020~1/bin/../lib/gcc/arm-none-eabi/10.2.1/../../../../arm-none-eabi/lib/thumb/v6-m/nofp\libg.a(lib_a-impure.o)
 .data          0x00000000        0x0 c:/progra~2/gnuarm~1/102020~1/bin/../lib/gcc/arm-none-eabi/10.2.1/../../../../arm-none-eabi/lib/thumb/v6-m/nofp\libg.a(lib_a-impure.o)
 .bss           0x00000000        0x0 c:/progra~2/gnuarm~1/102020~1/bin/../lib/gcc/arm-none-eabi/10.2.1/../../../../arm-none-eabi/lib/thumb/v6-m/nofp\libg.a(lib_a-impure.o)
 .rodata._global_impure_ptr
                0x00000000        0x4 c:/progra~2/gnuarm~1/102020~1/bin/../lib/gcc/arm-none-eabi/10.2.1/../../../../arm-none-eabi/lib/thumb/v6-m/nofp\libg.a(lib_a-impure.o)
 .text          0x00000000        0x0 c:/progra~2/gnuarm~1/102020~1/bin/../lib/gcc/arm-none-eabi/10.2.1/../../../../arm-none-eabi/lib/thumb/v6-m/nofp\libg.a(lib_a-init.o)
 .data          0x00000000        0x0 c:/progra~2/gnuarm~1/102020~1/bin/../lib/gcc/arm-none-eabi/10.2.1/../../../../arm-none-eabi/lib/thumb/v6-m/nofp\libg.a(lib_a-init.o)
 .bss           0x00000000        0x0 c:/progra~2/gnuarm~1/102020~1/bin/../lib/gcc/arm-none-eabi/10.2.1/../../../../arm-none-eabi/lib/thumb/v6-m/nofp\libg.a(lib_a-init.o)
 .text.__libc_init_array
                0x00000000       0x44 c:/progra~2/gnuarm~1/102020~1/bin/../lib/gcc/arm-none-eabi/10.2.1/../../../../arm-none-eabi/lib/thumb/v6-m/nofp\libg.a(lib_a-init.o)
 .debug_frame   0x00000000       0x2c c:/progra~2/gnuarm~1/102020~1/bin/../lib/gcc/arm-none-eabi/10.2.1/../../../../arm-none-eabi/lib/thumb/v6-m/nofp\libg.a(lib_a-init.o)
 .ARM.attributes
                0x00000000       0x2c c:/progra~2/gnuarm~1/102020~1/bin/../lib/gcc/arm-none-eabi/10.2.1/../../../../arm-none-eabi/lib/thumb/v6-m/nofp\libg.a(lib_a-init.o)
 .text          0x00000000        0x0 c:/progra~2/gnuarm~1/102020~1/bin/../lib/gcc/arm-none-eabi/10.2.1/../../../../arm-none-eabi/lib/thumb/v6-m/nofp\libg.a(lib_a-malloc.o)
 .data          0x00000000        0x0 c:/progra~2/gnuarm~1/102020~1/bin/../lib/gcc/arm-none-eabi/10.2.1/../../../../arm-none-eabi/lib/thumb/v6-m/nofp\libg.a(lib_a-malloc.o)
 .bss           0x00000000        0x0 c:/progra~2/gnuarm~1/102020~1/bin/../lib/gcc/arm-none-eabi/10.2.1/../../../../arm-none-eabi/lib/thumb/v6-m/nofp\libg.a(lib_a-malloc.o)
 .text.free     0x00000000       0x14 c:/progra~2/gnuarm~1/102020~1/bin/../lib/gcc/arm-none-eabi/10.2.1/../../../../arm-none-eabi/lib/thumb/v6-m/nofp\libg.a(lib_a-malloc.o)
 .text          0x00000000        0x0 c:/progra~2/gnuarm~1/102020~1/bin/../lib/gcc/arm-none-eabi/10.2.1/../../../../arm-none-eabi/lib/thumb/v6-m/nofp\libg.a(lib_a-mallocr.o)
 .data          0x00000000        0x0 c:/progra~2/gnuarm~1/102020~1/bin/../lib/gcc/arm-none-eabi/10.2.1/../../../../arm-none-eabi/lib/thumb/v6-m/nofp\libg.a(lib_a-mallocr.o)
 .bss           0x00000000        0x0 c:/progra~2/gnuarm~1/102020~1/bin/../lib/gcc/arm-none-eabi/10.2.1/../../../../arm-none-eabi/lib/thumb/v6-m/nofp\libg.a(lib_a-mallocr.o)
 .text          0x00000000        0x0 c:/progra~2/gnuarm~1/102020~1/bin/../lib/gcc/arm-none-eabi/10.2.1/../../../../arm-none-eabi/lib/thumb/v6-m/nofp\libg.a(lib_a-mlock.o)
 .data          0x00000000        0x0 c:/progra~2/gnuarm~1/102020~1/bin/../lib/gcc/arm-none-eabi/10.2.1/../../../../arm-none-eabi/lib/thumb/v6-m/nofp\libg.a(lib_a-mlock.o)
 .bss           0x00000000        0x0 c:/progra~2/gnuarm~1/102020~1/bin/../lib/gcc/arm-none-eabi/10.2.1/../../../../arm-none-eabi/lib/thumb/v6-m/nofp\libg.a(lib_a-mlock.o)
 .text          0x00000000        0x0 c:/progra~2/gnuarm~1/102020~1/bin/../lib/gcc/arm-none-eabi/10.2.1/../../../../arm-none-eabi/lib/thumb/v6-m/nofp\libg.a(lib_a-sbrkr.o)
 .data          0x00000000        0x0 c:/progra~2/gnuarm~1/102020~1/bin/../lib/gcc/arm-none-eabi/10.2.1/../../../../arm-none-eabi/lib/thumb/v6-m/nofp\libg.a(lib_a-sbrkr.o)
 .bss           0x00000000        0x0 c:/progra~2/gnuarm~1/102020~1/bin/../lib/gcc/arm-none-eabi/10.2.1/../../../../arm-none-eabi/lib/thumb/v6-m/nofp\libg.a(lib_a-sbrkr.o)
 .text          0x00000000        0x0 c:/progra~2/gnuarm~1/102020~1/bin/../lib/gcc/arm-none-eabi/10.2.1/../../../../arm-none-eabi/lib/thumb/v6-m/nofp\libg.a(lib_a-strlen-stub.o)
 .data          0x00000000        0x0 c:/progra~2/gnuarm~1/102020~1/bin/../lib/gcc/arm-none-eabi/10.2.1/../../../../arm-none-eabi/lib/thumb/v6-m/nofp\libg.a(lib_a-strlen-stub.o)
 .bss           0x00000000        0x0 c:/progra~2/gnuarm~1/102020~1/bin/../lib/gcc/arm-none-eabi/10.2.1/../../../../arm-none-eabi/lib/thumb/v6-m/nofp\libg.a(lib_a-strlen-stub.o)
 .text          0x00000000        0x0 c:/progra~2/gnuarm~1/102020~1/bin/../lib/gcc/arm-none-eabi/10.2.1/../../../../arm-none-eabi/lib/thumb/v6-m/nofp\libg.a(lib_a-freer.o)
 .data          0x00000000        0x0 c:/progra~2/gnuarm~1/102020~1/bin/../lib/gcc/arm-none-eabi/10.2.1/../../../../arm-none-eabi/lib/thumb/v6-m/nofp\libg.a(lib_a-freer.o)
 .bss           0x00000000        0x0 c:/progra~2/gnuarm~1/102020~1/bin/../lib/gcc/arm-none-eabi/10.2.1/../../../../arm-none-eabi/lib/thumb/v6-m/nofp\libg.a(lib_a-freer.o)
 .text          0x00000000        0x0 c:/progra~2/gnuarm~1/102020~1/bin/../lib/gcc/arm-none-eabi/10.2.1/../../../../arm-none-eabi/lib/thumb/v6-m/nofp\libg.a(lib_a-lock.o)
 .data          0x00000000        0x0 c:/progra~2/gnuarm~1/102020~1/bin/../lib/gcc/arm-none-eabi/10.2.1/../../../../arm-none-eabi/lib/thumb/v6-m/nofp\libg.a(lib_a-lock.o)
 .bss           0x00000000        0x0 c:/progra~2/gnuarm~1/102020~1/bin/../lib/gcc/arm-none-eabi/10.2.1/../../../../arm-none-eabi/lib/thumb/v6-m/nofp\libg.a(lib_a-lock.o)
 .text.__retarget_lock_init
                0x00000000        0x4 c:/progra~2/gnuarm~1/102020~1/bin/../lib/gcc/arm-none-eabi/10.2.1/../../../../arm-none-eabi/lib/thumb/v6-m/nofp\libg.a(lib_a-lock.o)
 .text.__retarget_lock_init_recursive
                0x00000000        0x4 c:/progra~2/gnuarm~1/102020~1/bin/../lib/gcc/arm-none-eabi/10.2.1/../../../../arm-none-eabi/lib/thumb/v6-m/nofp\libg.a(lib_a-lock.o)
 .text.__retarget_lock_close
                0x00000000        0x4 c:/progra~2/gnuarm~1/102020~1/bin/../lib/gcc/arm-none-eabi/10.2.1/../../../../arm-none-eabi/lib/thumb/v6-m/nofp\libg.a(lib_a-lock.o)
 .text.__retarget_lock_close_recursive
                0x00000000        0x4 c:/progra~2/gnuarm~1/102020~1/bin/../lib/gcc/arm-none-eabi/10.2.1/../../../../arm-none-eabi/lib/thumb/v6-m/nofp\libg.a(lib_a-lock.o)
 .text.__retarget_lock_acquire
                0x00000000        0x4 c:/progra~2/gnuarm~1/102020~1/bin/../lib/gcc/arm-none-eabi/10.2.1/../../../../arm-none-eabi/lib/thumb/v6-m/nofp\libg.a(lib_a-lock.o)
 .text.__retarget_lock_try_acquire
                0x00000000        0x4 c:/progra~2/gnuarm~1/102020~1/bin/../lib/gcc/arm-none-eabi/10.2.1/../../../../arm-none-eabi/lib/thumb/v6-m/nofp\libg.a(lib_a-lock.o)
 .text.__retarget_lock_try_acquire_recursive
                0x00000000        0x4 c:/progra~2/gnuarm~1/102020~1/bin/../lib/gcc/arm-none-eabi/10.2.1/../../../../arm-none-eabi/lib/thumb/v6-m/nofp\libg.a(lib_a-lock.o)
 .text.__retarget_lock_release
                0x00000000        0x4 c:/progra~2/gnuarm~1/102020~1/bin/../lib/gcc/arm-none-eabi/10.2.1/../../../../arm-none-eabi/lib/thumb/v6-m/nofp\libg.a(lib_a-lock.o)
 .bss.__lock___arc4random_mutex
                0x00000000        0x1 c:/progra~2/gnuarm~1/102020~1/bin/../lib/gcc/arm-none-eabi/10.2.1/../../../../arm-none-eabi/lib/thumb/v6-m/nofp\libg.a(lib_a-lock.o)
 .bss.__lock___at_quick_exit_mutex
                0x00000000        0x1 c:/progra~2/gnuarm~1/102020~1/bin/../lib/gcc/arm-none-eabi/10.2.1/../../../../arm-none-eabi/lib/thumb/v6-m/nofp\libg.a(lib_a-lock.o)
 .bss.__lock___atexit_recursive_mutex
                0x00000000        0x1 c:/progra~2/gnuarm~1/102020~1/bin/../lib/gcc/arm-none-eabi/10.2.1/../../../../arm-none-eabi/lib/thumb/v6-m/nofp\libg.a(lib_a-lock.o)
 .bss.__lock___dd_hash_mutex
                0x00000000        0x1 c:/progra~2/gnuarm~1/102020~1/bin/../lib/gcc/arm-none-eabi/10.2.1/../../../../arm-none-eabi/lib/thumb/v6-m/nofp\libg.a(lib_a-lock.o)
 .bss.__lock___env_recursive_mutex
                0x00000000        0x1 c:/progra~2/gnuarm~1/102020~1/bin/../lib/gcc/arm-none-eabi/10.2.1/../../../../arm-none-eabi/lib/thumb/v6-m/nofp\libg.a(lib_a-lock.o)
 .bss.__lock___sfp_recursive_mutex
                0x00000000        0x1 c:/progra~2/gnuarm~1/102020~1/bin/../lib/gcc/arm-none-eabi/10.2.1/../../../../arm-none-eabi/lib/thumb/v6-m/nofp\libg.a(lib_a-lock.o)
 .bss.__lock___sinit_recursive_mutex
                0x00000000        0x1 c:/progra~2/gnuarm~1/102020~1/bin/../lib/gcc/arm-none-eabi/10.2.1/../../../../arm-none-eabi/lib/thumb/v6-m/nofp\libg.a(lib_a-lock.o)
 .bss.__lock___tz_mutex
                0x00000000        0x1 c:/progra~2/gnuarm~1/102020~1/bin/../lib/gcc/arm-none-eabi/10.2.1/../../../../arm-none-eabi/lib/thumb/v6-m/nofp\libg.a(lib_a-lock.o)
 .text          0x00000000        0x0 c:/progra~2/gnuarm~1/102020~1/bin/../lib/gcc/arm-none-eabi/10.2.1/../../../../arm-none-eabi/lib/thumb/v6-m/nofp\libg.a(lib_a-reent.o)
 .data          0x00000000        0x0 c:/progra~2/gnuarm~1/102020~1/bin/../lib/gcc/arm-none-eabi/10.2.1/../../../../arm-none-eabi/lib/thumb/v6-m/nofp\libg.a(lib_a-reent.o)
 .bss           0x00000000        0x0 c:/progra~2/gnuarm~1/102020~1/bin/../lib/gcc/arm-none-eabi/10.2.1/../../../../arm-none-eabi/lib/thumb/v6-m/nofp\libg.a(lib_a-reent.o)
 .text.cleanup_glue
                0x00000000       0x50 c:/progra~2/gnuarm~1/102020~1/bin/../lib/gcc/arm-none-eabi/10.2.1/../../../../arm-none-eabi/lib/thumb/v6-m/nofp\libg.a(lib_a-reent.o)
 .text._reclaim_reent
                0x00000000       0xa0 c:/progra~2/gnuarm~1/102020~1/bin/../lib/gcc/arm-none-eabi/10.2.1/../../../../arm-none-eabi/lib/thumb/v6-m/nofp\libg.a(lib_a-reent.o)
 .text          0x00000000        0x0 c:/progra~2/gnuarm~1/102020~1/bin/../lib/gcc/arm-none-eabi/10.2.1/thumb/v6-m/nofp/crtend.o
 .data          0x00000000        0x0 c:/progra~2/gnuarm~1/102020~1/bin/../lib/gcc/arm-none-eabi/10.2.1/thumb/v6-m/nofp/crtend.o
 .bss           0x00000000        0x0 c:/progra~2/gnuarm~1/102020~1/bin/../lib/gcc/arm-none-eabi/10.2.1/thumb/v6-m/nofp/crtend.o
 .rodata        0x00000000       0x24 c:/progra~2/gnuarm~1/102020~1/bin/../lib/gcc/arm-none-eabi/10.2.1/thumb/v6-m/nofp/crtend.o
 .eh_frame      0x00000000        0x4 c:/progra~2/gnuarm~1/102020~1/bin/../lib/gcc/arm-none-eabi/10.2.1/thumb/v6-m/nofp/crtend.o
 .ARM.attributes
                0x00000000       0x2c c:/progra~2/gnuarm~1/102020~1/bin/../lib/gcc/arm-none-eabi/10.2.1/thumb/v6-m/nofp/crtend.o
 .text          0x00000000        0x0 c:/progra~2/gnuarm~1/102020~1/bin/../lib/gcc/arm-none-eabi/10.2.1/thumb/v6-m/nofp/crtn.o
 .data          0x00000000        0x0 c:/progra~2/gnuarm~1/102020~1/bin/../lib/gcc/arm-none-eabi/10.2.1/thumb/v6-m/nofp/crtn.o
 .bss           0x00000000        0x0 c:/progra~2/gnuarm~1/102020~1/bin/../lib/gcc/arm-none-eabi/10.2.1/thumb/v6-m/nofp/crtn.o
 .init          0x00000000        0x8 c:/progra~2/gnuarm~1/102020~1/bin/../lib/gcc/arm-none-eabi/10.2.1/thumb/v6-m/nofp/crtn.o
 .fini          0x00000000        0x8 c:/progra~2/gnuarm~1/102020~1/bin/../lib/gcc/arm-none-eabi/10.2.1/thumb/v6-m/nofp/crtn.o
 .ARM.attributes
                0x00000000       0x1e c:/progra~2/gnuarm~1/102020~1/bin/../lib/gcc/arm-none-eabi/10.2.1/thumb/v6-m/nofp/crtn.o

Memory Configuration

Name             Origin             Length             Attributes
FLASH            0x10000000         0x00200000         xr
RAM              0x20000000         0x00040000         xrw
SCRATCH_X        0x20040000         0x00001000         xrw
SCRATCH_Y        0x20041000         0x00001000         xrw
*default*        0x00000000         0xffffffff

Linker script and memory map

LOAD c:/progra~2/gnuarm~1/102020~1/bin/../lib/gcc/arm-none-eabi/10.2.1/thumb/v6-m/nofp/crti.o
LOAD c:/progra~2/gnuarm~1/102020~1/bin/../lib/gcc/arm-none-eabi/10.2.1/thumb/v6-m/nofp/crtbegin.o
LOAD c:/progra~2/gnuarm~1/102020~1/bin/../lib/gcc/arm-none-eabi/10.2.1/../../../../arm-none-eabi/lib/thumb/v6-m/nofp/crt0.o

.flash_begin    0x10000000        0x0
                0x10000000                __flash_binary_start = .

.boot2          0x10000000      0x100
                0x10000000                __boot2_start__ = .
 *(.boot2)
 .boot2         0x10000000      0x100 C:\Users\Venki\AppData\Local\Temp\ccDkQiTn.o
                0x10000100                __boot2_end__ = .
                0x00000001                ASSERT (((__boot2_end__ - __boot2_start__) == 0x100), ERROR: Pico second stage bootloader must be 256 bytes in size)

.text           0x10000100     0x7e08
                0x10000100                __logical_binary_start = .
 *(.vectors)
 .vectors       0x10000100       0xd4 CMakeFiles/1.8inch_TFT_Display.dir/E_/Pi_Pico/pico-sdk/src/rp2_common/pico_standard_link/crt0.S.obj
                0x10000100                __vectors
                0x100001c0                isr_invalid
                0x100001c2                isr_nmi
                0x100001c4                isr_hardfault
                0x100001c6                isr_svcall
                0x100001c8                isr_pendsv
                0x100001ca                isr_systick
                0x100001cc                isr_irq11
                0x100001cc                isr_irq5
                0x100001cc                isr_irq23
                0x100001cc                isr_irq18
                0x100001cc                isr_irq31
                0x100001cc                isr_irq28
                0x100001cc                isr_irq19
                0x100001cc                isr_irq0
                0x100001cc                isr_irq6
                0x100001cc                isr_irq27
                0x100001cc                isr_irq12
                0x100001cc                isr_irq22
                0x100001cc                isr_irq13
                0x100001cc                isr_irq17
                0x100001cc                isr_irq14
                0x100001cc                isr_irq2
                0x100001cc                isr_irq10
                0x100001cc                isr_irq8
                0x100001cc                isr_irq24
                0x100001cc                isr_irq1
                0x100001cc                isr_irq7
                0x100001cc                isr_irq21
                0x100001cc                isr_irq20
                0x100001cc                isr_irq15
                0x100001cc                isr_irq25
                0x100001cc                __unhandled_user_irq
                0x100001cc                isr_irq4
                0x100001cc                isr_irq16
                0x100001cc                isr_irq29
                0x100001cc                isr_irq26
                0x100001cc                isr_irq3
                0x100001cc                isr_irq30
                0x100001cc                isr_irq9
                0x100001d2                unhandled_user_irq_num_in_r0
 *(.binary_info_header)
 .binary_info_header
                0x100001d4       0x14 CMakeFiles/1.8inch_TFT_Display.dir/E_/Pi_Pico/pico-sdk/src/rp2_common/pico_standard_link/crt0.S.obj
                0x100001e8                __binary_info_header_end = .
 *(.reset)
 .reset         0x100001e8       0xa8 CMakeFiles/1.8inch_TFT_Display.dir/E_/Pi_Pico/pico-sdk/src/rp2_common/pico_standard_link/crt0.S.obj
                0x100001e8                _entry_point
                0x10000266                __get_current_exception
 .reset         0x10000290       0x30 CMakeFiles/1.8inch_TFT_Display.dir/E_/Pi_Pico/pico-sdk/src/rp2_common/pico_standard_link/binary_info.c.obj
 *(.init)
 .init          0x100002c0        0x4 c:/progra~2/gnuarm~1/102020~1/bin/../lib/gcc/arm-none-eabi/10.2.1/thumb/v6-m/nofp/crti.o
                0x100002c0                _init
 *(EXCLUDE_FILE(*libm.a: *libc.a:*lib_a-mem*.o *libgcc.a:) .text*)
 .text          0x100002c4       0x48 c:/progra~2/gnuarm~1/102020~1/bin/../lib/gcc/arm-none-eabi/10.2.1/thumb/v6-m/nofp/crtbegin.o
 .text.DemoTFT  0x1000030c      0x38c CMakeFiles/1.8inch_TFT_Display.dir/src/main.c.obj
                0x1000030c                DemoTFT
 .text.main     0x10000698       0x58 CMakeFiles/1.8inch_TFT_Display.dir/src/main.c.obj
                0x10000698                main
 .text.ST7735_Reset
                0x100006f0       0x16 CMakeFiles/1.8inch_TFT_Display.dir/src/st7735.c.obj
 *fill*         0x10000706        0x2 
 .text.ST7735_WriteCommand
                0x10000708       0x24 CMakeFiles/1.8inch_TFT_Display.dir/src/st7735.c.obj
 .text.ST7735_WriteData
                0x1000072c       0x1c CMakeFiles/1.8inch_TFT_Display.dir/src/st7735.c.obj
 .text.ST7735_ExecuteCommandList
                0x10000748       0x4e CMakeFiles/1.8inch_TFT_Display.dir/src/st7735.c.obj
 *fill*         0x10000796        0x2 
 .text.ST7735_SetAddressWindow
                0x10000798       0x64 CMakeFiles/1.8inch_TFT_Display.dir/src/st7735.c.obj
 .text.ST7735_WriteChar
                0x100007fc       0xac CMakeFiles/1.8inch_TFT_Display.dir/src/st7735.c.obj
 .text.ST7735_Init
                0x100008a8       0x34 CMakeFiles/1.8inch_TFT_Display.dir/src/st7735.c.obj
                0x100008a8                ST7735_Init
 .text.ST7735_DrawPixel
                0x100008dc       0x54 CMakeFiles/1.8inch_TFT_Display.dir/src/st7735.c.obj
                0x100008dc                ST7735_DrawPixel
 .text.ST7735_DrawString
                0x10000930       0xa4 CMakeFiles/1.8inch_TFT_Display.dir/src/st7735.c.obj
                0x10000930                ST7735_DrawString
 .text.ST7735_FillRectangle
                0x100009d4       0xb0 CMakeFiles/1.8inch_TFT_Display.dir/src/st7735.c.obj
                0x100009d4                ST7735_FillRectangle
 .text.ST7735_FillScreen
                0x10000a84       0x24 CMakeFiles/1.8inch_TFT_Display.dir/src/st7735.c.obj
                0x10000a84                ST7735_FillScreen
 .text.ST7735_DrawImage
                0x10000aa8       0x60 CMakeFiles/1.8inch_TFT_Display.dir/src/st7735.c.obj
                0x10000aa8                ST7735_DrawImage
 .text.ST7735_DrawCircle
                0x10000b08      0x148 CMakeFiles/1.8inch_TFT_Display.dir/src/st7735.c.obj
                0x10000b08                ST7735_DrawCircle
 .text.ST7735_DrawLine
                0x10000c50       0xc4 CMakeFiles/1.8inch_TFT_Display.dir/src/st7735.c.obj
                0x10000c50                ST7735_DrawLine
 .text.ST7735_DrawFastVLine
                0x10000d14       0x40 CMakeFiles/1.8inch_TFT_Display.dir/src/st7735.c.obj
                0x10000d14                ST7735_DrawFastVLine
 .text.ST7735_DrawFastHLine
                0x10000d54       0x40 CMakeFiles/1.8inch_TFT_Display.dir/src/st7735.c.obj
                0x10000d54                ST7735_DrawFastHLine
 .text.ST7735_FillTriangle
                0x10000d94      0x1ac CMakeFiles/1.8inch_TFT_Display.dir/src/st7735.c.obj
                0x10000d94                ST7735_FillTriangle
 .text.ST7735_SetRotation
                0x10000f40       0xe4 CMakeFiles/1.8inch_TFT_Display.dir/src/st7735.c.obj
                0x10000f40                ST7735_SetRotation
 .text.ST7735_GetHeight
                0x10001024        0xc CMakeFiles/1.8inch_TFT_Display.dir/src/st7735.c.obj
                0x10001024                ST7735_GetHeight
 .text.ST7735_GetWidth
                0x10001030        0xc CMakeFiles/1.8inch_TFT_Display.dir/src/st7735.c.obj
                0x10001030                ST7735_GetWidth
 .text.gpio_set_function
                0x1000103c       0x30 CMakeFiles/1.8inch_TFT_Display.dir/E_/Pi_Pico/pico-sdk/src/rp2_common/hardware_gpio/gpio.c.obj
                0x1000103c                gpio_set_function
 .text.gpio_init
                0x1000106c       0x16 CMakeFiles/1.8inch_TFT_Display.dir/E_/Pi_Pico/pico-sdk/src/rp2_common/hardware_gpio/gpio.c.obj
                0x1000106c                gpio_init
 *fill*         0x10001082        0x2 
 .text.hw_claim_lock
                0x10001084       0x18 CMakeFiles/1.8inch_TFT_Display.dir/E_/Pi_Pico/pico-sdk/src/rp2_common/hardware_claim/claim.c.obj
                0x10001084                hw_claim_lock
 .text.hw_claim_unlock
                0x1000109c       0x14 CMakeFiles/1.8inch_TFT_Display.dir/E_/Pi_Pico/pico-sdk/src/rp2_common/hardware_claim/claim.c.obj
                0x1000109c                hw_claim_unlock
 .text.hw_claim_or_assert
                0x100010b0       0x34 CMakeFiles/1.8inch_TFT_Display.dir/E_/Pi_Pico/pico-sdk/src/rp2_common/hardware_claim/claim.c.obj
                0x100010b0                hw_claim_or_assert
 .text.hw_claim_unused_from_range
                0x100010e4       0x56 CMakeFiles/1.8inch_TFT_Display.dir/E_/Pi_Pico/pico-sdk/src/rp2_common/hardware_claim/claim.c.obj
                0x100010e4                hw_claim_unused_from_range
 *fill*         0x1000113a        0x2 
 .text.spin_locks_reset
                0x1000113c       0x20 CMakeFiles/1.8inch_TFT_Display.dir/E_/Pi_Pico/pico-sdk/src/rp2_common/hardware_sync/sync.c.obj
                0x1000113c                spin_locks_reset
 .text.next_striped_spin_lock_num
                0x1000115c       0x1c CMakeFiles/1.8inch_TFT_Display.dir/E_/Pi_Pico/pico-sdk/src/rp2_common/hardware_sync/sync.c.obj
                0x1000115c                next_striped_spin_lock_num
 .text.spin_lock_claim_unused
                0x10001178       0x20 CMakeFiles/1.8inch_TFT_Display.dir/E_/Pi_Pico/pico-sdk/src/rp2_common/hardware_sync/sync.c.obj
                0x10001178                spin_lock_claim_unused
 .text.running_on_fpga
                0x10001198       0x14 CMakeFiles/1.8inch_TFT_Display.dir/E_/Pi_Pico/pico-sdk/src/rp2_common/pico_platform/platform.c.obj
                0x10001198                running_on_fpga
 .text.sev_callback
                0x100011ac        0x8 CMakeFiles/1.8inch_TFT_Display.dir/E_/Pi_Pico/pico-sdk/src/common/pico_time/time.c.obj
 .text.timer_pool_entry_comparator
                0x100011b4       0x7c CMakeFiles/1.8inch_TFT_Display.dir/E_/Pi_Pico/pico-sdk/src/common/pico_time/time.c.obj
                0x100011b4                timer_pool_entry_comparator
 .text.ph_add_child_node
                0x10001230       0xa4 CMakeFiles/1.8inch_TFT_Display.dir/E_/Pi_Pico/pico-sdk/src/common/pico_time/time.c.obj
 .text.ph_merge_nodes
                0x100012d4       0x3e CMakeFiles/1.8inch_TFT_Display.dir/E_/Pi_Pico/pico-sdk/src/common/pico_time/time.c.obj
 *fill*         0x10001312        0x2 
 .text.add_alarm_under_lock
                0x10001314      0x178 CMakeFiles/1.8inch_TFT_Display.dir/E_/Pi_Pico/pico-sdk/src/common/pico_time/time.c.obj
 .text.alarm_pool_alarm_callback
                0x1000148c      0x2e4 CMakeFiles/1.8inch_TFT_Display.dir/E_/Pi_Pico/pico-sdk/src/common/pico_time/time.c.obj
 .text.alarm_pool_get_default
                0x10001770       0x28 CMakeFiles/1.8inch_TFT_Display.dir/E_/Pi_Pico/pico-sdk/src/common/pico_time/time.c.obj
                0x10001770                alarm_pool_get_default
 .text.alarm_pool_create
                0x10001798       0x6c CMakeFiles/1.8inch_TFT_Display.dir/E_/Pi_Pico/pico-sdk/src/common/pico_time/time.c.obj
                0x10001798                alarm_pool_create
 .text.alarm_pool_init_default
                0x10001804       0x20 CMakeFiles/1.8inch_TFT_Display.dir/E_/Pi_Pico/pico-sdk/src/common/pico_time/time.c.obj
                0x10001804                alarm_pool_init_default
 .text.alarm_pool_add_alarm_at
                0x10001824      0x128 CMakeFiles/1.8inch_TFT_Display.dir/E_/Pi_Pico/pico-sdk/src/common/pico_time/time.c.obj
                0x10001824                alarm_pool_add_alarm_at
 .text.alarm_pool_cancel_alarm
                0x1000194c       0xec CMakeFiles/1.8inch_TFT_Display.dir/E_/Pi_Pico/pico-sdk/src/common/pico_time/time.c.obj
                0x1000194c                alarm_pool_cancel_alarm
 .text.sleep_until
                0x10001a38       0x94 CMakeFiles/1.8inch_TFT_Display.dir/E_/Pi_Pico/pico-sdk/src/common/pico_time/time.c.obj
                0x10001a38                sleep_until
 .text.sleep_us
                0x10001acc       0x2c CMakeFiles/1.8inch_TFT_Display.dir/E_/Pi_Pico/pico-sdk/src/common/pico_time/time.c.obj
                0x10001acc                sleep_us
 .text.sleep_ms
                0x10001af8       0x14 CMakeFiles/1.8inch_TFT_Display.dir/E_/Pi_Pico/pico-sdk/src/common/pico_time/time.c.obj
                0x10001af8                sleep_ms
 .text.best_effort_wfe_or_timeout
                0x10001b0c       0x80 CMakeFiles/1.8inch_TFT_Display.dir/E_/Pi_Pico/pico-sdk/src/common/pico_time/time.c.obj
                0x10001b0c                best_effort_wfe_or_timeout
 .text.hardware_alarm_irq_handler
                0x10001b8c       0x8c CMakeFiles/1.8inch_TFT_Display.dir/E_/Pi_Pico/pico-sdk/src/rp2_common/hardware_timer/timer.c.obj
 .text.hardware_alarm_claim
                0x10001c18       0x18 CMakeFiles/1.8inch_TFT_Display.dir/E_/Pi_Pico/pico-sdk/src/rp2_common/hardware_timer/timer.c.obj
                0x10001c18                hardware_alarm_claim
 .text.time_us_64
                0x10001c30       0x18 CMakeFiles/1.8inch_TFT_Display.dir/E_/Pi_Pico/pico-sdk/src/rp2_common/hardware_timer/timer.c.obj
                0x10001c30                time_us_64
 .text.busy_wait_until
                0x10001c48       0x28 CMakeFiles/1.8inch_TFT_Display.dir/E_/Pi_Pico/pico-sdk/src/rp2_common/hardware_timer/timer.c.obj
                0x10001c48                busy_wait_until
 .text.hardware_alarm_set_callback
                0x10001c70       0x90 CMakeFiles/1.8inch_TFT_Display.dir/E_/Pi_Pico/pico-sdk/src/rp2_common/hardware_timer/timer.c.obj
                0x10001c70                hardware_alarm_set_callback
 .text.hardware_alarm_set_target
                0x10001d00       0xd0 CMakeFiles/1.8inch_TFT_Display.dir/E_/Pi_Pico/pico-sdk/src/rp2_common/hardware_timer/timer.c.obj
                0x10001d00                hardware_alarm_set_target
 .text.hardware_alarm_cancel
                0x10001dd0       0x40 CMakeFiles/1.8inch_TFT_Display.dir/E_/Pi_Pico/pico-sdk/src/rp2_common/hardware_timer/timer.c.obj
                0x10001dd0                hardware_alarm_cancel
 .text.lock_init
                0x10001e10       0x30 CMakeFiles/1.8inch_TFT_Display.dir/E_/Pi_Pico/pico-sdk/src/common/pico_sync/lock_core.c.obj
                0x10001e10                lock_init
 .text.mutex_init
                0x10001e40       0x1a CMakeFiles/1.8inch_TFT_Display.dir/E_/Pi_Pico/pico-sdk/src/common/pico_sync/mutex.c.obj
                0x10001e40                mutex_init
 .text.critical_section_init_with_lock_num
                0x10001e5a        0xc CMakeFiles/1.8inch_TFT_Display.dir/E_/Pi_Pico/pico-sdk/src/common/pico_sync/critical_section.c.obj
                0x10001e5a                critical_section_init_with_lock_num
 .text.critical_section_init
                0x10001e66       0x14 CMakeFiles/1.8inch_TFT_Display.dir/E_/Pi_Pico/pico-sdk/src/common/pico_sync/critical_section.c.obj
                0x10001e66                critical_section_init
 *fill*         0x10001e7a        0x2 
 .text.ph_add_child_node
                0x10001e7c       0xa4 CMakeFiles/1.8inch_TFT_Display.dir/E_/Pi_Pico/pico-sdk/src/common/pico_util/pheap.c.obj
 .text.ph_merge_nodes
                0x10001f20       0x3e CMakeFiles/1.8inch_TFT_Display.dir/E_/Pi_Pico/pico-sdk/src/common/pico_util/pheap.c.obj
 *fill*         0x10001f5e        0x2 
 .text.ph_clear
                0x10001f60       0x74 CMakeFiles/1.8inch_TFT_Display.dir/E_/Pi_Pico/pico-sdk/src/common/pico_util/pheap.c.obj
                0x10001f60                ph_clear
 .text.ph_create
                0x10001fd4       0x2c CMakeFiles/1.8inch_TFT_Display.dir/E_/Pi_Pico/pico-sdk/src/common/pico_util/pheap.c.obj
                0x10001fd4                ph_create
 .text.ph_merge_two_pass
                0x10002000       0xa8 CMakeFiles/1.8inch_TFT_Display.dir/E_/Pi_Pico/pico-sdk/src/common/pico_util/pheap.c.obj
                0x10002000                ph_merge_two_pass
 .text.ph_remove_any_head
                0x100020a8      0x108 CMakeFiles/1.8inch_TFT_Display.dir/E_/Pi_Pico/pico-sdk/src/common/pico_util/pheap.c.obj
 .text.ph_remove_head_reserve
                0x100021b0       0x14 CMakeFiles/1.8inch_TFT_Display.dir/E_/Pi_Pico/pico-sdk/src/common/pico_util/pheap.c.obj
                0x100021b0                ph_remove_head_reserve
 .text.ph_delete
                0x100021c4       0xf8 CMakeFiles/1.8inch_TFT_Display.dir/E_/Pi_Pico/pico-sdk/src/common/pico_util/pheap.c.obj
                0x100021c4                ph_delete
 .text.runtime_init
                0x100022bc       0xcc CMakeFiles/1.8inch_TFT_Display.dir/E_/Pi_Pico/pico-sdk/src/rp2_common/pico_runtime/runtime.c.obj
                0x100022bc                runtime_init
 .text._exit    0x10002388        0x4 CMakeFiles/1.8inch_TFT_Display.dir/E_/Pi_Pico/pico-sdk/src/rp2_common/pico_runtime/runtime.c.obj
                0x10002388                _exit
 .text._sbrk    0x1000238c       0x38 CMakeFiles/1.8inch_TFT_Display.dir/E_/Pi_Pico/pico-sdk/src/rp2_common/pico_runtime/runtime.c.obj
                0x1000238c                _sbrk
 .text.exit     0x100023c4        0x6 CMakeFiles/1.8inch_TFT_Display.dir/E_/Pi_Pico/pico-sdk/src/rp2_common/pico_runtime/runtime.c.obj
                0x100023c4                exit
 *fill*         0x100023ca        0x2 
 .text.__assert_func
                0x100023cc       0x3c CMakeFiles/1.8inch_TFT_Display.dir/E_/Pi_Pico/pico-sdk/src/rp2_common/pico_runtime/runtime.c.obj
                0x100023cc                __assert_func
 .text.panic    0x10002408       0x30 CMakeFiles/1.8inch_TFT_Display.dir/E_/Pi_Pico/pico-sdk/src/rp2_common/pico_runtime/runtime.c.obj
                0x10002408                panic
 .text.clock_configure
                0x10002438       0xe8 CMakeFiles/1.8inch_TFT_Display.dir/E_/Pi_Pico/pico-sdk/src/rp2_common/hardware_clocks/clocks.c.obj
                0x10002438                clock_configure
 .text.clocks_init
                0x10002520      0x124 CMakeFiles/1.8inch_TFT_Display.dir/E_/Pi_Pico/pico-sdk/src/rp2_common/hardware_clocks/clocks.c.obj
                0x10002520                clocks_init
 .text.clock_get_hz
                0x10002644        0xc CMakeFiles/1.8inch_TFT_Display.dir/E_/Pi_Pico/pico-sdk/src/rp2_common/hardware_clocks/clocks.c.obj
                0x10002644                clock_get_hz
 .text.watchdog_start_tick
                0x10002650       0x10 CMakeFiles/1.8inch_TFT_Display.dir/E_/Pi_Pico/pico-sdk/src/rp2_common/hardware_watchdog/watchdog.c.obj
                0x10002650                watchdog_start_tick
 .text.xosc_init
                0x10002660       0x28 CMakeFiles/1.8inch_TFT_Display.dir/E_/Pi_Pico/pico-sdk/src/rp2_common/hardware_xosc/xosc.c.obj
                0x10002660                xosc_init
 .text.pll_init
                0x10002688       0xd4 CMakeFiles/1.8inch_TFT_Display.dir/E_/Pi_Pico/pico-sdk/src/rp2_common/hardware_pll/pll.c.obj
                0x10002688                pll_init
 .text.set_raw_irq_handler_and_unlock
                0x1000275c       0x28 CMakeFiles/1.8inch_TFT_Display.dir/E_/Pi_Pico/pico-sdk/src/rp2_common/hardware_irq/irq.c.obj
 .text.make_branch
                0x10002784       0x34 CMakeFiles/1.8inch_TFT_Display.dir/E_/Pi_Pico/pico-sdk/src/rp2_common/hardware_irq/irq.c.obj
 .text.insert_branch_and_link
                0x100027b8       0x40 CMakeFiles/1.8inch_TFT_Display.dir/E_/Pi_Pico/pico-sdk/src/rp2_common/hardware_irq/irq.c.obj
 .text.irq_is_enabled
                0x100027f8       0x18 CMakeFiles/1.8inch_TFT_Display.dir/E_/Pi_Pico/pico-sdk/src/rp2_common/hardware_irq/irq.c.obj
                0x100027f8                irq_is_enabled
 .text.irq_set_mask_enabled
                0x10002810       0x20 CMakeFiles/1.8inch_TFT_Display.dir/E_/Pi_Pico/pico-sdk/src/rp2_common/hardware_irq/irq.c.obj
                0x10002810                irq_set_mask_enabled
 .text.irq_set_enabled
                0x10002830        0xe CMakeFiles/1.8inch_TFT_Display.dir/E_/Pi_Pico/pico-sdk/src/rp2_common/hardware_irq/irq.c.obj
                0x10002830                irq_set_enabled
 *fill*         0x1000283e        0x2 
 .text.irq_set_pending
                0x10002840       0x10 CMakeFiles/1.8inch_TFT_Display.dir/E_/Pi_Pico/pico-sdk/src/rp2_common/hardware_irq/irq.c.obj
                0x10002840                irq_set_pending
 .text.irq_get_vtable_handler
                0x10002850       0x10 CMakeFiles/1.8inch_TFT_Display.dir/E_/Pi_Pico/pico-sdk/src/rp2_common/hardware_irq/irq.c.obj
                0x10002850                irq_get_vtable_handler
 .text.irq_set_exclusive_handler
                0x10002860       0x54 CMakeFiles/1.8inch_TFT_Display.dir/E_/Pi_Pico/pico-sdk/src/rp2_common/hardware_irq/irq.c.obj
                0x10002860                irq_set_exclusive_handler
 .text.irq_remove_handler
                0x100028b4      0x1b4 CMakeFiles/1.8inch_TFT_Display.dir/E_/Pi_Pico/pico-sdk/src/rp2_common/hardware_irq/irq.c.obj
                0x100028b4                irq_remove_handler
 .text.irq_set_priority
                0x10002a68       0x28 CMakeFiles/1.8inch_TFT_Display.dir/E_/Pi_Pico/pico-sdk/src/rp2_common/hardware_irq/irq.c.obj
                0x10002a68                irq_set_priority
 .text.irq_add_tail_to_free_list
                0x10002a90       0xf8 CMakeFiles/1.8inch_TFT_Display.dir/E_/Pi_Pico/pico-sdk/src/rp2_common/hardware_irq/irq.c.obj
                0x10002a90                irq_add_tail_to_free_list
 .text.irq_init_priorities
                0x10002b88       0x16 CMakeFiles/1.8inch_TFT_Display.dir/E_/Pi_Pico/pico-sdk/src/rp2_common/hardware_irq/irq.c.obj
                0x10002b88                irq_init_priorities
 .text._out_null
                0x10002b9e        0x2 CMakeFiles/1.8inch_TFT_Display.dir/E_/Pi_Pico/pico-sdk/src/rp2_common/pico_printf/printf.c.obj
 .text._out_fct
                0x10002ba0        0xe CMakeFiles/1.8inch_TFT_Display.dir/E_/Pi_Pico/pico-sdk/src/rp2_common/pico_printf/printf.c.obj
 .text._atoi    0x10002bae       0x24 CMakeFiles/1.8inch_TFT_Display.dir/E_/Pi_Pico/pico-sdk/src/rp2_common/pico_printf/printf.c.obj
 .text._out_rev
                0x10002bd2       0xae CMakeFiles/1.8inch_TFT_Display.dir/E_/Pi_Pico/pico-sdk/src/rp2_common/pico_printf/printf.c.obj
 .text._ntoa_format
                0x10002c80      0x112 CMakeFiles/1.8inch_TFT_Display.dir/E_/Pi_Pico/pico-sdk/src/rp2_common/pico_printf/printf.c.obj
 .text._ntoa_long
                0x10002d92       0xbc CMakeFiles/1.8inch_TFT_Display.dir/E_/Pi_Pico/pico-sdk/src/rp2_common/pico_printf/printf.c.obj
 .text._ntoa_long_long
                0x10002e4e       0xe2 CMakeFiles/1.8inch_TFT_Display.dir/E_/Pi_Pico/pico-sdk/src/rp2_common/pico_printf/printf.c.obj
 .text._etoa    0x10002f30      0x404 CMakeFiles/1.8inch_TFT_Display.dir/E_/Pi_Pico/pico-sdk/src/rp2_common/pico_printf/printf.c.obj
 .text._ftoa    0x10003334      0x354 CMakeFiles/1.8inch_TFT_Display.dir/E_/Pi_Pico/pico-sdk/src/rp2_common/pico_printf/printf.c.obj
 .text._vsnprintf
                0x10003688      0x624 CMakeFiles/1.8inch_TFT_Display.dir/E_/Pi_Pico/pico-sdk/src/rp2_common/pico_printf/printf.c.obj
 .text.vfctprintf
                0x10003cac       0x20 CMakeFiles/1.8inch_TFT_Display.dir/E_/Pi_Pico/pico-sdk/src/rp2_common/pico_printf/printf.c.obj
                0x10003cac                vfctprintf
 .text          0x10003ccc       0x10 CMakeFiles/1.8inch_TFT_Display.dir/E_/Pi_Pico/pico-sdk/src/rp2_common/pico_bit_ops/bit_ops_aeabi.S.obj
 .text.rom_func_lookup
                0x10003cdc       0x10 CMakeFiles/1.8inch_TFT_Display.dir/E_/Pi_Pico/pico-sdk/src/rp2_common/pico_bootrom/bootrom.c.obj
                0x10003cdc                rom_func_lookup
 .text.rom_data_lookup
                0x10003cec       0x10 CMakeFiles/1.8inch_TFT_Display.dir/E_/Pi_Pico/pico-sdk/src/rp2_common/pico_bootrom/bootrom.c.obj
                0x10003cec                rom_data_lookup
 .text.rom_funcs_lookup
                0x10003cfc       0x36 CMakeFiles/1.8inch_TFT_Display.dir/E_/Pi_Pico/pico-sdk/src/rp2_common/pico_bootrom/bootrom.c.obj
                0x10003cfc                rom_funcs_lookup
 *fill*         0x10003d32        0x2 
 .text.__wrap___aeabi_idiv
                0x10003d34       0x58 CMakeFiles/1.8inch_TFT_Display.dir/E_/Pi_Pico/pico-sdk/src/rp2_common/pico_divider/divider.S.obj
                0x10003d34                __wrap___aeabi_idivmod
                0x10003d34                divmod_s32s32
                0x10003d34                div_s32s32
                0x10003d34                __wrap___aeabi_idiv
                0x10003d3c                divmod_s32s32_unsafe
                0x10003d68                divmod_s32s32_savestate
 .text.__wrap___aeabi_uidiv
                0x10003d8c       0x54 CMakeFiles/1.8inch_TFT_Display.dir/E_/Pi_Pico/pico-sdk/src/rp2_common/pico_divider/divider.S.obj
                0x10003d8c                __wrap___aeabi_uidiv
                0x10003d8c                __wrap___aeabi_uidivmod
                0x10003d8c                div_u32u32
                0x10003d8c                divmod_u32u32
                0x10003d94                divmod_u32u32_unsafe
                0x10003dbc                divmod_u32u32_savestate
 .text.__wrap___aeabi_ldiv
                0x10003de0      0x430 CMakeFiles/1.8inch_TFT_Display.dir/E_/Pi_Pico/pico-sdk/src/rp2_common/pico_divider/divider.S.obj
                0x10003de0                div_s64s64
                0x10003de0                divmod_s64s64
                0x10003de0                __wrap___aeabi_ldivmod
                0x10003e18                divmod_u64u64
                0x10003e18                div_u64u64
                0x10003e18                __wrap___aeabi_uldivmod
                0x10003e28                divmod_u64u64_savestate
                0x10003e50                divmod_s64s64_unsafe
                0x10003ed8                divmod_u64u64_unsafe
 .text.__wrap___aeabi_darithmetic
                0x10004210       0x54 CMakeFiles/1.8inch_TFT_Display.dir/E_/Pi_Pico/pico-sdk/src/rp2_common/pico_double/double_aeabi.S.obj
                0x10004210                __wrap___aeabi_drsub
                0x10004216                __wrap___aeabi_dsub
                0x10004228                __wrap___aeabi_dadd
                0x1000423a                __wrap___aeabi_ddiv
                0x1000424c                __wrap___aeabi_dmul
 .text.__wrap___aeabi_cdcmple
                0x10004264       0x6c CMakeFiles/1.8inch_TFT_Display.dir/E_/Pi_Pico/pico-sdk/src/rp2_common/pico_double/double_aeabi.S.obj
                0x10004264                __wrap___aeabi_cdrcmple
                0x10004274                __wrap___aeabi_cdcmpeq
                0x10004274                __wrap___aeabi_cdcmple
 .text.__wrap___aeabi_dcmplt
                0x100042d0        0xc CMakeFiles/1.8inch_TFT_Display.dir/E_/Pi_Pico/pico-sdk/src/rp2_common/pico_double/double_aeabi.S.obj
                0x100042d0                __wrap___aeabi_dcmplt
 .text.__wrap___aeabi_dcmple
                0x100042dc       0x10 CMakeFiles/1.8inch_TFT_Display.dir/E_/Pi_Pico/pico-sdk/src/rp2_common/pico_double/double_aeabi.S.obj
                0x100042dc                __wrap___aeabi_dcmple
 .text.__wrap___aeabi_dcmpge
                0x100042ec       0x10 CMakeFiles/1.8inch_TFT_Display.dir/E_/Pi_Pico/pico-sdk/src/rp2_common/pico_double/double_aeabi.S.obj
                0x100042ec                __wrap___aeabi_dcmpge
 .text.__wrap___aeabi_dcmpgt
                0x100042fc        0xa CMakeFiles/1.8inch_TFT_Display.dir/E_/Pi_Pico/pico-sdk/src/rp2_common/pico_double/double_aeabi.S.obj
                0x100042fc                __wrap___aeabi_dcmpgt
 .text.__wrap___aeabi_dcmpun
                0x10004306       0x1c CMakeFiles/1.8inch_TFT_Display.dir/E_/Pi_Pico/pico-sdk/src/rp2_common/pico_double/double_aeabi.S.obj
                0x10004306                __wrap___aeabi_dcmpun
 *fill*         0x10004322        0x2 
 .text.__wrap___aeabi_i2d
                0x10004324       0x38 CMakeFiles/1.8inch_TFT_Display.dir/E_/Pi_Pico/pico-sdk/src/rp2_common/pico_double/double_aeabi.S.obj
                0x10004324                __wrap___aeabi_ui2d
                0x1000432c                __wrap___aeabi_i2d
 .text.__wrap___aeabi_d2iz
                0x1000435c       0x48 CMakeFiles/1.8inch_TFT_Display.dir/E_/Pi_Pico/pico-sdk/src/rp2_common/pico_double/double_aeabi.S.obj
                0x1000435c                double2int_z
                0x1000435c                __wrap___aeabi_d2iz
 .text.__wrap___aeabi_d2uiz
                0x100043a4       0x18 CMakeFiles/1.8inch_TFT_Display.dir/E_/Pi_Pico/pico-sdk/src/rp2_common/pico_double/double_aeabi.S.obj
                0x100043a4                __wrap___aeabi_d2uiz
                0x100043a4                double2uint
 .text.__aeabi_double_init
                0x100043bc       0xb8 CMakeFiles/1.8inch_TFT_Display.dir/E_/Pi_Pico/pico-sdk/src/rp2_common/pico_double/double_init_rom.c.obj
                0x100043bc                __aeabi_double_init
 .text.double_table_shim_on_use_helper
                0x10004474       0x34 CMakeFiles/1.8inch_TFT_Display.dir/E_/Pi_Pico/pico-sdk/src/rp2_common/pico_double/double_v1_rom_shim.S.obj
                0x10004474                double_table_shim_on_use_helper
 .text.__wrap___aeabi_dsub
                0x100044a8       0x10 CMakeFiles/1.8inch_TFT_Display.dir/E_/Pi_Pico/pico-sdk/src/rp2_common/pico_double/double_v1_rom_shim.S.obj
                0x100044a8                drsub_shim
                0x100044ae                dsub_shim
 .text.dadd_shim
                0x100044b8      0x15c CMakeFiles/1.8inch_TFT_Display.dir/E_/Pi_Pico/pico-sdk/src/rp2_common/pico_double/double_v1_rom_shim.S.obj
                0x100044b8                dadd_shim
 .text.dmul_shim
                0x10004614      0x15c CMakeFiles/1.8inch_TFT_Display.dir/E_/Pi_Pico/pico-sdk/src/rp2_common/pico_double/double_v1_rom_shim.S.obj
                0x10004614                dmul_shim
 .text.ddiv_shim
                0x10004770      0x1b0 CMakeFiles/1.8inch_TFT_Display.dir/E_/Pi_Pico/pico-sdk/src/rp2_common/pico_double/double_v1_rom_shim.S.obj
                0x10004770                ddiv_shim
 .text.dcordic_rot_step
                0x10004920       0x7c CMakeFiles/1.8inch_TFT_Display.dir/E_/Pi_Pico/pico-sdk/src/rp2_common/pico_double/double_v1_rom_shim.S.obj
                0x10004920                dcordic_rot_step
 .text.double2uint_shim
                0x1000499c        0xe CMakeFiles/1.8inch_TFT_Display.dir/E_/Pi_Pico/pico-sdk/src/rp2_common/pico_double/double_v1_rom_shim.S.obj
                0x1000499c                double2uint_shim
                0x1000499e                double2ufix_shim
 *fill*         0x100049aa        0x2 
 .text.double2uint64_shim
                0x100049ac       0x6c CMakeFiles/1.8inch_TFT_Display.dir/E_/Pi_Pico/pico-sdk/src/rp2_common/pico_double/double_v1_rom_shim.S.obj
                0x100049ac                double2uint64_shim
                0x100049ae                double2ufix64_shim
                0x100049c8                d2fix_a
 .text.dunpacks
                0x10004a18       0x3c CMakeFiles/1.8inch_TFT_Display.dir/E_/Pi_Pico/pico-sdk/src/rp2_common/pico_double/double_v1_rom_shim.S.obj
                0x10004a18                dunpacks
 .text.__aeabi_lmul
                0x10004a54       0x32 CMakeFiles/1.8inch_TFT_Display.dir/E_/Pi_Pico/pico-sdk/src/rp2_common/pico_int64_ops/pico_int64_ops_aeabi.S.obj
                0x10004a54                __wrap___aeabi_lmul
 *fill*         0x10004a86        0x2 
 .text.__aeabi_float_init
                0x10004a88       0xfc CMakeFiles/1.8inch_TFT_Display.dir/E_/Pi_Pico/pico-sdk/src/rp2_common/pico_float/float_init_rom.c.obj
                0x10004a88                __aeabi_float_init
 .text.float_table_shim_on_use_helper
                0x10004b84       0x34 CMakeFiles/1.8inch_TFT_Display.dir/E_/Pi_Pico/pico-sdk/src/rp2_common/pico_float/float_v1_rom_shim.S.obj
                0x10004b84                float_table_shim_on_use_helper
 .text.__wrap_malloc
                0x10004bb8        0x8 CMakeFiles/1.8inch_TFT_Display.dir/E_/Pi_Pico/pico-sdk/src/rp2_common/pico_malloc/pico_malloc.c.obj
                0x10004bb8                __wrap_malloc
 .text.__wrap_calloc
                0x10004bc0        0x8 CMakeFiles/1.8inch_TFT_Display.dir/E_/Pi_Pico/pico-sdk/src/rp2_common/pico_malloc/pico_malloc.c.obj
                0x10004bc0                __wrap_calloc
 .text          0x10004bc8       0x10 CMakeFiles/1.8inch_TFT_Display.dir/E_/Pi_Pico/pico-sdk/src/rp2_common/pico_mem_ops/mem_ops_aeabi.S.obj
                0x10004bc8                __aeabi_mem_init
 .text.memset   0x10004bd8        0xc CMakeFiles/1.8inch_TFT_Display.dir/E_/Pi_Pico/pico-sdk/src/rp2_common/pico_mem_ops/mem_ops_aeabi.S.obj
                0x10004bd8                __wrap_memset
 .text.memcpy   0x10004be4        0xc CMakeFiles/1.8inch_TFT_Display.dir/E_/Pi_Pico/pico-sdk/src/rp2_common/pico_mem_ops/mem_ops_aeabi.S.obj
                0x10004be4                __wrap_memcpy
                0x10004be4                __wrap___aeabi_memcpy
 .text.stdio_out_chars_crlf
                0x10004bf0       0x80 CMakeFiles/1.8inch_TFT_Display.dir/E_/Pi_Pico/pico-sdk/src/rp2_common/pico_stdio/stdio.c.obj
 .text.stdio_stack_buffer_flush
                0x10004c70       0x44 CMakeFiles/1.8inch_TFT_Display.dir/E_/Pi_Pico/pico-sdk/src/rp2_common/pico_stdio/stdio.c.obj
 .text.stdio_buffered_printer
                0x10004cb4       0x20 CMakeFiles/1.8inch_TFT_Display.dir/E_/Pi_Pico/pico-sdk/src/rp2_common/pico_stdio/stdio.c.obj
 .text.stdout_serialize_begin
                0x10004cd4       0x2c CMakeFiles/1.8inch_TFT_Display.dir/E_/Pi_Pico/pico-sdk/src/rp2_common/pico_stdio/stdio.c.obj
                0x10004cd4                stdout_serialize_begin
 .text.stdout_serialize_end
                0x10004d00       0x10 CMakeFiles/1.8inch_TFT_Display.dir/E_/Pi_Pico/pico-sdk/src/rp2_common/pico_stdio/stdio.c.obj
                0x10004d00                stdout_serialize_end
 .text.stdio_put_string
                0x10004d10       0x84 CMakeFiles/1.8inch_TFT_Display.dir/E_/Pi_Pico/pico-sdk/src/rp2_common/pico_stdio/stdio.c.obj
 .text.stdio_set_driver_enabled
                0x10004d94       0x38 CMakeFiles/1.8inch_TFT_Display.dir/E_/Pi_Pico/pico-sdk/src/rp2_common/pico_stdio/stdio.c.obj
                0x10004d94                stdio_set_driver_enabled
 .text.stdio_flush
                0x10004dcc       0x20 CMakeFiles/1.8inch_TFT_Display.dir/E_/Pi_Pico/pico-sdk/src/rp2_common/pico_stdio/stdio.c.obj
                0x10004dcc                stdio_flush
 .text.__wrap_puts
                0x10004dec       0x1c CMakeFiles/1.8inch_TFT_Display.dir/E_/Pi_Pico/pico-sdk/src/rp2_common/pico_stdio/stdio.c.obj
                0x10004dec                __wrap_puts
 .text.__wrap_vprintf
                0x10004e08       0x44 CMakeFiles/1.8inch_TFT_Display.dir/E_/Pi_Pico/pico-sdk/src/rp2_common/pico_stdio/stdio.c.obj
                0x10004e08                __wrap_vprintf
 .text.__wrap_printf
                0x10004e4c       0x18 CMakeFiles/1.8inch_TFT_Display.dir/E_/Pi_Pico/pico-sdk/src/rp2_common/pico_stdio/stdio.c.obj
                0x10004e4c                __wrap_printf
 .text.stdio_init_all
                0x10004e64        0x8 CMakeFiles/1.8inch_TFT_Display.dir/E_/Pi_Pico/pico-sdk/src/rp2_common/pico_stdio/stdio.c.obj
                0x10004e64                stdio_init_all
 .text.stdio_usb_in_chars
                0x10004e6c       0x70 CMakeFiles/1.8inch_TFT_Display.dir/E_/Pi_Pico/pico-sdk/src/rp2_common/pico_stdio_usb/stdio_usb.c.obj
                0x10004e6c                stdio_usb_in_chars
 .text.low_priority_worker_irq
                0x10004edc       0x20 CMakeFiles/1.8inch_TFT_Display.dir/E_/Pi_Pico/pico-sdk/src/rp2_common/pico_stdio_usb/stdio_usb.c.obj
 .text.stdio_usb_out_chars
                0x10004efc       0xd4 CMakeFiles/1.8inch_TFT_Display.dir/E_/Pi_Pico/pico-sdk/src/rp2_common/pico_stdio_usb/stdio_usb.c.obj
 .text.timer_task
                0x10004fd0       0x10 CMakeFiles/1.8inch_TFT_Display.dir/E_/Pi_Pico/pico-sdk/src/rp2_common/pico_stdio_usb/stdio_usb.c.obj
 .text.stdio_usb_init
                0x10004fe0       0x90 CMakeFiles/1.8inch_TFT_Display.dir/E_/Pi_Pico/pico-sdk/src/rp2_common/pico_stdio_usb/stdio_usb.c.obj
                0x10004fe0                stdio_usb_init
 .text.tud_descriptor_device_cb
                0x10005070        0x8 CMakeFiles/1.8inch_TFT_Display.dir/E_/Pi_Pico/pico-sdk/src/rp2_common/pico_stdio_usb/stdio_usb_descriptors.c.obj
                0x10005070                tud_descriptor_device_cb
 .text.tud_descriptor_configuration_cb
                0x10005078        0x8 CMakeFiles/1.8inch_TFT_Display.dir/E_/Pi_Pico/pico-sdk/src/rp2_common/pico_stdio_usb/stdio_usb_descriptors.c.obj
                0x10005078                tud_descriptor_configuration_cb
 .text.tud_descriptor_string_cb
                0x10005080       0x50 CMakeFiles/1.8inch_TFT_Display.dir/E_/Pi_Pico/pico-sdk/src/rp2_common/pico_stdio_usb/stdio_usb_descriptors.c.obj
                0x10005080                tud_descriptor_string_cb
 .text.hw_endpoint_get_by_addr
                0x100050d0       0x1c CMakeFiles/1.8inch_TFT_Display.dir/E_/Pi_Pico/pico-sdk/lib/tinyusb/src/portable/raspberrypi/rp2040/dcd_rp2040.c.obj
 .text.reset_ep0
                0x100050ec       0x2c CMakeFiles/1.8inch_TFT_Display.dir/E_/Pi_Pico/pico-sdk/lib/tinyusb/src/portable/raspberrypi/rp2040/dcd_rp2040.c.obj
 .text._hw_endpoint_alloc
                0x10005118       0x7c CMakeFiles/1.8inch_TFT_Display.dir/E_/Pi_Pico/pico-sdk/lib/tinyusb/src/portable/raspberrypi/rp2040/dcd_rp2040.c.obj
 .text._hw_endpoint_init
                0x10005194       0xbc CMakeFiles/1.8inch_TFT_Display.dir/E_/Pi_Pico/pico-sdk/lib/tinyusb/src/portable/raspberrypi/rp2040/dcd_rp2040.c.obj
 .text.hw_endpoint_init
                0x10005250       0x18 CMakeFiles/1.8inch_TFT_Display.dir/E_/Pi_Pico/pico-sdk/lib/tinyusb/src/portable/raspberrypi/rp2040/dcd_rp2040.c.obj
 .text.hw_handle_buff_status
                0x10005268       0xb8 CMakeFiles/1.8inch_TFT_Display.dir/E_/Pi_Pico/pico-sdk/lib/tinyusb/src/portable/raspberrypi/rp2040/dcd_rp2040.c.obj
 .text.dcd_rp2040_irq
                0x10005320       0x8c CMakeFiles/1.8inch_TFT_Display.dir/E_/Pi_Pico/pico-sdk/lib/tinyusb/src/portable/raspberrypi/rp2040/dcd_rp2040.c.obj
 .text.hw_endpoint_xfer
                0x100053ac       0x18 CMakeFiles/1.8inch_TFT_Display.dir/E_/Pi_Pico/pico-sdk/lib/tinyusb/src/portable/raspberrypi/rp2040/dcd_rp2040.c.obj
 .text.ep0_0len_status
                0x100053c4       0x14 CMakeFiles/1.8inch_TFT_Display.dir/E_/Pi_Pico/pico-sdk/lib/tinyusb/src/portable/raspberrypi/rp2040/dcd_rp2040.c.obj
 .text._hw_endpoint_stall
                0x100053d8       0x54 CMakeFiles/1.8inch_TFT_Display.dir/E_/Pi_Pico/pico-sdk/lib/tinyusb/src/portable/raspberrypi/rp2040/dcd_rp2040.c.obj
 .text.hw_endpoint_stall
                0x1000542c        0xc CMakeFiles/1.8inch_TFT_Display.dir/E_/Pi_Pico/pico-sdk/lib/tinyusb/src/portable/raspberrypi/rp2040/dcd_rp2040.c.obj
 .text._hw_endpoint_clear_stall
                0x10005438       0x34 CMakeFiles/1.8inch_TFT_Display.dir/E_/Pi_Pico/pico-sdk/lib/tinyusb/src/portable/raspberrypi/rp2040/dcd_rp2040.c.obj
 .text.hw_endpoint_clear_stall
                0x1000546c        0xc CMakeFiles/1.8inch_TFT_Display.dir/E_/Pi_Pico/pico-sdk/lib/tinyusb/src/portable/raspberrypi/rp2040/dcd_rp2040.c.obj
 .text.dcd_int_enable
                0x10005478       0x2c CMakeFiles/1.8inch_TFT_Display.dir/E_/Pi_Pico/pico-sdk/lib/tinyusb/src/portable/raspberrypi/rp2040/dcd_rp2040.c.obj
                0x10005478                dcd_int_enable
 .text.dcd_set_address
                0x100054a4       0x30 CMakeFiles/1.8inch_TFT_Display.dir/E_/Pi_Pico/pico-sdk/lib/tinyusb/src/portable/raspberrypi/rp2040/dcd_rp2040.c.obj
                0x100054a4                dcd_set_address
 .text.dcd_connect
                0x100054d4       0x30 CMakeFiles/1.8inch_TFT_Display.dir/E_/Pi_Pico/pico-sdk/lib/tinyusb/src/portable/raspberrypi/rp2040/dcd_rp2040.c.obj
                0x100054d4                dcd_connect
 .text.dcd_init
                0x10005504       0x90 CMakeFiles/1.8inch_TFT_Display.dir/E_/Pi_Pico/pico-sdk/lib/tinyusb/src/portable/raspberrypi/rp2040/dcd_rp2040.c.obj
                0x10005504                dcd_init
 .text.dcd_edpt0_status_complete
                0x10005594       0x44 CMakeFiles/1.8inch_TFT_Display.dir/E_/Pi_Pico/pico-sdk/lib/tinyusb/src/portable/raspberrypi/rp2040/dcd_rp2040.c.obj
                0x10005594                dcd_edpt0_status_complete
 .text.dcd_edpt_open
                0x100055d8       0x40 CMakeFiles/1.8inch_TFT_Display.dir/E_/Pi_Pico/pico-sdk/lib/tinyusb/src/portable/raspberrypi/rp2040/dcd_rp2040.c.obj
                0x100055d8                dcd_edpt_open
 .text.dcd_edpt_xfer
                0x10005618       0x34 CMakeFiles/1.8inch_TFT_Display.dir/E_/Pi_Pico/pico-sdk/lib/tinyusb/src/portable/raspberrypi/rp2040/dcd_rp2040.c.obj
                0x10005618                dcd_edpt_xfer
 .text.dcd_edpt_stall
                0x1000564c       0x28 CMakeFiles/1.8inch_TFT_Display.dir/E_/Pi_Pico/pico-sdk/lib/tinyusb/src/portable/raspberrypi/rp2040/dcd_rp2040.c.obj
                0x1000564c                dcd_edpt_stall
 .text.dcd_edpt_clear_stall
                0x10005674       0x28 CMakeFiles/1.8inch_TFT_Display.dir/E_/Pi_Pico/pico-sdk/lib/tinyusb/src/portable/raspberrypi/rp2040/dcd_rp2040.c.obj
                0x10005674                dcd_edpt_clear_stall
 .text.rp2040_usb_init
                0x1000569c       0x50 CMakeFiles/1.8inch_TFT_Display.dir/E_/Pi_Pico/pico-sdk/lib/tinyusb/src/portable/raspberrypi/rp2040/rp2040_usb.c.obj
                0x1000569c                rp2040_usb_init
 .text.hw_endpoint_reset_transfer
                0x100056ec       0x14 CMakeFiles/1.8inch_TFT_Display.dir/E_/Pi_Pico/pico-sdk/lib/tinyusb/src/portable/raspberrypi/rp2040/rp2040_usb.c.obj
                0x100056ec                hw_endpoint_reset_transfer
 .text._hw_endpoint_buffer_control_update32
                0x10005700       0x54 CMakeFiles/1.8inch_TFT_Display.dir/E_/Pi_Pico/pico-sdk/lib/tinyusb/src/portable/raspberrypi/rp2040/rp2040_usb.c.obj
                0x10005700                _hw_endpoint_buffer_control_update32
 .text._hw_endpoint_start_next_buffer
                0x10005754       0x5a CMakeFiles/1.8inch_TFT_Display.dir/E_/Pi_Pico/pico-sdk/lib/tinyusb/src/portable/raspberrypi/rp2040/rp2040_usb.c.obj
                0x10005754                _hw_endpoint_start_next_buffer
 .text._hw_endpoint_xfer_start
                0x100057ae       0x46 CMakeFiles/1.8inch_TFT_Display.dir/E_/Pi_Pico/pico-sdk/lib/tinyusb/src/portable/raspberrypi/rp2040/rp2040_usb.c.obj
                0x100057ae                _hw_endpoint_xfer_start
 .text._hw_endpoint_xfer_sync
                0x100057f4       0x74 CMakeFiles/1.8inch_TFT_Display.dir/E_/Pi_Pico/pico-sdk/lib/tinyusb/src/portable/raspberrypi/rp2040/rp2040_usb.c.obj
                0x100057f4                _hw_endpoint_xfer_sync
 .text._hw_endpoint_xfer_continue
                0x10005868       0x58 CMakeFiles/1.8inch_TFT_Display.dir/E_/Pi_Pico/pico-sdk/lib/tinyusb/src/portable/raspberrypi/rp2040/rp2040_usb.c.obj
                0x10005868                _hw_endpoint_xfer_continue
 .text._hw_endpoint_xfer
                0x100058c0       0x34 CMakeFiles/1.8inch_TFT_Display.dir/E_/Pi_Pico/pico-sdk/lib/tinyusb/src/portable/raspberrypi/rp2040/rp2040_usb.c.obj
                0x100058c0                _hw_endpoint_xfer
 .text.mark_interface_endpoint
                0x100058f4       0x2a CMakeFiles/1.8inch_TFT_Display.dir/E_/Pi_Pico/pico-sdk/lib/tinyusb/src/device/usbd.c.obj
 *fill*         0x1000591e        0x2 
 .text.usbd_reset
                0x10005920       0x88 CMakeFiles/1.8inch_TFT_Display.dir/E_/Pi_Pico/pico-sdk/lib/tinyusb/src/device/usbd.c.obj
 .text.invoke_class_control
                0x100059a8       0x18 CMakeFiles/1.8inch_TFT_Display.dir/E_/Pi_Pico/pico-sdk/lib/tinyusb/src/device/usbd.c.obj
 .text.process_set_config
                0x100059c0      0x1d0 CMakeFiles/1.8inch_TFT_Display.dir/E_/Pi_Pico/pico-sdk/lib/tinyusb/src/device/usbd.c.obj
 .text.process_get_descriptor
                0x10005b90       0xf4 CMakeFiles/1.8inch_TFT_Display.dir/E_/Pi_Pico/pico-sdk/lib/tinyusb/src/device/usbd.c.obj
 .text.tud_mounted
                0x10005c84       0x10 CMakeFiles/1.8inch_TFT_Display.dir/E_/Pi_Pico/pico-sdk/lib/tinyusb/src/device/usbd.c.obj
                0x10005c84                tud_mounted
 .text.tud_suspended
                0x10005c94       0x10 CMakeFiles/1.8inch_TFT_Display.dir/E_/Pi_Pico/pico-sdk/lib/tinyusb/src/device/usbd.c.obj
                0x10005c94                tud_suspended
 .text.tud_init
                0x10005ca4       0xb8 CMakeFiles/1.8inch_TFT_Display.dir/E_/Pi_Pico/pico-sdk/lib/tinyusb/src/device/usbd.c.obj
                0x10005ca4                tud_init
 .text.dcd_event_handler
                0x10005d5c      0x1c4 CMakeFiles/1.8inch_TFT_Display.dir/E_/Pi_Pico/pico-sdk/lib/tinyusb/src/device/usbd.c.obj
                0x10005d5c                dcd_event_handler
 .text.dcd_event_bus_signal
                0x10005f20       0x26 CMakeFiles/1.8inch_TFT_Display.dir/E_/Pi_Pico/pico-sdk/lib/tinyusb/src/device/usbd.c.obj
                0x10005f20                dcd_event_bus_signal
 .text.dcd_event_setup_received
                0x10005f46       0x34 CMakeFiles/1.8inch_TFT_Display.dir/E_/Pi_Pico/pico-sdk/lib/tinyusb/src/device/usbd.c.obj
                0x10005f46                dcd_event_setup_received
 .text.dcd_event_xfer_complete
                0x10005f7a       0x44 CMakeFiles/1.8inch_TFT_Display.dir/E_/Pi_Pico/pico-sdk/lib/tinyusb/src/device/usbd.c.obj
                0x10005f7a                dcd_event_xfer_complete
 .text.usbd_edpt_open
                0x10005fbe        0x8 CMakeFiles/1.8inch_TFT_Display.dir/E_/Pi_Pico/pico-sdk/lib/tinyusb/src/device/usbd.c.obj
                0x10005fbe                usbd_edpt_open
 *fill*         0x10005fc6        0x2 
 .text.usbd_open_edpt_pair
                0x10005fc8       0x8c CMakeFiles/1.8inch_TFT_Display.dir/E_/Pi_Pico/pico-sdk/lib/tinyusb/src/device/usbd.c.obj
                0x10005fc8                usbd_open_edpt_pair
 .text.usbd_edpt_claim
                0x10006054       0x8c CMakeFiles/1.8inch_TFT_Display.dir/E_/Pi_Pico/pico-sdk/lib/tinyusb/src/device/usbd.c.obj
                0x10006054                usbd_edpt_claim
 .text.usbd_edpt_release
                0x100060e0       0x68 CMakeFiles/1.8inch_TFT_Display.dir/E_/Pi_Pico/pico-sdk/lib/tinyusb/src/device/usbd.c.obj
                0x100060e0                usbd_edpt_release
 .text.usbd_edpt_xfer
                0x10006148       0x80 CMakeFiles/1.8inch_TFT_Display.dir/E_/Pi_Pico/pico-sdk/lib/tinyusb/src/device/usbd.c.obj
                0x10006148                usbd_edpt_xfer
 .text.usbd_edpt_stall
                0x100061c8       0x2c CMakeFiles/1.8inch_TFT_Display.dir/E_/Pi_Pico/pico-sdk/lib/tinyusb/src/device/usbd.c.obj
                0x100061c8                usbd_edpt_stall
 .text.usbd_edpt_clear_stall
                0x100061f4       0x2c CMakeFiles/1.8inch_TFT_Display.dir/E_/Pi_Pico/pico-sdk/lib/tinyusb/src/device/usbd.c.obj
                0x100061f4                usbd_edpt_clear_stall
 .text.usbd_edpt_stalled
                0x10006220       0x1c CMakeFiles/1.8inch_TFT_Display.dir/E_/Pi_Pico/pico-sdk/lib/tinyusb/src/device/usbd.c.obj
                0x10006220                usbd_edpt_stalled
 .text.process_control_request
                0x1000623c      0x37c CMakeFiles/1.8inch_TFT_Display.dir/E_/Pi_Pico/pico-sdk/lib/tinyusb/src/device/usbd.c.obj
 .text.tud_task
                0x100065b8      0x204 CMakeFiles/1.8inch_TFT_Display.dir/E_/Pi_Pico/pico-sdk/lib/tinyusb/src/device/usbd.c.obj
                0x100065b8                tud_task
 .text._data_stage_xact
                0x100067bc       0x58 CMakeFiles/1.8inch_TFT_Display.dir/E_/Pi_Pico/pico-sdk/lib/tinyusb/src/device/usbd_control.c.obj
 .text.tud_control_status
                0x10006814       0x38 CMakeFiles/1.8inch_TFT_Display.dir/E_/Pi_Pico/pico-sdk/lib/tinyusb/src/device/usbd_control.c.obj
                0x10006814                tud_control_status
 .text.tud_control_xfer
                0x1000684c       0xa8 CMakeFiles/1.8inch_TFT_Display.dir/E_/Pi_Pico/pico-sdk/lib/tinyusb/src/device/usbd_control.c.obj
                0x1000684c                tud_control_xfer
 .text.usbd_control_reset
                0x100068f4       0x14 CMakeFiles/1.8inch_TFT_Display.dir/E_/Pi_Pico/pico-sdk/lib/tinyusb/src/device/usbd_control.c.obj
                0x100068f4                usbd_control_reset
 .text.usbd_control_set_complete_callback
                0x10006908        0xc CMakeFiles/1.8inch_TFT_Display.dir/E_/Pi_Pico/pico-sdk/lib/tinyusb/src/device/usbd_control.c.obj
                0x10006908                usbd_control_set_complete_callback
 .text.usbd_control_set_request
                0x10006914       0x1c CMakeFiles/1.8inch_TFT_Display.dir/E_/Pi_Pico/pico-sdk/lib/tinyusb/src/device/usbd_control.c.obj
                0x10006914                usbd_control_set_request
 .text.usbd_control_xfer_cb
                0x10006930       0xe8 CMakeFiles/1.8inch_TFT_Display.dir/E_/Pi_Pico/pico-sdk/lib/tinyusb/src/device/usbd_control.c.obj
                0x10006930                usbd_control_xfer_cb
 .text._prep_out_transaction
                0x10006a18       0x46 CMakeFiles/1.8inch_TFT_Display.dir/E_/Pi_Pico/pico-sdk/lib/tinyusb/src/class/cdc/cdc_device.c.obj
 *fill*         0x10006a5e        0x2 
 .text.tud_cdc_n_connected
                0x10006a60       0x48 CMakeFiles/1.8inch_TFT_Display.dir/E_/Pi_Pico/pico-sdk/lib/tinyusb/src/class/cdc/cdc_device.c.obj
                0x10006a60                tud_cdc_n_connected
 .text.tud_cdc_n_available
                0x10006aa8       0x20 CMakeFiles/1.8inch_TFT_Display.dir/E_/Pi_Pico/pico-sdk/lib/tinyusb/src/class/cdc/cdc_device.c.obj
                0x10006aa8                tud_cdc_n_available
 .text.tud_cdc_n_read
                0x10006ac8       0x30 CMakeFiles/1.8inch_TFT_Display.dir/E_/Pi_Pico/pico-sdk/lib/tinyusb/src/class/cdc/cdc_device.c.obj
                0x10006ac8                tud_cdc_n_read
 .text.tud_cdc_n_write_flush
                0x10006af8       0xc4 CMakeFiles/1.8inch_TFT_Display.dir/E_/Pi_Pico/pico-sdk/lib/tinyusb/src/class/cdc/cdc_device.c.obj
                0x10006af8                tud_cdc_n_write_flush
 .text.tud_cdc_n_write
                0x10006bbc       0x38 CMakeFiles/1.8inch_TFT_Display.dir/E_/Pi_Pico/pico-sdk/lib/tinyusb/src/class/cdc/cdc_device.c.obj
                0x10006bbc                tud_cdc_n_write
 .text.tud_cdc_n_write_available
                0x10006bf4       0x20 CMakeFiles/1.8inch_TFT_Display.dir/E_/Pi_Pico/pico-sdk/lib/tinyusb/src/class/cdc/cdc_device.c.obj
                0x10006bf4                tud_cdc_n_write_available
 .text.cdcd_init
                0x10006c14       0xdc CMakeFiles/1.8inch_TFT_Display.dir/E_/Pi_Pico/pico-sdk/lib/tinyusb/src/class/cdc/cdc_device.c.obj
                0x10006c14                cdcd_init
 .text.cdcd_reset
                0x10006cf0       0x44 CMakeFiles/1.8inch_TFT_Display.dir/E_/Pi_Pico/pico-sdk/lib/tinyusb/src/class/cdc/cdc_device.c.obj
                0x10006cf0                cdcd_reset
 .text.cdcd_open
                0x10006d34      0x118 CMakeFiles/1.8inch_TFT_Display.dir/E_/Pi_Pico/pico-sdk/lib/tinyusb/src/class/cdc/cdc_device.c.obj
                0x10006d34                cdcd_open
 .text.cdcd_control_complete
                0x10006e4c       0x60 CMakeFiles/1.8inch_TFT_Display.dir/E_/Pi_Pico/pico-sdk/lib/tinyusb/src/class/cdc/cdc_device.c.obj
                0x10006e4c                cdcd_control_complete
 .text.cdcd_control_request
                0x10006eac       0x9c CMakeFiles/1.8inch_TFT_Display.dir/E_/Pi_Pico/pico-sdk/lib/tinyusb/src/class/cdc/cdc_device.c.obj
                0x10006eac                cdcd_control_request
 .text.cdcd_xfer_cb
                0x10006f48      0x130 CMakeFiles/1.8inch_TFT_Display.dir/E_/Pi_Pico/pico-sdk/lib/tinyusb/src/class/cdc/cdc_device.c.obj
                0x10006f48                cdcd_xfer_cb
 .text.tusb_init
                0x10007078       0x38 CMakeFiles/1.8inch_TFT_Display.dir/E_/Pi_Pico/pico-sdk/lib/tinyusb/src/tusb.c.obj
                0x10007078                tusb_init
 .text.tusb_inited
                0x100070b0        0xc CMakeFiles/1.8inch_TFT_Display.dir/E_/Pi_Pico/pico-sdk/lib/tinyusb/src/tusb.c.obj
                0x100070b0                tusb_inited
 .text.advance_pointer
                0x100070bc       0x1e CMakeFiles/1.8inch_TFT_Display.dir/E_/Pi_Pico/pico-sdk/lib/tinyusb/src/common/tusb_fifo.c.obj
 .text.backward_pointer
                0x100070da       0x1a CMakeFiles/1.8inch_TFT_Display.dir/E_/Pi_Pico/pico-sdk/lib/tinyusb/src/common/tusb_fifo.c.obj
 .text.get_relative_pointer
                0x100070f4       0x16 CMakeFiles/1.8inch_TFT_Display.dir/E_/Pi_Pico/pico-sdk/lib/tinyusb/src/common/tusb_fifo.c.obj
 .text.tu_fifo_lock
                0x1000710a       0x12 CMakeFiles/1.8inch_TFT_Display.dir/E_/Pi_Pico/pico-sdk/lib/tinyusb/src/common/tusb_fifo.c.obj
 .text.tu_fifo_unlock
                0x1000711c        0xe CMakeFiles/1.8inch_TFT_Display.dir/E_/Pi_Pico/pico-sdk/lib/tinyusb/src/common/tusb_fifo.c.obj
 .text._tu_fifo_peek_at
                0x1000712a       0x66 CMakeFiles/1.8inch_TFT_Display.dir/E_/Pi_Pico/pico-sdk/lib/tinyusb/src/common/tusb_fifo.c.obj
 .text._ff_pull_n
                0x10007190       0x4a CMakeFiles/1.8inch_TFT_Display.dir/E_/Pi_Pico/pico-sdk/lib/tinyusb/src/common/tusb_fifo.c.obj
 .text._tu_fifo_peek_at_n
                0x100071da       0x72 CMakeFiles/1.8inch_TFT_Display.dir/E_/Pi_Pico/pico-sdk/lib/tinyusb/src/common/tusb_fifo.c.obj
 .text._ff_push_n
                0x1000724c       0x4a CMakeFiles/1.8inch_TFT_Display.dir/E_/Pi_Pico/pico-sdk/lib/tinyusb/src/common/tusb_fifo.c.obj
 .text.tu_fifo_config
                0x10007296       0x48 CMakeFiles/1.8inch_TFT_Display.dir/E_/Pi_Pico/pico-sdk/lib/tinyusb/src/common/tusb_fifo.c.obj
                0x10007296                tu_fifo_config
 .text.tu_fifo_count
                0x100072de       0x1c CMakeFiles/1.8inch_TFT_Display.dir/E_/Pi_Pico/pico-sdk/lib/tinyusb/src/common/tusb_fifo.c.obj
                0x100072de                tu_fifo_count
 .text.tu_fifo_remaining
                0x100072fa       0x20 CMakeFiles/1.8inch_TFT_Display.dir/E_/Pi_Pico/pico-sdk/lib/tinyusb/src/common/tusb_fifo.c.obj
                0x100072fa                tu_fifo_remaining
 .text.tu_fifo_read
                0x1000731a       0x3a CMakeFiles/1.8inch_TFT_Display.dir/E_/Pi_Pico/pico-sdk/lib/tinyusb/src/common/tusb_fifo.c.obj
                0x1000731a                tu_fifo_read
 .text.tu_fifo_read_n
                0x10007354       0x3e CMakeFiles/1.8inch_TFT_Display.dir/E_/Pi_Pico/pico-sdk/lib/tinyusb/src/common/tusb_fifo.c.obj
                0x10007354                tu_fifo_read_n
 .text.tu_fifo_write
                0x10007392       0x5c CMakeFiles/1.8inch_TFT_Display.dir/E_/Pi_Pico/pico-sdk/lib/tinyusb/src/common/tusb_fifo.c.obj
                0x10007392                tu_fifo_write
 .text.tu_fifo_write_n
                0x100073ee       0x7c CMakeFiles/1.8inch_TFT_Display.dir/E_/Pi_Pico/pico-sdk/lib/tinyusb/src/common/tusb_fifo.c.obj
                0x100073ee                tu_fifo_write_n
 .text.tu_fifo_clear
                0x1000746a       0x18 CMakeFiles/1.8inch_TFT_Display.dir/E_/Pi_Pico/pico-sdk/lib/tinyusb/src/common/tusb_fifo.c.obj
                0x1000746a                tu_fifo_clear
 .text.spi_set_baudrate
                0x10007482       0x92 CMakeFiles/1.8inch_TFT_Display.dir/E_/Pi_Pico/pico-sdk/src/rp2_common/hardware_spi/spi.c.obj
                0x10007482                spi_set_baudrate
 .text.spi_init
                0x10007514       0x6c CMakeFiles/1.8inch_TFT_Display.dir/E_/Pi_Pico/pico-sdk/src/rp2_common/hardware_spi/spi.c.obj
                0x10007514                spi_init
 .text.calloc   0x10007580       0x18 c:/progra~2/gnuarm~1/102020~1/bin/../lib/gcc/arm-none-eabi/10.2.1/../../../../arm-none-eabi/lib/thumb/v6-m/nofp\libg.a(lib_a-calloc.o)
                0x10007580                calloc
 .text._calloc_r
                0x10007598       0x5c c:/progra~2/gnuarm~1/102020~1/bin/../lib/gcc/arm-none-eabi/10.2.1/../../../../arm-none-eabi/lib/thumb/v6-m/nofp\libg.a(lib_a-callocr.o)
                0x10007598                _calloc_r
 .text.malloc   0x100075f4       0x14 c:/progra~2/gnuarm~1/102020~1/bin/../lib/gcc/arm-none-eabi/10.2.1/../../../../arm-none-eabi/lib/thumb/v6-m/nofp\libg.a(lib_a-malloc.o)
                0x100075f4                malloc
 .text._malloc_r
                0x10007608      0x580 c:/progra~2/gnuarm~1/102020~1/bin/../lib/gcc/arm-none-eabi/10.2.1/../../../../arm-none-eabi/lib/thumb/v6-m/nofp\libg.a(lib_a-mallocr.o)
                0x10007608                _malloc_r
 .text.__malloc_lock
                0x10007b88       0x10 c:/progra~2/gnuarm~1/102020~1/bin/../lib/gcc/arm-none-eabi/10.2.1/../../../../arm-none-eabi/lib/thumb/v6-m/nofp\libg.a(lib_a-mlock.o)
                0x10007b88                __malloc_lock
 .text.__malloc_unlock
                0x10007b98       0x10 c:/progra~2/gnuarm~1/102020~1/bin/../lib/gcc/arm-none-eabi/10.2.1/../../../../arm-none-eabi/lib/thumb/v6-m/nofp\libg.a(lib_a-mlock.o)
                0x10007b98                __malloc_unlock
 .text._sbrk_r  0x10007ba8       0x24 c:/progra~2/gnuarm~1/102020~1/bin/../lib/gcc/arm-none-eabi/10.2.1/../../../../arm-none-eabi/lib/thumb/v6-m/nofp\libg.a(lib_a-sbrkr.o)
                0x10007ba8                _sbrk_r
 .text.strlen   0x10007bcc       0x5c c:/progra~2/gnuarm~1/102020~1/bin/../lib/gcc/arm-none-eabi/10.2.1/../../../../arm-none-eabi/lib/thumb/v6-m/nofp\libg.a(lib_a-strlen-stub.o)
                0x10007bcc                strlen
 .text._malloc_trim_r
                0x10007c28       0x9c c:/progra~2/gnuarm~1/102020~1/bin/../lib/gcc/arm-none-eabi/10.2.1/../../../../arm-none-eabi/lib/thumb/v6-m/nofp\libg.a(lib_a-freer.o)
                0x10007c28                _malloc_trim_r
 .text._free_r  0x10007cc4      0x1c4 c:/progra~2/gnuarm~1/102020~1/bin/../lib/gcc/arm-none-eabi/10.2.1/../../../../arm-none-eabi/lib/thumb/v6-m/nofp\libg.a(lib_a-freer.o)
                0x10007cc4                _free_r
 .text.__retarget_lock_acquire_recursive
                0x10007e88        0x4 c:/progra~2/gnuarm~1/102020~1/bin/../lib/gcc/arm-none-eabi/10.2.1/../../../../arm-none-eabi/lib/thumb/v6-m/nofp\libg.a(lib_a-lock.o)
                0x10007e88                __retarget_lock_acquire_recursive
 .text.__retarget_lock_release_recursive
                0x10007e8c        0x4 c:/progra~2/gnuarm~1/102020~1/bin/../lib/gcc/arm-none-eabi/10.2.1/../../../../arm-none-eabi/lib/thumb/v6-m/nofp\libg.a(lib_a-lock.o)
                0x10007e8c                __retarget_lock_release_recursive
 *(.fini)
 .fini          0x10007e90        0x4 c:/progra~2/gnuarm~1/102020~1/bin/../lib/gcc/arm-none-eabi/10.2.1/thumb/v6-m/nofp/crti.o
                0x10007e90                _fini
 *fill*         0x10007e94        0x4 
 .fini.__stub   0x10007e98       0x70 linker stubs
 *crtbegin.o(.ctors)
 *crtbegin?.o(.ctors)
 *(EXCLUDE_FILE(*crtend.o *crtend?.o) .ctors)
 *(SORT_BY_NAME(.ctors.*))
 *(.ctors)
 *crtbegin.o(.dtors)
 *crtbegin?.o(.dtors)
 *(EXCLUDE_FILE(*crtend.o *crtend?.o) .dtors)
 *(SORT_BY_NAME(.dtors.*))
 *(.dtors)
 *(.eh_frame*)
 .eh_frame      0x10007f08        0x0 c:/progra~2/gnuarm~1/102020~1/bin/../lib/gcc/arm-none-eabi/10.2.1/thumb/v6-m/nofp/crtbegin.o
                0x10007f08                . = ALIGN (0x4)

.glue_7         0x10007f08        0x0
 .glue_7        0x10007f08        0x0 linker stubs

.glue_7t        0x10007f08        0x0
 .glue_7t       0x10007f08        0x0 linker stubs

.vfp11_veneer   0x10007f08        0x0
 .vfp11_veneer  0x10007f08        0x0 linker stubs

.v4_bx          0x10007f08        0x0
 .v4_bx         0x10007f08        0x0 linker stubs

.iplt           0x10007f08        0x0
 .iplt          0x10007f08        0x0 c:/progra~2/gnuarm~1/102020~1/bin/../lib/gcc/arm-none-eabi/10.2.1/thumb/v6-m/nofp/crtbegin.o

.rodata         0x10007f08     0x8a50
 *(EXCLUDE_FILE(*libm.a: *libc.a:*lib_a-mem*.o *libgcc.a:) .rodata*)
 .rodata.DemoTFT.str1.4
                0x10007f08       0x9a CMakeFiles/1.8inch_TFT_Display.dir/src/main.c.obj
 *fill*         0x10007fa2        0x2 
 .rodata.test_img
                0x10007fa4     0x4e20 CMakeFiles/1.8inch_TFT_Display.dir/src/main.c.obj
                0x10007fa4                test_img
 .rodata.init_cmds1
                0x1000cdc4       0x3b CMakeFiles/1.8inch_TFT_Display.dir/src/st7735.c.obj
 *fill*         0x1000cdff        0x1 
 .rodata.init_cmds2
                0x1000ce00        0xd CMakeFiles/1.8inch_TFT_Display.dir/src/st7735.c.obj
 *fill*         0x1000ce0d        0x3 
 .rodata.init_cmds3
                0x1000ce10       0x2b CMakeFiles/1.8inch_TFT_Display.dir/src/st7735.c.obj
 *fill*         0x1000ce3b        0x1 
 .rodata.Font11x18
                0x1000ce3c      0xd5c CMakeFiles/1.8inch_TFT_Display.dir/src/fonts.c.obj
 .rodata.Font16x26
                0x1000db98     0x134c CMakeFiles/1.8inch_TFT_Display.dir/src/fonts.c.obj
 .rodata.Font7x10
                0x1000eee4      0x76c CMakeFiles/1.8inch_TFT_Display.dir/src/fonts.c.obj
 .rodata.spin_lock_claim_unused.str1.4
                0x1000f650       0x1b CMakeFiles/1.8inch_TFT_Display.dir/E_/Pi_Pico/pico-sdk/src/rp2_common/hardware_sync/sync.c.obj
 *fill*         0x1000f66b        0x1 
 .rodata.alarm_pool_dump_key.str1.4
                0x1000f66c       0x63 CMakeFiles/1.8inch_TFT_Display.dir/E_/Pi_Pico/pico-sdk/src/common/pico_time/time.c.obj
 *fill*         0x1000f6cf        0x1 
 .rodata.ph_add_child_node.str1.4
                0x1000f6d0       0x8e CMakeFiles/1.8inch_TFT_Display.dir/E_/Pi_Pico/pico-sdk/src/common/pico_time/time.c.obj
 *fill*         0x1000f75e        0x2 
 .rodata.add_alarm_under_lock.str1.4
                0x1000f760       0x27 CMakeFiles/1.8inch_TFT_Display.dir/E_/Pi_Pico/pico-sdk/src/common/pico_time/time.c.obj
 *fill*         0x1000f787        0x1 
 .rodata.alarm_pool_alarm_callback.str1.4
                0x1000f788       0x7d CMakeFiles/1.8inch_TFT_Display.dir/E_/Pi_Pico/pico-sdk/src/common/pico_time/time.c.obj
 *fill*         0x1000f805        0x3 
 .rodata.alarm_pool_get_default.str1.4
                0x1000f808       0x13 CMakeFiles/1.8inch_TFT_Display.dir/E_/Pi_Pico/pico-sdk/src/common/pico_time/time.c.obj
 *fill*         0x1000f81b        0x1 
 .rodata.alarm_pool_cancel_alarm.str1.4
                0x1000f81c       0x27 CMakeFiles/1.8inch_TFT_Display.dir/E_/Pi_Pico/pico-sdk/src/common/pico_time/time.c.obj
 *fill*         0x1000f843        0x1 
 .rodata.__func__.0
                0x1000f844       0x18 CMakeFiles/1.8inch_TFT_Display.dir/E_/Pi_Pico/pico-sdk/src/common/pico_time/time.c.obj
 .rodata.__func__.10
                0x1000f85c       0x17 CMakeFiles/1.8inch_TFT_Display.dir/E_/Pi_Pico/pico-sdk/src/common/pico_time/time.c.obj
 *fill*         0x1000f873        0x1 
 .rodata.__func__.2
                0x1000f874       0x12 CMakeFiles/1.8inch_TFT_Display.dir/E_/Pi_Pico/pico-sdk/src/common/pico_time/time.c.obj
 *fill*         0x1000f886        0x2 
 .rodata.__func__.3
                0x1000f888       0x14 CMakeFiles/1.8inch_TFT_Display.dir/E_/Pi_Pico/pico-sdk/src/common/pico_time/time.c.obj
 .rodata.__func__.4
                0x1000f89c       0x12 CMakeFiles/1.8inch_TFT_Display.dir/E_/Pi_Pico/pico-sdk/src/common/pico_time/time.c.obj
 *fill*         0x1000f8ae        0x2 
 .rodata.__func__.5
                0x1000f8b0        0xa CMakeFiles/1.8inch_TFT_Display.dir/E_/Pi_Pico/pico-sdk/src/common/pico_time/time.c.obj
 *fill*         0x1000f8ba        0x2 
 .rodata.__func__.6
                0x1000f8bc        0xc CMakeFiles/1.8inch_TFT_Display.dir/E_/Pi_Pico/pico-sdk/src/common/pico_time/time.c.obj
 .rodata.__func__.7
                0x1000f8c8       0x15 CMakeFiles/1.8inch_TFT_Display.dir/E_/Pi_Pico/pico-sdk/src/common/pico_time/time.c.obj
 *fill*         0x1000f8dd        0x3 
 .rodata.__func__.8
                0x1000f8e0       0x1a CMakeFiles/1.8inch_TFT_Display.dir/E_/Pi_Pico/pico-sdk/src/common/pico_time/time.c.obj
 *fill*         0x1000f8fa        0x2 
 .rodata.__func__.9
                0x1000f8fc        0xa CMakeFiles/1.8inch_TFT_Display.dir/E_/Pi_Pico/pico-sdk/src/common/pico_time/time.c.obj
 *fill*         0x1000f906        0x2 
 .rodata.hardware_alarm_claim.str1.4
                0x1000f908       0x22 CMakeFiles/1.8inch_TFT_Display.dir/E_/Pi_Pico/pico-sdk/src/rp2_common/hardware_timer/timer.c.obj
 *fill*         0x1000f92a        0x2 
 .rodata.hardware_alarm_set_target.str1.4
                0x1000f92c       0x5e CMakeFiles/1.8inch_TFT_Display.dir/E_/Pi_Pico/pico-sdk/src/rp2_common/hardware_timer/timer.c.obj
 *fill*         0x1000f98a        0x2 
 .rodata.__func__.0
                0x1000f98c       0x1a CMakeFiles/1.8inch_TFT_Display.dir/E_/Pi_Pico/pico-sdk/src/rp2_common/hardware_timer/timer.c.obj
 *fill*         0x1000f9a6        0x2 
 .rodata.lock_init.str1.4
                0x1000f9a8       0x61 CMakeFiles/1.8inch_TFT_Display.dir/E_/Pi_Pico/pico-sdk/src/common/pico_sync/lock_core.c.obj
 *fill*         0x1000fa09        0x3 
 .rodata.__func__.0
                0x1000fa0c        0xa CMakeFiles/1.8inch_TFT_Display.dir/E_/Pi_Pico/pico-sdk/src/common/pico_sync/lock_core.c.obj
 *fill*         0x1000fa16        0x2 
 .rodata.str1.4
                0x1000fa18       0x58 CMakeFiles/1.8inch_TFT_Display.dir/E_/Pi_Pico/pico-sdk/src/common/pico_sync/mutex.c.obj
 .rodata.__func__.0
                0x1000fa70        0xb CMakeFiles/1.8inch_TFT_Display.dir/E_/Pi_Pico/pico-sdk/src/common/pico_sync/mutex.c.obj
 *fill*         0x1000fa7b        0x1 
 .rodata.__func__.1
                0x1000fa7c       0x18 CMakeFiles/1.8inch_TFT_Display.dir/E_/Pi_Pico/pico-sdk/src/common/pico_sync/mutex.c.obj
 .rodata.__func__.2
                0x1000fa94       0x15 CMakeFiles/1.8inch_TFT_Display.dir/E_/Pi_Pico/pico-sdk/src/common/pico_sync/mutex.c.obj
 .rodata.ph_add_child_node.str1.4
                0x1000faa9       0x8e CMakeFiles/1.8inch_TFT_Display.dir/E_/Pi_Pico/pico-sdk/src/common/pico_util/pheap.c.obj
 *fill*         0x1000faa9        0x3 
 .rodata.ph_remove_any_head.str1.4
                0x1000faac       0x88 CMakeFiles/1.8inch_TFT_Display.dir/E_/Pi_Pico/pico-sdk/src/common/pico_util/pheap.c.obj
 .rodata.ph_delete.str1.4
                0x1000fb34       0x26 CMakeFiles/1.8inch_TFT_Display.dir/E_/Pi_Pico/pico-sdk/src/common/pico_util/pheap.c.obj
 *fill*         0x1000fb5a        0x2 
 .rodata.__func__.0
                0x1000fb5c        0xa CMakeFiles/1.8inch_TFT_Display.dir/E_/Pi_Pico/pico-sdk/src/common/pico_util/pheap.c.obj
 *fill*         0x1000fb66        0x2 
 .rodata.__func__.1
                0x1000fb68       0x13 CMakeFiles/1.8inch_TFT_Display.dir/E_/Pi_Pico/pico-sdk/src/common/pico_util/pheap.c.obj
 *fill*         0x1000fb7b        0x1 
 .rodata.__func__.2
                0x1000fb7c       0x12 CMakeFiles/1.8inch_TFT_Display.dir/E_/Pi_Pico/pico-sdk/src/common/pico_util/pheap.c.obj
 *fill*         0x1000fb8e        0x2 
 .rodata.__func__.3
                0x1000fb90        0xc CMakeFiles/1.8inch_TFT_Display.dir/E_/Pi_Pico/pico-sdk/src/common/pico_util/pheap.c.obj
 .rodata.__assert_func.str1.4
                0x1000fb9c       0x3f CMakeFiles/1.8inch_TFT_Display.dir/E_/Pi_Pico/pico-sdk/src/rp2_common/pico_runtime/runtime.c.obj
                                 0x43 (size before relaxing)
 *fill*         0x1000fbdb        0x1 
 .rodata.panic.str1.4
                0x1000fbdc       0x12 CMakeFiles/1.8inch_TFT_Display.dir/E_/Pi_Pico/pico-sdk/src/rp2_common/pico_runtime/runtime.c.obj
 *fill*         0x1000fbee        0x2 
 .rodata.clock_configure.str1.4
                0x1000fbf0       0x50 CMakeFiles/1.8inch_TFT_Display.dir/E_/Pi_Pico/pico-sdk/src/rp2_common/hardware_clocks/clocks.c.obj
 .rodata.__func__.1
                0x1000fc40       0x10 CMakeFiles/1.8inch_TFT_Display.dir/E_/Pi_Pico/pico-sdk/src/rp2_common/hardware_clocks/clocks.c.obj
 .rodata.pll_init.str1.4
                0x1000fc50       0xd3 CMakeFiles/1.8inch_TFT_Display.dir/E_/Pi_Pico/pico-sdk/src/rp2_common/hardware_pll/pll.c.obj
 *fill*         0x1000fd23        0x1 
 .rodata.__func__.0
                0x1000fd24        0x9 CMakeFiles/1.8inch_TFT_Display.dir/E_/Pi_Pico/pico-sdk/src/rp2_common/hardware_pll/pll.c.obj
 *fill*         0x1000fd2d        0x3 
 .rodata.make_branch.str1.4
                0x1000fd30       0x46 CMakeFiles/1.8inch_TFT_Display.dir/E_/Pi_Pico/pico-sdk/src/rp2_common/hardware_irq/irq.c.obj
 *fill*         0x1000fd76        0x2 
 .rodata.irq_set_exclusive_handler.str1.4
                0x1000fd78       0x36 CMakeFiles/1.8inch_TFT_Display.dir/E_/Pi_Pico/pico-sdk/src/rp2_common/hardware_irq/irq.c.obj
 *fill*         0x1000fdae        0x2 
 .rodata.irq_add_shared_handler.str1.4
                0x1000fdb0       0xd9 CMakeFiles/1.8inch_TFT_Display.dir/E_/Pi_Pico/pico-sdk/src/rp2_common/hardware_irq/irq.c.obj
 *fill*         0x1000fe89        0x3 
 .rodata.irq_remove_handler.str1.4
                0x1000fe8c       0x2a CMakeFiles/1.8inch_TFT_Display.dir/E_/Pi_Pico/pico-sdk/src/rp2_common/hardware_irq/irq.c.obj
 *fill*         0x1000feb6        0x2 
 .rodata.irq_add_tail_to_free_list.str1.4
                0x1000feb8       0x32 CMakeFiles/1.8inch_TFT_Display.dir/E_/Pi_Pico/pico-sdk/src/rp2_common/hardware_irq/irq.c.obj
                                 0x3a (size before relaxing)
 *fill*         0x1000feea        0x2 
 .rodata.__func__.0
                0x1000feec       0x1a CMakeFiles/1.8inch_TFT_Display.dir/E_/Pi_Pico/pico-sdk/src/rp2_common/hardware_irq/irq.c.obj
 *fill*         0x1000ff06        0x2 
 .rodata.__func__.1
                0x1000ff08       0x17 CMakeFiles/1.8inch_TFT_Display.dir/E_/Pi_Pico/pico-sdk/src/rp2_common/hardware_irq/irq.c.obj
 *fill*         0x1000ff1f        0x1 
 .rodata.__func__.2
                0x1000ff20       0x13 CMakeFiles/1.8inch_TFT_Display.dir/E_/Pi_Pico/pico-sdk/src/rp2_common/hardware_irq/irq.c.obj
 *fill*         0x1000ff33        0x1 
 .rodata.__func__.3
                0x1000ff34        0xc CMakeFiles/1.8inch_TFT_Display.dir/E_/Pi_Pico/pico-sdk/src/rp2_common/hardware_irq/irq.c.obj
 .rodata.__func__.4
                0x1000ff40        0xf CMakeFiles/1.8inch_TFT_Display.dir/E_/Pi_Pico/pico-sdk/src/rp2_common/hardware_irq/irq.c.obj
 *fill*         0x1000ff4f        0x1 
 .rodata.__func__.6
                0x1000ff50       0x1a CMakeFiles/1.8inch_TFT_Display.dir/E_/Pi_Pico/pico-sdk/src/rp2_common/hardware_irq/irq.c.obj
 *fill*         0x1000ff6a        0x2 
 .rodata._ftoa.str1.4
                0x1000ff6c       0x15 CMakeFiles/1.8inch_TFT_Display.dir/E_/Pi_Pico/pico-sdk/src/rp2_common/pico_printf/printf.c.obj
 *fill*         0x1000ff81        0x3 
 .rodata._vsnprintf
                0x1000ff84      0x1e0 CMakeFiles/1.8inch_TFT_Display.dir/E_/Pi_Pico/pico-sdk/src/rp2_common/pico_printf/printf.c.obj
 *fill*         0x10010164        0x4 
 .rodata.pow10.0
                0x10010168       0x50 CMakeFiles/1.8inch_TFT_Display.dir/E_/Pi_Pico/pico-sdk/src/rp2_common/pico_printf/printf.c.obj
 .rodata.__aeabi_double_init.str1.4
                0x100101b8       0xa1 CMakeFiles/1.8inch_TFT_Display.dir/E_/Pi_Pico/pico-sdk/src/rp2_common/pico_double/double_init_rom.c.obj
 *fill*         0x10010259        0x3 
 .rodata.__func__.0
                0x1001025c       0x14 CMakeFiles/1.8inch_TFT_Display.dir/E_/Pi_Pico/pico-sdk/src/rp2_common/pico_double/double_init_rom.c.obj
 .rodata.__aeabi_float_init.str1.4
                0x10010270       0x73 CMakeFiles/1.8inch_TFT_Display.dir/E_/Pi_Pico/pico-sdk/src/rp2_common/pico_float/float_init_rom.c.obj
                                 0x77 (size before relaxing)
 *fill*         0x100102e3        0x1 
 .rodata.__func__.0
                0x100102e4       0x13 CMakeFiles/1.8inch_TFT_Display.dir/E_/Pi_Pico/pico-sdk/src/rp2_common/pico_float/float_init_rom.c.obj
 *fill*         0x100102f7        0x1 
 .rodata.str1.4
                0x100102f8       0x38 CMakeFiles/1.8inch_TFT_Display.dir/E_/Pi_Pico/pico-sdk/src/rp2_common/pico_standard_link/binary_info.c.obj
 .rodata.__bi_40
                0x10010330        0xc CMakeFiles/1.8inch_TFT_Display.dir/E_/Pi_Pico/pico-sdk/src/rp2_common/pico_standard_link/binary_info.c.obj
 .rodata.__bi_71
                0x1001033c        0xc CMakeFiles/1.8inch_TFT_Display.dir/E_/Pi_Pico/pico-sdk/src/rp2_common/pico_standard_link/binary_info.c.obj
 .rodata.crlf_str.1
                0x10010348        0x2 CMakeFiles/1.8inch_TFT_Display.dir/E_/Pi_Pico/pico-sdk/src/rp2_common/pico_stdio/stdio.c.obj
 *fill*         0x1001034a        0x2 
 .rodata.str1.4
                0x1001034c       0x13 CMakeFiles/1.8inch_TFT_Display.dir/E_/Pi_Pico/pico-sdk/src/rp2_common/pico_stdio_usb/stdio_usb.c.obj
 *fill*         0x1001035f        0x1 
 .rodata.__bi_93.0
                0x10010360        0xc CMakeFiles/1.8inch_TFT_Display.dir/E_/Pi_Pico/pico-sdk/src/rp2_common/pico_stdio_usb/stdio_usb.c.obj
 .rodata.str1.4
                0x1001036c       0x32 CMakeFiles/1.8inch_TFT_Display.dir/E_/Pi_Pico/pico-sdk/src/rp2_common/pico_stdio_usb/stdio_usb_descriptors.c.obj
 *fill*         0x1001039e        0x2 
 .rodata.usbd_desc_cfg
                0x100103a0       0x4b CMakeFiles/1.8inch_TFT_Display.dir/E_/Pi_Pico/pico-sdk/src/rp2_common/pico_stdio_usb/stdio_usb_descriptors.c.obj
 *fill*         0x100103eb        0x1 
 .rodata.usbd_desc_device
                0x100103ec       0x12 CMakeFiles/1.8inch_TFT_Display.dir/E_/Pi_Pico/pico-sdk/src/rp2_common/pico_stdio_usb/stdio_usb_descriptors.c.obj
 *fill*         0x100103fe        0x2 
 .rodata.usbd_desc_str
                0x10010400       0x14 CMakeFiles/1.8inch_TFT_Display.dir/E_/Pi_Pico/pico-sdk/src/rp2_common/pico_stdio_usb/stdio_usb_descriptors.c.obj
 .rodata._hw_endpoint_alloc.str1.4
                0x10010414       0xb1 CMakeFiles/1.8inch_TFT_Display.dir/E_/Pi_Pico/pico-sdk/lib/tinyusb/src/portable/raspberrypi/rp2040/dcd_rp2040.c.obj
 *fill*         0x100104c5        0x3 
 .rodata._hw_endpoint_init.str1.4
                0x100104c8       0x28 CMakeFiles/1.8inch_TFT_Display.dir/E_/Pi_Pico/pico-sdk/lib/tinyusb/src/portable/raspberrypi/rp2040/dcd_rp2040.c.obj
 .rodata.hw_handle_buff_status.str1.4
                0x100104f0        0xb CMakeFiles/1.8inch_TFT_Display.dir/E_/Pi_Pico/pico-sdk/lib/tinyusb/src/portable/raspberrypi/rp2040/dcd_rp2040.c.obj
 *fill*         0x100104fb        0x1 
 .rodata.dcd_rp2040_irq.str1.4
                0x100104fc       0x14 CMakeFiles/1.8inch_TFT_Display.dir/E_/Pi_Pico/pico-sdk/lib/tinyusb/src/portable/raspberrypi/rp2040/dcd_rp2040.c.obj
 .rodata._hw_endpoint_stall.str1.4
                0x10010510        0xd CMakeFiles/1.8inch_TFT_Display.dir/E_/Pi_Pico/pico-sdk/lib/tinyusb/src/portable/raspberrypi/rp2040/dcd_rp2040.c.obj
 *fill*         0x1001051d        0x3 
 .rodata.dcd_int_enable.str1.4
                0x10010520        0xc CMakeFiles/1.8inch_TFT_Display.dir/E_/Pi_Pico/pico-sdk/lib/tinyusb/src/portable/raspberrypi/rp2040/dcd_rp2040.c.obj
 .rodata.__func__.0
                0x1001052c       0x15 CMakeFiles/1.8inch_TFT_Display.dir/E_/Pi_Pico/pico-sdk/lib/tinyusb/src/portable/raspberrypi/rp2040/dcd_rp2040.c.obj
 *fill*         0x10010541        0x3 
 .rodata.__func__.1
                0x10010544       0x13 CMakeFiles/1.8inch_TFT_Display.dir/E_/Pi_Pico/pico-sdk/lib/tinyusb/src/portable/raspberrypi/rp2040/dcd_rp2040.c.obj
 *fill*         0x10010557        0x1 
 .rodata.__func__.10
                0x10010558        0xf CMakeFiles/1.8inch_TFT_Display.dir/E_/Pi_Pico/pico-sdk/lib/tinyusb/src/portable/raspberrypi/rp2040/dcd_rp2040.c.obj
 *fill*         0x10010567        0x1 
 .rodata.__func__.11
                0x10010568       0x13 CMakeFiles/1.8inch_TFT_Display.dir/E_/Pi_Pico/pico-sdk/lib/tinyusb/src/portable/raspberrypi/rp2040/dcd_rp2040.c.obj
 *fill*         0x1001057b        0x1 
 .rodata.__func__.12
                0x1001057c       0x16 CMakeFiles/1.8inch_TFT_Display.dir/E_/Pi_Pico/pico-sdk/lib/tinyusb/src/portable/raspberrypi/rp2040/dcd_rp2040.c.obj
 *fill*         0x10010592        0x2 
 .rodata.__func__.13
                0x10010594        0x9 CMakeFiles/1.8inch_TFT_Display.dir/E_/Pi_Pico/pico-sdk/lib/tinyusb/src/portable/raspberrypi/rp2040/dcd_rp2040.c.obj
 *fill*         0x1001059d        0x3 
 .rodata.__func__.2
                0x100105a0        0xf CMakeFiles/1.8inch_TFT_Display.dir/E_/Pi_Pico/pico-sdk/lib/tinyusb/src/portable/raspberrypi/rp2040/dcd_rp2040.c.obj
 *fill*         0x100105af        0x1 
 .rodata.__func__.3
                0x100105b0        0xe CMakeFiles/1.8inch_TFT_Display.dir/E_/Pi_Pico/pico-sdk/lib/tinyusb/src/portable/raspberrypi/rp2040/dcd_rp2040.c.obj
 *fill*         0x100105be        0x2 
 .rodata.__func__.4
                0x100105c0        0xe CMakeFiles/1.8inch_TFT_Display.dir/E_/Pi_Pico/pico-sdk/lib/tinyusb/src/portable/raspberrypi/rp2040/dcd_rp2040.c.obj
 *fill*         0x100105ce        0x2 
 .rodata.__func__.5
                0x100105d0       0x1a CMakeFiles/1.8inch_TFT_Display.dir/E_/Pi_Pico/pico-sdk/lib/tinyusb/src/portable/raspberrypi/rp2040/dcd_rp2040.c.obj
 *fill*         0x100105ea        0x2 
 .rodata.__func__.6
                0x100105ec        0xc CMakeFiles/1.8inch_TFT_Display.dir/E_/Pi_Pico/pico-sdk/lib/tinyusb/src/portable/raspberrypi/rp2040/dcd_rp2040.c.obj
 .rodata.__func__.8
                0x100105f8       0x10 CMakeFiles/1.8inch_TFT_Display.dir/E_/Pi_Pico/pico-sdk/lib/tinyusb/src/portable/raspberrypi/rp2040/dcd_rp2040.c.obj
 .rodata._hw_endpoint_buffer_control_update32.str1.4
                0x10010608       0x1f CMakeFiles/1.8inch_TFT_Display.dir/E_/Pi_Pico/pico-sdk/lib/tinyusb/src/portable/raspberrypi/rp2040/rp2040_usb.c.obj
 *fill*         0x10010627        0x1 
 .rodata._hw_endpoint_xfer_sync.str1.4
                0x10010628       0x8d CMakeFiles/1.8inch_TFT_Display.dir/E_/Pi_Pico/pico-sdk/lib/tinyusb/src/portable/raspberrypi/rp2040/rp2040_usb.c.obj
 *fill*         0x100106b5        0x3 
 .rodata._hw_endpoint_xfer_continue.str1.4
                0x100106b8       0x50 CMakeFiles/1.8inch_TFT_Display.dir/E_/Pi_Pico/pico-sdk/lib/tinyusb/src/portable/raspberrypi/rp2040/rp2040_usb.c.obj
 .rodata._hw_endpoint_xfer.str1.4
                0x10010708        0xf CMakeFiles/1.8inch_TFT_Display.dir/E_/Pi_Pico/pico-sdk/lib/tinyusb/src/portable/raspberrypi/rp2040/rp2040_usb.c.obj
 *fill*         0x10010717        0x1 
 .rodata.str1.4
                0x10010718        0x7 CMakeFiles/1.8inch_TFT_Display.dir/E_/Pi_Pico/pico-sdk/lib/tinyusb/src/portable/raspberrypi/rp2040/rp2040_usb.c.obj
 *fill*         0x1001071f        0x1 
 .rodata.__func__.0
                0x10010720       0x12 CMakeFiles/1.8inch_TFT_Display.dir/E_/Pi_Pico/pico-sdk/lib/tinyusb/src/portable/raspberrypi/rp2040/rp2040_usb.c.obj
 *fill*         0x10010732        0x2 
 .rodata.__func__.1
                0x10010734       0x17 CMakeFiles/1.8inch_TFT_Display.dir/E_/Pi_Pico/pico-sdk/lib/tinyusb/src/portable/raspberrypi/rp2040/rp2040_usb.c.obj
 *fill*         0x1001074b        0x1 
 .rodata.process_set_config.str1.4
                0x1001074c       0x17 CMakeFiles/1.8inch_TFT_Display.dir/E_/Pi_Pico/pico-sdk/lib/tinyusb/src/device/usbd.c.obj
 *fill*         0x10010763        0x1 
 .rodata.process_get_descriptor
                0x10010764       0x40 CMakeFiles/1.8inch_TFT_Display.dir/E_/Pi_Pico/pico-sdk/lib/tinyusb/src/device/usbd.c.obj
 .rodata.dcd_event_handler.str1.4
                0x100107a4       0x45 CMakeFiles/1.8inch_TFT_Display.dir/E_/Pi_Pico/pico-sdk/lib/tinyusb/src/device/usbd.c.obj
 *fill*         0x100107e9        0x3 
 .rodata.process_control_request
                0x100107ec       0x28 CMakeFiles/1.8inch_TFT_Display.dir/E_/Pi_Pico/pico-sdk/lib/tinyusb/src/device/usbd.c.obj
 .rodata.tud_task
                0x10010814       0x24 CMakeFiles/1.8inch_TFT_Display.dir/E_/Pi_Pico/pico-sdk/lib/tinyusb/src/device/usbd.c.obj
 .rodata.__func__.1
                0x10010838        0xf CMakeFiles/1.8inch_TFT_Display.dir/E_/Pi_Pico/pico-sdk/lib/tinyusb/src/device/usbd.c.obj
 *fill*         0x10010847        0x1 
 .rodata.__func__.2
                0x10010848       0x14 CMakeFiles/1.8inch_TFT_Display.dir/E_/Pi_Pico/pico-sdk/lib/tinyusb/src/device/usbd.c.obj
 .rodata.__func__.3
                0x1001085c       0x10 CMakeFiles/1.8inch_TFT_Display.dir/E_/Pi_Pico/pico-sdk/lib/tinyusb/src/device/usbd.c.obj
 .rodata.__func__.4
                0x1001086c       0x17 CMakeFiles/1.8inch_TFT_Display.dir/E_/Pi_Pico/pico-sdk/lib/tinyusb/src/device/usbd.c.obj
 *fill*         0x10010883        0x1 
 .rodata.__func__.5
                0x10010884       0x13 CMakeFiles/1.8inch_TFT_Display.dir/E_/Pi_Pico/pico-sdk/lib/tinyusb/src/device/usbd.c.obj
 *fill*         0x10010897        0x1 
 .rodata.__func__.6
                0x10010898       0x18 CMakeFiles/1.8inch_TFT_Display.dir/E_/Pi_Pico/pico-sdk/lib/tinyusb/src/device/usbd.c.obj
 .rodata.__func__.7
                0x100108b0       0x13 CMakeFiles/1.8inch_TFT_Display.dir/E_/Pi_Pico/pico-sdk/lib/tinyusb/src/device/usbd.c.obj
 *fill*         0x100108c3        0x1 
 .rodata.__func__.8
                0x100108c4        0x9 CMakeFiles/1.8inch_TFT_Display.dir/E_/Pi_Pico/pico-sdk/lib/tinyusb/src/device/usbd.c.obj
 *fill*         0x100108cd        0x3 
 .rodata._usbd_driver
                0x100108d0       0x1c CMakeFiles/1.8inch_TFT_Display.dir/E_/Pi_Pico/pico-sdk/lib/tinyusb/src/device/usbd.c.obj
 .rodata.tud_control_xfer.str1.4
                0x100108ec       0x17 CMakeFiles/1.8inch_TFT_Display.dir/E_/Pi_Pico/pico-sdk/lib/tinyusb/src/device/usbd_control.c.obj
 .rodata.__func__.0
                0x100108ec       0x15 CMakeFiles/1.8inch_TFT_Display.dir/E_/Pi_Pico/pico-sdk/lib/tinyusb/src/device/usbd_control.c.obj
 *fill*         0x10010901        0x3 
 .rodata.__func__.1
                0x10010904       0x11 CMakeFiles/1.8inch_TFT_Display.dir/E_/Pi_Pico/pico-sdk/lib/tinyusb/src/device/usbd_control.c.obj
 .rodata.tud_cdc_n_write_flush.str1.4
                0x10010915       0x17 CMakeFiles/1.8inch_TFT_Display.dir/E_/Pi_Pico/pico-sdk/lib/tinyusb/src/class/cdc/cdc_device.c.obj
 *fill*         0x10010915        0x3 
 .rodata.__func__.0
                0x10010918        0xd CMakeFiles/1.8inch_TFT_Display.dir/E_/Pi_Pico/pico-sdk/lib/tinyusb/src/class/cdc/cdc_device.c.obj
 *fill*         0x10010925        0x3 
 .rodata.__func__.1
                0x10010928        0xa CMakeFiles/1.8inch_TFT_Display.dir/E_/Pi_Pico/pico-sdk/lib/tinyusb/src/class/cdc/cdc_device.c.obj
 *fill*         0x10010932        0x2 
 .rodata.__func__.2
                0x10010934       0x16 CMakeFiles/1.8inch_TFT_Display.dir/E_/Pi_Pico/pico-sdk/lib/tinyusb/src/class/cdc/cdc_device.c.obj
 .rodata.tusb_init.str1.4
                0x1001094a       0x17 CMakeFiles/1.8inch_TFT_Display.dir/E_/Pi_Pico/pico-sdk/lib/tinyusb/src/tusb.c.obj
 *fill*         0x1001094a        0x2 
 .rodata.__func__.0
                0x1001094c        0xa CMakeFiles/1.8inch_TFT_Display.dir/E_/Pi_Pico/pico-sdk/lib/tinyusb/src/tusb.c.obj
                0x10010958                . = ALIGN (0x4)
 *fill*         0x10010956        0x2 
 *(SORT_BY_ALIGNMENT(SORT_BY_NAME(.flashdata*)))
                0x10010958                . = ALIGN (0x4)

.rel.dyn        0x10010958        0x0
 .rel.iplt      0x10010958        0x0 c:/progra~2/gnuarm~1/102020~1/bin/../lib/gcc/arm-none-eabi/10.2.1/thumb/v6-m/nofp/crtbegin.o

.ARM.extab
 *(.ARM.extab* .gnu.linkonce.armextab.*)
                0x10010958                __exidx_start = .

.ARM.exidx
 *(.ARM.exidx* .gnu.linkonce.armexidx.*)
                0x10010958                __exidx_end = .
                0x10010958                . = ALIGN (0x4)
                0x10010958                __binary_info_start = .

.binary_info    0x10010958       0x1c
 *(.binary_info.keep.*)
 .binary_info.keep.__bi_ptr18
                0x10010958        0x4 CMakeFiles/1.8inch_TFT_Display.dir/E_/Pi_Pico/pico-sdk/src/rp2_common/pico_standard_link/binary_info.c.obj
 .binary_info.keep.__bi_ptr26
                0x1001095c        0x4 CMakeFiles/1.8inch_TFT_Display.dir/E_/Pi_Pico/pico-sdk/src/rp2_common/pico_standard_link/binary_info.c.obj
 .binary_info.keep.__bi_ptr34
                0x10010960        0x4 CMakeFiles/1.8inch_TFT_Display.dir/E_/Pi_Pico/pico-sdk/src/rp2_common/pico_standard_link/binary_info.c.obj
 .binary_info.keep.__bi_ptr40
                0x10010964        0x4 CMakeFiles/1.8inch_TFT_Display.dir/E_/Pi_Pico/pico-sdk/src/rp2_common/pico_standard_link/binary_info.c.obj
 .binary_info.keep.__bi_ptr46
                0x10010968        0x4 CMakeFiles/1.8inch_TFT_Display.dir/E_/Pi_Pico/pico-sdk/src/rp2_common/pico_standard_link/binary_info.c.obj
 .binary_info.keep.__bi_ptr71
                0x1001096c        0x4 CMakeFiles/1.8inch_TFT_Display.dir/E_/Pi_Pico/pico-sdk/src/rp2_common/pico_standard_link/binary_info.c.obj
 *(.binary_info.*)
 .binary_info.__bi_ptr93
                0x10010970        0x4 CMakeFiles/1.8inch_TFT_Display.dir/E_/Pi_Pico/pico-sdk/src/rp2_common/pico_stdio_usb/stdio_usb.c.obj
                0x10010974                __binary_info_end = .
                0x10010974                . = ALIGN (0x4)
                0x10010974                __etext = .

.ram_vector_table
                0x20000000       0xc0
 *(.ram_vector_table)
 .ram_vector_table
                0x20000000       0xc0 CMakeFiles/1.8inch_TFT_Display.dir/E_/Pi_Pico/pico-sdk/src/rp2_common/pico_runtime/runtime.c.obj
                0x20000000                ram_vector_table

.data           0x200000c0      0xb54 load address 0x10010974
                0x200000c0                __data_start__ = .
 *(vtable)
 *(.time_critical*)
 .time_critical.mutex_enter_blocking
                0x200000c0       0x64 CMakeFiles/1.8inch_TFT_Display.dir/E_/Pi_Pico/pico-sdk/src/common/pico_sync/mutex.c.obj
                0x200000c0                mutex_enter_blocking
 .time_critical.mutex_try_enter
                0x20000124       0x44 CMakeFiles/1.8inch_TFT_Display.dir/E_/Pi_Pico/pico-sdk/src/common/pico_sync/mutex.c.obj
                0x20000124                mutex_try_enter
 .time_critical.mutex_enter_block_until
                0x20000168       0x78 CMakeFiles/1.8inch_TFT_Display.dir/E_/Pi_Pico/pico-sdk/src/common/pico_sync/mutex.c.obj
                0x20000168                mutex_enter_block_until
 .time_critical.mutex_enter_timeout_ms
                0x200001e0       0x4a CMakeFiles/1.8inch_TFT_Display.dir/E_/Pi_Pico/pico-sdk/src/common/pico_sync/mutex.c.obj
                0x200001e0                mutex_enter_timeout_ms
 *fill*         0x2000022a        0x2 
 .time_critical.mutex_exit
                0x2000022c       0x4c CMakeFiles/1.8inch_TFT_Display.dir/E_/Pi_Pico/pico-sdk/src/common/pico_sync/mutex.c.obj
                0x2000022c                mutex_exit
 .time_critical.spi_write_blocking
                0x20000278       0x3a CMakeFiles/1.8inch_TFT_Display.dir/E_/Pi_Pico/pico-sdk/src/rp2_common/hardware_spi/spi.c.obj
                0x20000278                spi_write_blocking
 *(.text*)
 *fill*         0x200002b2        0x2 
 .text          0x200002b4        0x4 c:/progra~2/gnuarm~1/102020~1/bin/../lib/gcc/arm-none-eabi/10.2.1/thumb/v6-m/nofp\libgcc.a(_dvmd_tls.o)
                0x200002b4                __aeabi_idiv0
                0x200002b4                __aeabi_ldiv0
 .text.__stub   0x200002b8       0x40 linker stubs
                0x200002f8                . = ALIGN (0x4)
 *(.rodata*)
                0x200002f8                . = ALIGN (0x4)
 *(.data*)
 .data._height  0x200002f8        0x2 CMakeFiles/1.8inch_TFT_Display.dir/src/st7735.c.obj
 .data._width   0x200002fa        0x2 CMakeFiles/1.8inch_TFT_Display.dir/src/st7735.c.obj
 .data.Font_11x18
                0x200002fc        0x8 CMakeFiles/1.8inch_TFT_Display.dir/src/fonts.c.obj
                0x200002fc                Font_11x18
 .data.Font_16x26
                0x20000304        0x8 CMakeFiles/1.8inch_TFT_Display.dir/src/fonts.c.obj
                0x20000304                Font_16x26
 .data.Font_7x10
                0x2000030c        0x8 CMakeFiles/1.8inch_TFT_Display.dir/src/fonts.c.obj
                0x2000030c                Font_7x10
 .data.striped_spin_lock_num
                0x20000314        0x1 CMakeFiles/1.8inch_TFT_Display.dir/E_/Pi_Pico/pico-sdk/src/rp2_common/hardware_sync/sync.c.obj
 *fill*         0x20000315        0x3 
 .data          0x20000318       0x48 CMakeFiles/1.8inch_TFT_Display.dir/E_/Pi_Pico/pico-sdk/src/rp2_common/hardware_irq/irq_handler_chain.S.obj
                0x20000318                irq_handler_chain_slots
                0x20000348                irq_handler_chain_first_slot
                0x20000352                irq_handler_chain_remove_tail
 .data.aeabi_bits_funcs
                0x20000360       0x10 CMakeFiles/1.8inch_TFT_Display.dir/E_/Pi_Pico/pico-sdk/src/rp2_common/pico_bit_ops/bit_ops_aeabi.S.obj
                0x20000360                aeabi_bits_funcs
                0x20000370                aeabi_bits_funcs_end
 .data.aeabi_mem_funcs
                0x20000370       0x10 CMakeFiles/1.8inch_TFT_Display.dir/E_/Pi_Pico/pico-sdk/src/rp2_common/pico_mem_ops/mem_ops_aeabi.S.obj
                0x20000370                aeabi_mem_funcs
                0x20000380                aeabi_mem_funcs_end
 .data.stdio_usb
                0x20000380       0x14 CMakeFiles/1.8inch_TFT_Display.dir/E_/Pi_Pico/pico-sdk/src/rp2_common/pico_stdio_usb/stdio_usb.c.obj
                0x20000380                stdio_usb
 .data.ep_dir_string
                0x20000394        0x8 CMakeFiles/1.8inch_TFT_Display.dir/E_/Pi_Pico/pico-sdk/lib/tinyusb/src/portable/raspberrypi/rp2040/rp2040_usb.c.obj
                0x20000394                ep_dir_string
 .data._usbd_qdef
                0x2000039c       0x20 CMakeFiles/1.8inch_TFT_Display.dir/E_/Pi_Pico/pico-sdk/lib/tinyusb/src/device/usbd.c.obj
                0x2000039c                _usbd_qdef
 .data._impure_ptr
                0x200003bc        0x4 c:/progra~2/gnuarm~1/102020~1/bin/../lib/gcc/arm-none-eabi/10.2.1/../../../../arm-none-eabi/lib/thumb/v6-m/nofp\libg.a(lib_a-impure.o)
                0x200003bc                _impure_ptr
 .data.impure_data
                0x200003c0      0x428 c:/progra~2/gnuarm~1/102020~1/bin/../lib/gcc/arm-none-eabi/10.2.1/../../../../arm-none-eabi/lib/thumb/v6-m/nofp\libg.a(lib_a-impure.o)
 .data.__malloc_av_
                0x200007e8      0x408 c:/progra~2/gnuarm~1/102020~1/bin/../lib/gcc/arm-none-eabi/10.2.1/../../../../arm-none-eabi/lib/thumb/v6-m/nofp\libg.a(lib_a-mallocr.o)
                0x200007e8                __malloc_av_
 .data.__malloc_sbrk_base
                0x20000bf0        0x4 c:/progra~2/gnuarm~1/102020~1/bin/../lib/gcc/arm-none-eabi/10.2.1/../../../../arm-none-eabi/lib/thumb/v6-m/nofp\libg.a(lib_a-mallocr.o)
                0x20000bf0                __malloc_sbrk_base
 .data.__malloc_trim_threshold
                0x20000bf4        0x4 c:/progra~2/gnuarm~1/102020~1/bin/../lib/gcc/arm-none-eabi/10.2.1/../../../../arm-none-eabi/lib/thumb/v6-m/nofp\libg.a(lib_a-mallocr.o)
                0x20000bf4                __malloc_trim_threshold
                0x20000bf8                . = ALIGN (0x4)
 *(.after_data.*)
                0x20000bf8                . = ALIGN (0x4)
                0x20000bf8                PROVIDE (__mutex_array_start = .)
 *(SORT_BY_NAME(.mutex_array.*))
 *(.mutex_array)
 .mutex_array   0x20000bf8        0x8 CMakeFiles/1.8inch_TFT_Display.dir/E_/Pi_Pico/pico-sdk/src/rp2_common/pico_stdio/stdio.c.obj
                0x20000c00                PROVIDE (__mutex_array_end = .)
                0x20000c00                . = ALIGN (0x4)
                0x20000c00                PROVIDE (__preinit_array_start = .)
 *(SORT_BY_NAME(.preinit_array.*))
 .preinit_array.00001
                0x20000c00        0x4 CMakeFiles/1.8inch_TFT_Display.dir/E_/Pi_Pico/pico-sdk/src/rp2_common/pico_mem_ops/mem_ops_aeabi.S.obj
 .preinit_array.00010
                0x20000c04        0x4 CMakeFiles/1.8inch_TFT_Display.dir/E_/Pi_Pico/pico-sdk/src/rp2_common/pico_bit_ops/bit_ops_aeabi.S.obj
 .preinit_array.00020
                0x20000c08        0x4 CMakeFiles/1.8inch_TFT_Display.dir/E_/Pi_Pico/pico-sdk/src/rp2_common/pico_double/double_aeabi.S.obj
 .preinit_array.00020
                0x20000c0c        0x4 CMakeFiles/1.8inch_TFT_Display.dir/E_/Pi_Pico/pico-sdk/src/rp2_common/pico_float/float_aeabi.S.obj
 *(.preinit_array)
                0x20000c10                PROVIDE (__preinit_array_end = .)
                0x20000c10                . = ALIGN (0x4)
                0x20000c10                PROVIDE (__init_array_start = .)
 *(SORT_BY_NAME(.init_array.*))
 *(.init_array)
 .init_array    0x20000c10        0x4 c:/progra~2/gnuarm~1/102020~1/bin/../lib/gcc/arm-none-eabi/10.2.1/thumb/v6-m/nofp/crtbegin.o
                0x20000c14                PROVIDE (__init_array_end = .)
                0x20000c14                . = ALIGN (0x4)
                [!provide]                PROVIDE (__fini_array_start = .)
 *(SORT_BY_NAME(.fini_array.*))
 *(.fini_array)
                [!provide]                PROVIDE (__fini_array_end = .)
 *(.jcr)
                0x20000c14                . = ALIGN (0x4)
                0x20000c14                __data_end__ = .

.igot.plt       0x20000c14        0x0 load address 0x100114c8
 .igot.plt      0x20000c14        0x0 c:/progra~2/gnuarm~1/102020~1/bin/../lib/gcc/arm-none-eabi/10.2.1/thumb/v6-m/nofp/crtbegin.o

.uninitialized_data
                0x20000c14        0x0 load address 0x100114c8
                0x20000c14                . = ALIGN (0x4)
 *(.uninitialized_data*)

.scratch_x      0x20040000        0x0 load address 0x100114c8
                0x20040000                __scratch_x_start__ = .
 *(.scratch_x.*)
                0x20040000                . = ALIGN (0x4)
                0x20040000                __scratch_x_end__ = .
                0x100114c8                __scratch_x_source__ = LOADADDR (.scratch_x)

.scratch_y      0x20041000        0x0 load address 0x100114c8
                0x20041000                __scratch_y_start__ = .
 *(.scratch_y.*)
                0x20041000                . = ALIGN (0x4)
                0x20041000                __scratch_y_end__ = .
                0x100114c8                __scratch_y_source__ = LOADADDR (.scratch_y)

.bss            0x20000c18      0xdc0
                0x20000c18                . = ALIGN (0x4)
                0x20000c18                __bss_start__ = .
 *(SORT_BY_ALIGNMENT(SORT_BY_NAME(.bss*)))
 .bss.last_avail_time.1
                0x20000c18        0x8 CMakeFiles/1.8inch_TFT_Display.dir/E_/Pi_Pico/pico-sdk/src/rp2_common/pico_stdio_usb/stdio_usb.c.obj
 .bss           0x20000c20       0x1c c:/progra~2/gnuarm~1/102020~1/bin/../lib/gcc/arm-none-eabi/10.2.1/thumb/v6-m/nofp/crtbegin.o
 .bss.__lock___malloc_recursive_mutex
                0x20000c3c        0x1 c:/progra~2/gnuarm~1/102020~1/bin/../lib/gcc/arm-none-eabi/10.2.1/../../../../arm-none-eabi/lib/thumb/v6-m/nofp\libg.a(lib_a-lock.o)
                0x20000c3c                __lock___malloc_recursive_mutex
 *fill*         0x20000c3d        0x3 
 .bss.__malloc_current_mallinfo
                0x20000c40       0x28 c:/progra~2/gnuarm~1/102020~1/bin/../lib/gcc/arm-none-eabi/10.2.1/../../../../arm-none-eabi/lib/thumb/v6-m/nofp\libg.a(lib_a-mallocr.o)
                0x20000c40                __malloc_current_mallinfo
 .bss.__malloc_max_sbrked_mem
                0x20000c68        0x4 c:/progra~2/gnuarm~1/102020~1/bin/../lib/gcc/arm-none-eabi/10.2.1/../../../../arm-none-eabi/lib/thumb/v6-m/nofp\libg.a(lib_a-mallocr.o)
                0x20000c68                __malloc_max_sbrked_mem
 .bss.__malloc_max_total_mem
                0x20000c6c        0x4 c:/progra~2/gnuarm~1/102020~1/bin/../lib/gcc/arm-none-eabi/10.2.1/../../../../arm-none-eabi/lib/thumb/v6-m/nofp\libg.a(lib_a-mallocr.o)
                0x20000c6c                __malloc_max_total_mem
 .bss.__malloc_top_pad
                0x20000c70        0x4 c:/progra~2/gnuarm~1/102020~1/bin/../lib/gcc/arm-none-eabi/10.2.1/../../../../arm-none-eabi/lib/thumb/v6-m/nofp\libg.a(lib_a-mallocr.o)
                0x20000c70                __malloc_top_pad
 .bss._app_driver
                0x20000c74        0x4 CMakeFiles/1.8inch_TFT_Display.dir/E_/Pi_Pico/pico-sdk/lib/tinyusb/src/device/usbd.c.obj
 .bss._cdcd_itf
                0x20000c78      0x2d0 CMakeFiles/1.8inch_TFT_Display.dir/E_/Pi_Pico/pico-sdk/lib/tinyusb/src/class/cdc/cdc_device.c.obj
 .bss._ctrl_xfer
                0x20000f48       0x14 CMakeFiles/1.8inch_TFT_Display.dir/E_/Pi_Pico/pico-sdk/lib/tinyusb/src/device/usbd_control.c.obj
 .bss._ubsd_mutexdef
                0x20000f5c        0x8 CMakeFiles/1.8inch_TFT_Display.dir/E_/Pi_Pico/pico-sdk/lib/tinyusb/src/device/usbd.c.obj
 .bss._usbd_ctrl_buf
                0x20000f64       0x40 CMakeFiles/1.8inch_TFT_Display.dir/E_/Pi_Pico/pico-sdk/lib/tinyusb/src/device/usbd_control.c.obj
 .bss._usbd_dev
                0x20000fa4       0x37 CMakeFiles/1.8inch_TFT_Display.dir/E_/Pi_Pico/pico-sdk/lib/tinyusb/src/device/usbd.c.obj
 *fill*         0x20000fdb        0x1 
 .bss._usbd_mutex
                0x20000fdc        0x4 CMakeFiles/1.8inch_TFT_Display.dir/E_/Pi_Pico/pico-sdk/lib/tinyusb/src/device/usbd.c.obj
 .bss._usbd_q   0x20000fe0        0x4 CMakeFiles/1.8inch_TFT_Display.dir/E_/Pi_Pico/pico-sdk/lib/tinyusb/src/device/usbd.c.obj
 .bss._usbd_qdef_buf
                0x20000fe4       0xc0 CMakeFiles/1.8inch_TFT_Display.dir/E_/Pi_Pico/pico-sdk/lib/tinyusb/src/device/usbd.c.obj
                0x20000fe4                _usbd_qdef_buf
 .bss.alarm_callbacks
                0x200010a4       0x10 CMakeFiles/1.8inch_TFT_Display.dir/E_/Pi_Pico/pico-sdk/src/rp2_common/hardware_timer/timer.c.obj
 .bss.claimed   0x200010b4        0x4 CMakeFiles/1.8inch_TFT_Display.dir/E_/Pi_Pico/pico-sdk/src/rp2_common/hardware_sync/sync.c.obj
 .bss.configured_freq
                0x200010b8       0x28 CMakeFiles/1.8inch_TFT_Display.dir/E_/Pi_Pico/pico-sdk/src/rp2_common/hardware_clocks/clocks.c.obj
 .bss.default_alarm_pool
                0x200010e0        0x4 CMakeFiles/1.8inch_TFT_Display.dir/E_/Pi_Pico/pico-sdk/src/common/pico_time/time.c.obj
 .bss.desc_str.0
                0x200010e4       0x28 CMakeFiles/1.8inch_TFT_Display.dir/E_/Pi_Pico/pico-sdk/src/rp2_common/pico_stdio_usb/stdio_usb_descriptors.c.obj
 .bss.drivers   0x2000110c        0x4 CMakeFiles/1.8inch_TFT_Display.dir/E_/Pi_Pico/pico-sdk/src/rp2_common/pico_stdio/stdio.c.obj
 .bss.errno     0x20001110        0x4 c:/progra~2/gnuarm~1/102020~1/bin/../lib/gcc/arm-none-eabi/10.2.1/../../../../arm-none-eabi/lib/thumb/v6-m/nofp\libg.a(lib_a-reent.o)
                0x20001110                errno
 .bss.filter    0x20001114        0x4 CMakeFiles/1.8inch_TFT_Display.dir/E_/Pi_Pico/pico-sdk/src/rp2_common/pico_stdio/stdio.c.obj
 .bss.heap_end.0
                0x20001118        0x4 CMakeFiles/1.8inch_TFT_Display.dir/E_/Pi_Pico/pico-sdk/src/rp2_common/pico_runtime/runtime.c.obj
 .bss.hw_endpoints
                0x2000111c      0x680 CMakeFiles/1.8inch_TFT_Display.dir/E_/Pi_Pico/pico-sdk/lib/tinyusb/src/portable/raspberrypi/rp2040/dcd_rp2040.c.obj
 .bss.next_buffer_ptr
                0x2000179c        0x4 CMakeFiles/1.8inch_TFT_Display.dir/E_/Pi_Pico/pico-sdk/lib/tinyusb/src/portable/raspberrypi/rp2040/dcd_rp2040.c.obj
 .bss.pools     0x200017a0       0x10 CMakeFiles/1.8inch_TFT_Display.dir/E_/Pi_Pico/pico-sdk/src/common/pico_time/time.c.obj
 .bss.sd_table  0x200017b0      0x100 CMakeFiles/1.8inch_TFT_Display.dir/E_/Pi_Pico/pico-sdk/src/rp2_common/pico_double/double_init_rom.c.obj
                0x200017b0                sd_table
 .bss.sf_clz_func
                0x200018b0        0x4 CMakeFiles/1.8inch_TFT_Display.dir/E_/Pi_Pico/pico-sdk/src/rp2_common/pico_float/float_init_rom.c.obj
                0x200018b0                sf_clz_func
 .bss.sf_table  0x200018b4      0x100 CMakeFiles/1.8inch_TFT_Display.dir/E_/Pi_Pico/pico-sdk/src/rp2_common/pico_float/float_init_rom.c.obj
                0x200018b4                sf_table
 .bss.stdio_usb_mutex
                0x200019b4        0x8 CMakeFiles/1.8inch_TFT_Display.dir/E_/Pi_Pico/pico-sdk/src/rp2_common/pico_stdio_usb/stdio_usb.c.obj
 .bss.target_hi
                0x200019bc       0x10 CMakeFiles/1.8inch_TFT_Display.dir/E_/Pi_Pico/pico-sdk/src/rp2_common/hardware_timer/timer.c.obj
 .bss._app_driver_count
                0x200019cc        0x1 CMakeFiles/1.8inch_TFT_Display.dir/E_/Pi_Pico/pico-sdk/lib/tinyusb/src/device/usbd.c.obj
 .bss._initialized
                0x200019cd        0x1 CMakeFiles/1.8inch_TFT_Display.dir/E_/Pi_Pico/pico-sdk/lib/tinyusb/src/tusb.c.obj
 .bss._value_rotation
                0x200019ce        0x1 CMakeFiles/1.8inch_TFT_Display.dir/src/st7735.c.obj
 .bss._xstart   0x200019cf        0x1 CMakeFiles/1.8inch_TFT_Display.dir/src/st7735.c.obj
 .bss._ystart   0x200019d0        0x1 CMakeFiles/1.8inch_TFT_Display.dir/src/st7735.c.obj
 .bss.assigned_address
                0x200019d1        0x1 CMakeFiles/1.8inch_TFT_Display.dir/E_/Pi_Pico/pico-sdk/lib/tinyusb/src/portable/raspberrypi/rp2040/dcd_rp2040.c.obj
 .bss.claimed   0x200019d2        0x1 CMakeFiles/1.8inch_TFT_Display.dir/E_/Pi_Pico/pico-sdk/src/rp2_common/hardware_timer/timer.c.obj
 .bss.irq_hander_chain_free_slot_head
                0x200019d3        0x1 CMakeFiles/1.8inch_TFT_Display.dir/E_/Pi_Pico/pico-sdk/src/rp2_common/hardware_irq/irq.c.obj
 .bss.r         0x200019d4        0x1 CMakeFiles/1.8inch_TFT_Display.dir/src/main.c.obj
                0x200019d4                r
 .bss.timer_callbacks_pending
                0x200019d5        0x1 CMakeFiles/1.8inch_TFT_Display.dir/E_/Pi_Pico/pico-sdk/src/rp2_common/hardware_timer/timer.c.obj
 *(COMMON)
                0x200019d8                . = ALIGN (0x4)
 *fill*         0x200019d6        0x2 
                0x200019d8                __bss_end__ = .

.heap           0x200019d8      0x800
                0x200019d8                __end__ = .
                0x200019d8                end = __end__
 *(.heap*)
 .heap          0x200019d8      0x800 CMakeFiles/1.8inch_TFT_Display.dir/E_/Pi_Pico/pico-sdk/src/rp2_common/pico_standard_link/crt0.S.obj
                0x200021d8                __HeapLimit = .

.stack1_dummy   0x20040000        0x0
 *(.stack1*)

.stack_dummy    0x20041000      0x800
 *(.stack*)
 .stack         0x20041000      0x800 CMakeFiles/1.8inch_TFT_Display.dir/E_/Pi_Pico/pico-sdk/src/rp2_common/pico_standard_link/crt0.S.obj

.flash_end      0x100114c8        0x0
                0x100114c8                __flash_binary_end = .
                0x20040000                __StackLimit = (ORIGIN (RAM) + LENGTH (RAM))
                0x20041000                __StackOneTop = (ORIGIN (SCRATCH_X) + LENGTH (SCRATCH_X))
                0x20042000                __StackTop = (ORIGIN (SCRATCH_Y) + LENGTH (SCRATCH_Y))
                0x20041000                __StackOneBottom = (__StackOneTop - SIZEOF (.stack1_dummy))
                0x20041800                __StackBottom = (__StackTop - SIZEOF (.stack_dummy))
                0x20042000                PROVIDE (__stack = __StackTop)
                0x00000001                ASSERT ((__StackLimit >= __HeapLimit), region RAM overflowed)
                0x00000001                ASSERT (((__binary_info_header_end - __logical_binary_start) <= 0x100), Binary info must be in first 256 bytes of the binary)
LOAD CMakeFiles/1.8inch_TFT_Display.dir/src/main.c.obj
LOAD CMakeFiles/1.8inch_TFT_Display.dir/src/st7735.c.obj
LOAD CMakeFiles/1.8inch_TFT_Display.dir/src/fonts.c.obj
LOAD CMakeFiles/1.8inch_TFT_Display.dir/E_/Pi_Pico/pico-sdk/src/rp2_common/pico_stdlib/stdlib.c.obj
LOAD CMakeFiles/1.8inch_TFT_Display.dir/E_/Pi_Pico/pico-sdk/src/rp2_common/hardware_gpio/gpio.c.obj
LOAD CMakeFiles/1.8inch_TFT_Display.dir/E_/Pi_Pico/pico-sdk/src/rp2_common/hardware_claim/claim.c.obj
LOAD CMakeFiles/1.8inch_TFT_Display.dir/E_/Pi_Pico/pico-sdk/src/rp2_common/hardware_sync/sync.c.obj
LOAD CMakeFiles/1.8inch_TFT_Display.dir/E_/Pi_Pico/pico-sdk/src/rp2_common/pico_platform/platform.c.obj
LOAD CMakeFiles/1.8inch_TFT_Display.dir/E_/Pi_Pico/pico-sdk/src/rp2_common/hardware_uart/uart.c.obj
LOAD CMakeFiles/1.8inch_TFT_Display.dir/E_/Pi_Pico/pico-sdk/src/rp2_common/hardware_divider/divider.S.obj
LOAD CMakeFiles/1.8inch_TFT_Display.dir/E_/Pi_Pico/pico-sdk/src/common/pico_time/time.c.obj
LOAD CMakeFiles/1.8inch_TFT_Display.dir/E_/Pi_Pico/pico-sdk/src/common/pico_time/timeout_helper.c.obj
LOAD CMakeFiles/1.8inch_TFT_Display.dir/E_/Pi_Pico/pico-sdk/src/rp2_common/hardware_timer/timer.c.obj
LOAD CMakeFiles/1.8inch_TFT_Display.dir/E_/Pi_Pico/pico-sdk/src/common/pico_sync/sem.c.obj
LOAD CMakeFiles/1.8inch_TFT_Display.dir/E_/Pi_Pico/pico-sdk/src/common/pico_sync/lock_core.c.obj
LOAD CMakeFiles/1.8inch_TFT_Display.dir/E_/Pi_Pico/pico-sdk/src/common/pico_sync/mutex.c.obj
LOAD CMakeFiles/1.8inch_TFT_Display.dir/E_/Pi_Pico/pico-sdk/src/common/pico_sync/critical_section.c.obj
LOAD CMakeFiles/1.8inch_TFT_Display.dir/E_/Pi_Pico/pico-sdk/src/common/pico_util/datetime.c.obj
LOAD CMakeFiles/1.8inch_TFT_Display.dir/E_/Pi_Pico/pico-sdk/src/common/pico_util/pheap.c.obj
LOAD CMakeFiles/1.8inch_TFT_Display.dir/E_/Pi_Pico/pico-sdk/src/common/pico_util/queue.c.obj
LOAD CMakeFiles/1.8inch_TFT_Display.dir/E_/Pi_Pico/pico-sdk/src/rp2_common/pico_runtime/runtime.c.obj
LOAD CMakeFiles/1.8inch_TFT_Display.dir/E_/Pi_Pico/pico-sdk/src/rp2_common/hardware_clocks/clocks.c.obj
LOAD CMakeFiles/1.8inch_TFT_Display.dir/E_/Pi_Pico/pico-sdk/src/rp2_common/hardware_watchdog/watchdog.c.obj
LOAD CMakeFiles/1.8inch_TFT_Display.dir/E_/Pi_Pico/pico-sdk/src/rp2_common/hardware_xosc/xosc.c.obj
LOAD CMakeFiles/1.8inch_TFT_Display.dir/E_/Pi_Pico/pico-sdk/src/rp2_common/hardware_pll/pll.c.obj
LOAD CMakeFiles/1.8inch_TFT_Display.dir/E_/Pi_Pico/pico-sdk/src/rp2_common/hardware_vreg/vreg.c.obj
LOAD CMakeFiles/1.8inch_TFT_Display.dir/E_/Pi_Pico/pico-sdk/src/rp2_common/hardware_irq/irq.c.obj
LOAD CMakeFiles/1.8inch_TFT_Display.dir/E_/Pi_Pico/pico-sdk/src/rp2_common/hardware_irq/irq_handler_chain.S.obj
LOAD CMakeFiles/1.8inch_TFT_Display.dir/E_/Pi_Pico/pico-sdk/src/rp2_common/pico_printf/printf.c.obj
LOAD CMakeFiles/1.8inch_TFT_Display.dir/E_/Pi_Pico/pico-sdk/src/rp2_common/pico_bit_ops/bit_ops_aeabi.S.obj
LOAD CMakeFiles/1.8inch_TFT_Display.dir/E_/Pi_Pico/pico-sdk/src/rp2_common/pico_bootrom/bootrom.c.obj
LOAD CMakeFiles/1.8inch_TFT_Display.dir/E_/Pi_Pico/pico-sdk/src/rp2_common/pico_divider/divider.S.obj
LOAD CMakeFiles/1.8inch_TFT_Display.dir/E_/Pi_Pico/pico-sdk/src/rp2_common/pico_double/double_aeabi.S.obj
LOAD CMakeFiles/1.8inch_TFT_Display.dir/E_/Pi_Pico/pico-sdk/src/rp2_common/pico_double/double_init_rom.c.obj
LOAD CMakeFiles/1.8inch_TFT_Display.dir/E_/Pi_Pico/pico-sdk/src/rp2_common/pico_double/double_math.c.obj
LOAD CMakeFiles/1.8inch_TFT_Display.dir/E_/Pi_Pico/pico-sdk/src/rp2_common/pico_double/double_v1_rom_shim.S.obj
LOAD CMakeFiles/1.8inch_TFT_Display.dir/E_/Pi_Pico/pico-sdk/src/rp2_common/pico_int64_ops/pico_int64_ops_aeabi.S.obj
LOAD CMakeFiles/1.8inch_TFT_Display.dir/E_/Pi_Pico/pico-sdk/src/rp2_common/pico_float/float_aeabi.S.obj
LOAD CMakeFiles/1.8inch_TFT_Display.dir/E_/Pi_Pico/pico-sdk/src/rp2_common/pico_float/float_init_rom.c.obj
LOAD CMakeFiles/1.8inch_TFT_Display.dir/E_/Pi_Pico/pico-sdk/src/rp2_common/pico_float/float_math.c.obj
LOAD CMakeFiles/1.8inch_TFT_Display.dir/E_/Pi_Pico/pico-sdk/src/rp2_common/pico_float/float_v1_rom_shim.S.obj
LOAD CMakeFiles/1.8inch_TFT_Display.dir/E_/Pi_Pico/pico-sdk/src/rp2_common/pico_malloc/pico_malloc.c.obj
LOAD CMakeFiles/1.8inch_TFT_Display.dir/E_/Pi_Pico/pico-sdk/src/rp2_common/pico_mem_ops/mem_ops_aeabi.S.obj
LOAD CMakeFiles/1.8inch_TFT_Display.dir/E_/Pi_Pico/pico-sdk/src/rp2_common/pico_standard_link/crt0.S.obj
LOAD CMakeFiles/1.8inch_TFT_Display.dir/E_/Pi_Pico/pico-sdk/src/rp2_common/pico_standard_link/new_delete.cpp.obj
LOAD CMakeFiles/1.8inch_TFT_Display.dir/E_/Pi_Pico/pico-sdk/src/rp2_common/pico_standard_link/binary_info.c.obj
LOAD CMakeFiles/1.8inch_TFT_Display.dir/E_/Pi_Pico/pico-sdk/src/rp2_common/pico_stdio/stdio.c.obj
LOAD CMakeFiles/1.8inch_TFT_Display.dir/E_/Pi_Pico/pico-sdk/src/rp2_common/pico_stdio_usb/stdio_usb.c.obj
LOAD CMakeFiles/1.8inch_TFT_Display.dir/E_/Pi_Pico/pico-sdk/src/rp2_common/pico_stdio_usb/stdio_usb_descriptors.c.obj
LOAD CMakeFiles/1.8inch_TFT_Display.dir/E_/Pi_Pico/pico-sdk/lib/tinyusb/src/portable/raspberrypi/rp2040/dcd_rp2040.c.obj
LOAD CMakeFiles/1.8inch_TFT_Display.dir/E_/Pi_Pico/pico-sdk/lib/tinyusb/src/portable/raspberrypi/rp2040/rp2040_usb.c.obj
LOAD CMakeFiles/1.8inch_TFT_Display.dir/E_/Pi_Pico/pico-sdk/lib/tinyusb/src/device/usbd.c.obj
LOAD CMakeFiles/1.8inch_TFT_Display.dir/E_/Pi_Pico/pico-sdk/lib/tinyusb/src/device/usbd_control.c.obj
LOAD CMakeFiles/1.8inch_TFT_Display.dir/E_/Pi_Pico/pico-sdk/lib/tinyusb/src/class/audio/audio_device.c.obj
LOAD CMakeFiles/1.8inch_TFT_Display.dir/E_/Pi_Pico/pico-sdk/lib/tinyusb/src/class/cdc/cdc_device.c.obj
LOAD CMakeFiles/1.8inch_TFT_Display.dir/E_/Pi_Pico/pico-sdk/lib/tinyusb/src/class/dfu/dfu_rt_device.c.obj
LOAD CMakeFiles/1.8inch_TFT_Display.dir/E_/Pi_Pico/pico-sdk/lib/tinyusb/src/class/hid/hid_device.c.obj
LOAD CMakeFiles/1.8inch_TFT_Display.dir/E_/Pi_Pico/pico-sdk/lib/tinyusb/src/class/midi/midi_device.c.obj
LOAD CMakeFiles/1.8inch_TFT_Display.dir/E_/Pi_Pico/pico-sdk/lib/tinyusb/src/class/msc/msc_device.c.obj
LOAD CMakeFiles/1.8inch_TFT_Display.dir/E_/Pi_Pico/pico-sdk/lib/tinyusb/src/class/net/net_device.c.obj
LOAD CMakeFiles/1.8inch_TFT_Display.dir/E_/Pi_Pico/pico-sdk/lib/tinyusb/src/class/usbtmc/usbtmc_device.c.obj
LOAD CMakeFiles/1.8inch_TFT_Display.dir/E_/Pi_Pico/pico-sdk/lib/tinyusb/src/class/vendor/vendor_device.c.obj
LOAD CMakeFiles/1.8inch_TFT_Display.dir/E_/Pi_Pico/pico-sdk/lib/tinyusb/src/tusb.c.obj
LOAD CMakeFiles/1.8inch_TFT_Display.dir/E_/Pi_Pico/pico-sdk/lib/tinyusb/src/common/tusb_fifo.c.obj
LOAD CMakeFiles/1.8inch_TFT_Display.dir/E_/Pi_Pico/pico-sdk/src/rp2_common/pico_fix/rp2040_usb_device_enumeration/rp2040_usb_device_enumeration.c.obj
LOAD CMakeFiles/1.8inch_TFT_Display.dir/E_/Pi_Pico/pico-sdk/src/rp2_common/hardware_spi/spi.c.obj
LOAD C:\Users\Venki\AppData\Local\Temp\ccDkQiTn.o
LOAD c:/progra~2/gnuarm~1/102020~1/bin/../lib/gcc/arm-none-eabi/10.2.1/../../../../arm-none-eabi/lib/thumb/v6-m/nofp\libstdc++.a
LOAD c:/progra~2/gnuarm~1/102020~1/bin/../lib/gcc/arm-none-eabi/10.2.1/../../../../arm-none-eabi/lib/thumb/v6-m/nofp\libm.a
START GROUP
LOAD c:/progra~2/gnuarm~1/102020~1/bin/../lib/gcc/arm-none-eabi/10.2.1/thumb/v6-m/nofp\libgcc.a
LOAD c:/progra~2/gnuarm~1/102020~1/bin/../lib/gcc/arm-none-eabi/10.2.1/../../../../arm-none-eabi/lib/thumb/v6-m/nofp\libg.a
LOAD c:/progra~2/gnuarm~1/102020~1/bin/../lib/gcc/arm-none-eabi/10.2.1/../../../../arm-none-eabi/lib/thumb/v6-m/nofp\libc.a
END GROUP
START GROUP
LOAD c:/progra~2/gnuarm~1/102020~1/bin/../lib/gcc/arm-none-eabi/10.2.1/thumb/v6-m/nofp\libgcc.a
LOAD c:/progra~2/gnuarm~1/102020~1/bin/../lib/gcc/arm-none-eabi/10.2.1/../../../../arm-none-eabi/lib/thumb/v6-m/nofp\libc.a
LOAD c:/progra~2/gnuarm~1/102020~1/bin/../lib/gcc/arm-none-eabi/10.2.1/../../../../arm-none-eabi/lib/thumb/v6-m/nofp\libnosys.a
END GROUP
LOAD c:/progra~2/gnuarm~1/102020~1/bin/../lib/gcc/arm-none-eabi/10.2.1/thumb/v6-m/nofp/crtend.o
LOAD c:/progra~2/gnuarm~1/102020~1/bin/../lib/gcc/arm-none-eabi/10.2.1/thumb/v6-m/nofp/crtn.o
OUTPUT(1.8inch_TFT_Display.elf elf32-littlearm)
LOAD linker stubs

.ARM.attributes
                0x00000000       0x28
 .ARM.attributes
                0x00000000       0x1e c:/progra~2/gnuarm~1/102020~1/bin/../lib/gcc/arm-none-eabi/10.2.1/thumb/v6-m/nofp/crti.o
 .ARM.attributes
                0x0000001e       0x2c c:/progra~2/gnuarm~1/102020~1/bin/../lib/gcc/arm-none-eabi/10.2.1/thumb/v6-m/nofp/crtbegin.o
 .ARM.attributes
                0x0000004a       0x2b CMakeFiles/1.8inch_TFT_Display.dir/src/main.c.obj
 .ARM.attributes
                0x00000075       0x2b CMakeFiles/1.8inch_TFT_Display.dir/src/st7735.c.obj
 .ARM.attributes
                0x000000a0       0x32 CMakeFiles/1.8inch_TFT_Display.dir/src/fonts.c.obj
 .ARM.attributes
                0x000000d2       0x2b CMakeFiles/1.8inch_TFT_Display.dir/E_/Pi_Pico/pico-sdk/src/rp2_common/hardware_gpio/gpio.c.obj
 .ARM.attributes
                0x000000fd       0x2b CMakeFiles/1.8inch_TFT_Display.dir/E_/Pi_Pico/pico-sdk/src/rp2_common/hardware_claim/claim.c.obj
 .ARM.attributes
                0x00000128       0x2b CMakeFiles/1.8inch_TFT_Display.dir/E_/Pi_Pico/pico-sdk/src/rp2_common/hardware_sync/sync.c.obj
 .ARM.attributes
                0x00000153       0x2b CMakeFiles/1.8inch_TFT_Display.dir/E_/Pi_Pico/pico-sdk/src/rp2_common/pico_platform/platform.c.obj
 .ARM.attributes
                0x0000017e       0x2b CMakeFiles/1.8inch_TFT_Display.dir/E_/Pi_Pico/pico-sdk/src/common/pico_time/time.c.obj
 .ARM.attributes
                0x000001a9       0x2b CMakeFiles/1.8inch_TFT_Display.dir/E_/Pi_Pico/pico-sdk/src/rp2_common/hardware_timer/timer.c.obj
 .ARM.attributes
                0x000001d4       0x2b CMakeFiles/1.8inch_TFT_Display.dir/E_/Pi_Pico/pico-sdk/src/common/pico_sync/lock_core.c.obj
 .ARM.attributes
                0x000001ff       0x2b CMakeFiles/1.8inch_TFT_Display.dir/E_/Pi_Pico/pico-sdk/src/common/pico_sync/mutex.c.obj
 .ARM.attributes
                0x0000022a       0x2b CMakeFiles/1.8inch_TFT_Display.dir/E_/Pi_Pico/pico-sdk/src/common/pico_sync/critical_section.c.obj
 .ARM.attributes
                0x00000255       0x2b CMakeFiles/1.8inch_TFT_Display.dir/E_/Pi_Pico/pico-sdk/src/common/pico_util/pheap.c.obj
 .ARM.attributes
                0x00000280       0x2b CMakeFiles/1.8inch_TFT_Display.dir/E_/Pi_Pico/pico-sdk/src/rp2_common/pico_runtime/runtime.c.obj
 .ARM.attributes
                0x000002ab       0x2b CMakeFiles/1.8inch_TFT_Display.dir/E_/Pi_Pico/pico-sdk/src/rp2_common/hardware_clocks/clocks.c.obj
 .ARM.attributes
                0x000002d6       0x2b CMakeFiles/1.8inch_TFT_Display.dir/E_/Pi_Pico/pico-sdk/src/rp2_common/hardware_watchdog/watchdog.c.obj
 .ARM.attributes
                0x00000301       0x2b CMakeFiles/1.8inch_TFT_Display.dir/E_/Pi_Pico/pico-sdk/src/rp2_common/hardware_xosc/xosc.c.obj
 .ARM.attributes
                0x0000032c       0x2b CMakeFiles/1.8inch_TFT_Display.dir/E_/Pi_Pico/pico-sdk/src/rp2_common/hardware_pll/pll.c.obj
 .ARM.attributes
                0x00000357       0x2b CMakeFiles/1.8inch_TFT_Display.dir/E_/Pi_Pico/pico-sdk/src/rp2_common/hardware_irq/irq.c.obj
 .ARM.attributes
                0x00000382       0x22 CMakeFiles/1.8inch_TFT_Display.dir/E_/Pi_Pico/pico-sdk/src/rp2_common/hardware_irq/irq_handler_chain.S.obj
 .ARM.attributes
                0x000003a4       0x2b CMakeFiles/1.8inch_TFT_Display.dir/E_/Pi_Pico/pico-sdk/src/rp2_common/pico_printf/printf.c.obj
 .ARM.attributes
                0x000003cf       0x22 CMakeFiles/1.8inch_TFT_Display.dir/E_/Pi_Pico/pico-sdk/src/rp2_common/pico_bit_ops/bit_ops_aeabi.S.obj
 .ARM.attributes
                0x000003f1       0x2b CMakeFiles/1.8inch_TFT_Display.dir/E_/Pi_Pico/pico-sdk/src/rp2_common/pico_bootrom/bootrom.c.obj
 .ARM.attributes
                0x0000041c       0x22 CMakeFiles/1.8inch_TFT_Display.dir/E_/Pi_Pico/pico-sdk/src/rp2_common/pico_divider/divider.S.obj
 .ARM.attributes
                0x0000043e       0x22 CMakeFiles/1.8inch_TFT_Display.dir/E_/Pi_Pico/pico-sdk/src/rp2_common/pico_double/double_aeabi.S.obj
 .ARM.attributes
                0x00000460       0x2b CMakeFiles/1.8inch_TFT_Display.dir/E_/Pi_Pico/pico-sdk/src/rp2_common/pico_double/double_init_rom.c.obj
 .ARM.attributes
                0x0000048b       0x22 CMakeFiles/1.8inch_TFT_Display.dir/E_/Pi_Pico/pico-sdk/src/rp2_common/pico_double/double_v1_rom_shim.S.obj
 .ARM.attributes
                0x000004ad       0x22 CMakeFiles/1.8inch_TFT_Display.dir/E_/Pi_Pico/pico-sdk/src/rp2_common/pico_int64_ops/pico_int64_ops_aeabi.S.obj
 .ARM.attributes
                0x000004cf       0x22 CMakeFiles/1.8inch_TFT_Display.dir/E_/Pi_Pico/pico-sdk/src/rp2_common/pico_float/float_aeabi.S.obj
 .ARM.attributes
                0x000004f1       0x2b CMakeFiles/1.8inch_TFT_Display.dir/E_/Pi_Pico/pico-sdk/src/rp2_common/pico_float/float_init_rom.c.obj
 .ARM.attributes
                0x0000051c       0x22 CMakeFiles/1.8inch_TFT_Display.dir/E_/Pi_Pico/pico-sdk/src/rp2_common/pico_float/float_v1_rom_shim.S.obj
 .ARM.attributes
                0x0000053e       0x2b CMakeFiles/1.8inch_TFT_Display.dir/E_/Pi_Pico/pico-sdk/src/rp2_common/pico_malloc/pico_malloc.c.obj
 .ARM.attributes
                0x00000569       0x22 CMakeFiles/1.8inch_TFT_Display.dir/E_/Pi_Pico/pico-sdk/src/rp2_common/pico_mem_ops/mem_ops_aeabi.S.obj
 .ARM.attributes
                0x0000058b       0x22 CMakeFiles/1.8inch_TFT_Display.dir/E_/Pi_Pico/pico-sdk/src/rp2_common/pico_standard_link/crt0.S.obj
 .ARM.attributes
                0x000005ad       0x32 CMakeFiles/1.8inch_TFT_Display.dir/E_/Pi_Pico/pico-sdk/src/rp2_common/pico_standard_link/binary_info.c.obj
 .ARM.attributes
                0x000005df       0x2b CMakeFiles/1.8inch_TFT_Display.dir/E_/Pi_Pico/pico-sdk/src/rp2_common/pico_stdio/stdio.c.obj
 .ARM.attributes
                0x0000060a       0x2b CMakeFiles/1.8inch_TFT_Display.dir/E_/Pi_Pico/pico-sdk/src/rp2_common/pico_stdio_usb/stdio_usb.c.obj
 .ARM.attributes
                0x00000635       0x2b CMakeFiles/1.8inch_TFT_Display.dir/E_/Pi_Pico/pico-sdk/src/rp2_common/pico_stdio_usb/stdio_usb_descriptors.c.obj
 .ARM.attributes
                0x00000660       0x2b CMakeFiles/1.8inch_TFT_Display.dir/E_/Pi_Pico/pico-sdk/lib/tinyusb/src/portable/raspberrypi/rp2040/dcd_rp2040.c.obj
 .ARM.attributes
                0x0000068b       0x2b CMakeFiles/1.8inch_TFT_Display.dir/E_/Pi_Pico/pico-sdk/lib/tinyusb/src/portable/raspberrypi/rp2040/rp2040_usb.c.obj
 .ARM.attributes
                0x000006b6       0x2b CMakeFiles/1.8inch_TFT_Display.dir/E_/Pi_Pico/pico-sdk/lib/tinyusb/src/device/usbd.c.obj
 .ARM.attributes
                0x000006e1       0x2b CMakeFiles/1.8inch_TFT_Display.dir/E_/Pi_Pico/pico-sdk/lib/tinyusb/src/device/usbd_control.c.obj
 .ARM.attributes
                0x0000070c       0x2b CMakeFiles/1.8inch_TFT_Display.dir/E_/Pi_Pico/pico-sdk/lib/tinyusb/src/class/cdc/cdc_device.c.obj
 .ARM.attributes
                0x00000737       0x2b CMakeFiles/1.8inch_TFT_Display.dir/E_/Pi_Pico/pico-sdk/lib/tinyusb/src/tusb.c.obj
 .ARM.attributes
                0x00000762       0x2b CMakeFiles/1.8inch_TFT_Display.dir/E_/Pi_Pico/pico-sdk/lib/tinyusb/src/common/tusb_fifo.c.obj
 .ARM.attributes
                0x0000078d       0x2b CMakeFiles/1.8inch_TFT_Display.dir/E_/Pi_Pico/pico-sdk/src/rp2_common/hardware_spi/spi.c.obj
 .ARM.attributes
                0x000007b8       0x22 C:\Users\Venki\AppData\Local\Temp\ccDkQiTn.o
 .ARM.attributes
                0x000007da       0x1e c:/progra~2/gnuarm~1/102020~1/bin/../lib/gcc/arm-none-eabi/10.2.1/thumb/v6-m/nofp\libgcc.a(_dvmd_tls.o)
 .ARM.attributes
                0x000007f8       0x2c c:/progra~2/gnuarm~1/102020~1/bin/../lib/gcc/arm-none-eabi/10.2.1/../../../../arm-none-eabi/lib/thumb/v6-m/nofp\libg.a(lib_a-calloc.o)
 .ARM.attributes
                0x00000824       0x2c c:/progra~2/gnuarm~1/102020~1/bin/../lib/gcc/arm-none-eabi/10.2.1/../../../../arm-none-eabi/lib/thumb/v6-m/nofp\libg.a(lib_a-callocr.o)
 .ARM.attributes
                0x00000850       0x2c c:/progra~2/gnuarm~1/102020~1/bin/../lib/gcc/arm-none-eabi/10.2.1/../../../../arm-none-eabi/lib/thumb/v6-m/nofp\libg.a(lib_a-impure.o)
 .ARM.attributes
                0x0000087c       0x2c c:/progra~2/gnuarm~1/102020~1/bin/../lib/gcc/arm-none-eabi/10.2.1/../../../../arm-none-eabi/lib/thumb/v6-m/nofp\libg.a(lib_a-malloc.o)
 .ARM.attributes
                0x000008a8       0x2c c:/progra~2/gnuarm~1/102020~1/bin/../lib/gcc/arm-none-eabi/10.2.1/../../../../arm-none-eabi/lib/thumb/v6-m/nofp\libg.a(lib_a-mallocr.o)
 .ARM.attributes
                0x000008d4       0x2c c:/progra~2/gnuarm~1/102020~1/bin/../lib/gcc/arm-none-eabi/10.2.1/../../../../arm-none-eabi/lib/thumb/v6-m/nofp\libg.a(lib_a-mlock.o)
 .ARM.attributes
                0x00000900       0x2c c:/progra~2/gnuarm~1/102020~1/bin/../lib/gcc/arm-none-eabi/10.2.1/../../../../arm-none-eabi/lib/thumb/v6-m/nofp\libg.a(lib_a-sbrkr.o)
 .ARM.attributes
                0x0000092c       0x2c c:/progra~2/gnuarm~1/102020~1/bin/../lib/gcc/arm-none-eabi/10.2.1/../../../../arm-none-eabi/lib/thumb/v6-m/nofp\libg.a(lib_a-strlen-stub.o)
 .ARM.attributes
                0x00000958       0x2c c:/progra~2/gnuarm~1/102020~1/bin/../lib/gcc/arm-none-eabi/10.2.1/../../../../arm-none-eabi/lib/thumb/v6-m/nofp\libg.a(lib_a-freer.o)
 .ARM.attributes
                0x00000984       0x2c c:/progra~2/gnuarm~1/102020~1/bin/../lib/gcc/arm-none-eabi/10.2.1/../../../../arm-none-eabi/lib/thumb/v6-m/nofp\libg.a(lib_a-lock.o)
 .ARM.attributes
                0x000009b0       0x2c c:/progra~2/gnuarm~1/102020~1/bin/../lib/gcc/arm-none-eabi/10.2.1/../../../../arm-none-eabi/lib/thumb/v6-m/nofp\libg.a(lib_a-reent.o)

.comment        0x00000000       0x4d
 .comment       0x00000000       0x4d CMakeFiles/1.8inch_TFT_Display.dir/src/main.c.obj
                                 0x4e (size before relaxing)
 .comment       0x0000004d       0x4e CMakeFiles/1.8inch_TFT_Display.dir/src/st7735.c.obj
 .comment       0x0000004d       0x4e CMakeFiles/1.8inch_TFT_Display.dir/src/fonts.c.obj
 .comment       0x0000004d       0x4e CMakeFiles/1.8inch_TFT_Display.dir/E_/Pi_Pico/pico-sdk/src/rp2_common/hardware_gpio/gpio.c.obj
 .comment       0x0000004d       0x4e CMakeFiles/1.8inch_TFT_Display.dir/E_/Pi_Pico/pico-sdk/src/rp2_common/hardware_claim/claim.c.obj
 .comment       0x0000004d       0x4e CMakeFiles/1.8inch_TFT_Display.dir/E_/Pi_Pico/pico-sdk/src/rp2_common/hardware_sync/sync.c.obj
 .comment       0x0000004d       0x4e CMakeFiles/1.8inch_TFT_Display.dir/E_/Pi_Pico/pico-sdk/src/rp2_common/pico_platform/platform.c.obj
 .comment       0x0000004d       0x4e CMakeFiles/1.8inch_TFT_Display.dir/E_/Pi_Pico/pico-sdk/src/common/pico_time/time.c.obj
 .comment       0x0000004d       0x4e CMakeFiles/1.8inch_TFT_Display.dir/E_/Pi_Pico/pico-sdk/src/rp2_common/hardware_timer/timer.c.obj
 .comment       0x0000004d       0x4e CMakeFiles/1.8inch_TFT_Display.dir/E_/Pi_Pico/pico-sdk/src/common/pico_sync/lock_core.c.obj
 .comment       0x0000004d       0x4e CMakeFiles/1.8inch_TFT_Display.dir/E_/Pi_Pico/pico-sdk/src/common/pico_sync/mutex.c.obj
 .comment       0x0000004d       0x4e CMakeFiles/1.8inch_TFT_Display.dir/E_/Pi_Pico/pico-sdk/src/common/pico_sync/critical_section.c.obj
 .comment       0x0000004d       0x4e CMakeFiles/1.8inch_TFT_Display.dir/E_/Pi_Pico/pico-sdk/src/common/pico_util/pheap.c.obj
 .comment       0x0000004d       0x4e CMakeFiles/1.8inch_TFT_Display.dir/E_/Pi_Pico/pico-sdk/src/rp2_common/pico_runtime/runtime.c.obj
 .comment       0x0000004d       0x4e CMakeFiles/1.8inch_TFT_Display.dir/E_/Pi_Pico/pico-sdk/src/rp2_common/hardware_clocks/clocks.c.obj
 .comment       0x0000004d       0x4e CMakeFiles/1.8inch_TFT_Display.dir/E_/Pi_Pico/pico-sdk/src/rp2_common/hardware_watchdog/watchdog.c.obj
 .comment       0x0000004d       0x4e CMakeFiles/1.8inch_TFT_Display.dir/E_/Pi_Pico/pico-sdk/src/rp2_common/hardware_xosc/xosc.c.obj
 .comment       0x0000004d       0x4e CMakeFiles/1.8inch_TFT_Display.dir/E_/Pi_Pico/pico-sdk/src/rp2_common/hardware_pll/pll.c.obj
 .comment       0x0000004d       0x4e CMakeFiles/1.8inch_TFT_Display.dir/E_/Pi_Pico/pico-sdk/src/rp2_common/hardware_irq/irq.c.obj
 .comment       0x0000004d       0x4e CMakeFiles/1.8inch_TFT_Display.dir/E_/Pi_Pico/pico-sdk/src/rp2_common/pico_printf/printf.c.obj
 .comment       0x0000004d       0x4e CMakeFiles/1.8inch_TFT_Display.dir/E_/Pi_Pico/pico-sdk/src/rp2_common/pico_bootrom/bootrom.c.obj
 .comment       0x0000004d       0x4e CMakeFiles/1.8inch_TFT_Display.dir/E_/Pi_Pico/pico-sdk/src/rp2_common/pico_double/double_init_rom.c.obj
 .comment       0x0000004d       0x4e CMakeFiles/1.8inch_TFT_Display.dir/E_/Pi_Pico/pico-sdk/src/rp2_common/pico_float/float_init_rom.c.obj
 .comment       0x0000004d       0x4e CMakeFiles/1.8inch_TFT_Display.dir/E_/Pi_Pico/pico-sdk/src/rp2_common/pico_malloc/pico_malloc.c.obj
 .comment       0x0000004d       0x4e CMakeFiles/1.8inch_TFT_Display.dir/E_/Pi_Pico/pico-sdk/src/rp2_common/pico_standard_link/binary_info.c.obj
 .comment       0x0000004d       0x4e CMakeFiles/1.8inch_TFT_Display.dir/E_/Pi_Pico/pico-sdk/src/rp2_common/pico_stdio/stdio.c.obj
 .comment       0x0000004d       0x4e CMakeFiles/1.8inch_TFT_Display.dir/E_/Pi_Pico/pico-sdk/src/rp2_common/pico_stdio_usb/stdio_usb.c.obj
 .comment       0x0000004d       0x4e CMakeFiles/1.8inch_TFT_Display.dir/E_/Pi_Pico/pico-sdk/src/rp2_common/pico_stdio_usb/stdio_usb_descriptors.c.obj
 .comment       0x0000004d       0x4e CMakeFiles/1.8inch_TFT_Display.dir/E_/Pi_Pico/pico-sdk/lib/tinyusb/src/portable/raspberrypi/rp2040/dcd_rp2040.c.obj
 .comment       0x0000004d       0x4e CMakeFiles/1.8inch_TFT_Display.dir/E_/Pi_Pico/pico-sdk/lib/tinyusb/src/portable/raspberrypi/rp2040/rp2040_usb.c.obj
 .comment       0x0000004d       0x4e CMakeFiles/1.8inch_TFT_Display.dir/E_/Pi_Pico/pico-sdk/lib/tinyusb/src/device/usbd.c.obj
 .comment       0x0000004d       0x4e CMakeFiles/1.8inch_TFT_Display.dir/E_/Pi_Pico/pico-sdk/lib/tinyusb/src/device/usbd_control.c.obj
 .comment       0x0000004d       0x4e CMakeFiles/1.8inch_TFT_Display.dir/E_/Pi_Pico/pico-sdk/lib/tinyusb/src/class/cdc/cdc_device.c.obj
 .comment       0x0000004d       0x4e CMakeFiles/1.8inch_TFT_Display.dir/E_/Pi_Pico/pico-sdk/lib/tinyusb/src/tusb.c.obj
 .comment       0x0000004d       0x4e CMakeFiles/1.8inch_TFT_Display.dir/E_/Pi_Pico/pico-sdk/lib/tinyusb/src/common/tusb_fifo.c.obj
 .comment       0x0000004d       0x4e CMakeFiles/1.8inch_TFT_Display.dir/E_/Pi_Pico/pico-sdk/src/rp2_common/hardware_spi/spi.c.obj

.debug_info     0x00000000    0x20009
 .debug_info    0x00000000      0xf98 CMakeFiles/1.8inch_TFT_Display.dir/src/main.c.obj
 .debug_info    0x00000f98     0x2aea CMakeFiles/1.8inch_TFT_Display.dir/src/st7735.c.obj
 .debug_info    0x00003a82      0x1aa CMakeFiles/1.8inch_TFT_Display.dir/src/fonts.c.obj
 .debug_info    0x00003c2c     0x1141 CMakeFiles/1.8inch_TFT_Display.dir/E_/Pi_Pico/pico-sdk/src/rp2_common/hardware_gpio/gpio.c.obj
 .debug_info    0x00004d6d      0x620 CMakeFiles/1.8inch_TFT_Display.dir/E_/Pi_Pico/pico-sdk/src/rp2_common/hardware_claim/claim.c.obj
 .debug_info    0x0000538d      0x4a5 CMakeFiles/1.8inch_TFT_Display.dir/E_/Pi_Pico/pico-sdk/src/rp2_common/hardware_sync/sync.c.obj
 .debug_info    0x00005832      0x1d5 CMakeFiles/1.8inch_TFT_Display.dir/E_/Pi_Pico/pico-sdk/src/rp2_common/pico_platform/platform.c.obj
 .debug_info    0x00005a07     0x3349 CMakeFiles/1.8inch_TFT_Display.dir/E_/Pi_Pico/pico-sdk/src/common/pico_time/time.c.obj
 .debug_info    0x00008d50      0xf9d CMakeFiles/1.8inch_TFT_Display.dir/E_/Pi_Pico/pico-sdk/src/rp2_common/hardware_timer/timer.c.obj
 .debug_info    0x00009ced      0x1c5 CMakeFiles/1.8inch_TFT_Display.dir/E_/Pi_Pico/pico-sdk/src/common/pico_sync/lock_core.c.obj
 .debug_info    0x00009eb2      0xd50 CMakeFiles/1.8inch_TFT_Display.dir/E_/Pi_Pico/pico-sdk/src/common/pico_sync/mutex.c.obj
 .debug_info    0x0000ac02      0x292 CMakeFiles/1.8inch_TFT_Display.dir/E_/Pi_Pico/pico-sdk/src/common/pico_sync/critical_section.c.obj
 .debug_info    0x0000ae94     0x1164 CMakeFiles/1.8inch_TFT_Display.dir/E_/Pi_Pico/pico-sdk/src/common/pico_util/pheap.c.obj
 .debug_info    0x0000bff8      0x986 CMakeFiles/1.8inch_TFT_Display.dir/E_/Pi_Pico/pico-sdk/src/rp2_common/pico_runtime/runtime.c.obj
 .debug_info    0x0000c97e     0x1068 CMakeFiles/1.8inch_TFT_Display.dir/E_/Pi_Pico/pico-sdk/src/rp2_common/hardware_clocks/clocks.c.obj
 .debug_info    0x0000d9e6      0x49c CMakeFiles/1.8inch_TFT_Display.dir/E_/Pi_Pico/pico-sdk/src/rp2_common/hardware_watchdog/watchdog.c.obj
 .debug_info    0x0000de82      0x214 CMakeFiles/1.8inch_TFT_Display.dir/E_/Pi_Pico/pico-sdk/src/rp2_common/hardware_xosc/xosc.c.obj
 .debug_info    0x0000e096      0x3c1 CMakeFiles/1.8inch_TFT_Display.dir/E_/Pi_Pico/pico-sdk/src/rp2_common/hardware_pll/pll.c.obj
 .debug_info    0x0000e457     0x1807 CMakeFiles/1.8inch_TFT_Display.dir/E_/Pi_Pico/pico-sdk/src/rp2_common/hardware_irq/irq.c.obj
 .debug_info    0x0000fc5e       0x26 CMakeFiles/1.8inch_TFT_Display.dir/E_/Pi_Pico/pico-sdk/src/rp2_common/hardware_irq/irq_handler_chain.S.obj
 .debug_info    0x0000fc84     0x1a32 CMakeFiles/1.8inch_TFT_Display.dir/E_/Pi_Pico/pico-sdk/src/rp2_common/pico_printf/printf.c.obj
 .debug_info    0x000116b6       0x22 CMakeFiles/1.8inch_TFT_Display.dir/E_/Pi_Pico/pico-sdk/src/rp2_common/pico_bit_ops/bit_ops_aeabi.S.obj
 .debug_info    0x000116d8      0x231 CMakeFiles/1.8inch_TFT_Display.dir/E_/Pi_Pico/pico-sdk/src/rp2_common/pico_bootrom/bootrom.c.obj
 .debug_info    0x00011909       0x22 CMakeFiles/1.8inch_TFT_Display.dir/E_/Pi_Pico/pico-sdk/src/rp2_common/pico_divider/divider.S.obj
 .debug_info    0x0001192b       0x22 CMakeFiles/1.8inch_TFT_Display.dir/E_/Pi_Pico/pico-sdk/src/rp2_common/pico_double/double_aeabi.S.obj
 .debug_info    0x0001194d      0x2a0 CMakeFiles/1.8inch_TFT_Display.dir/E_/Pi_Pico/pico-sdk/src/rp2_common/pico_double/double_init_rom.c.obj
 .debug_info    0x00011bed       0x22 CMakeFiles/1.8inch_TFT_Display.dir/E_/Pi_Pico/pico-sdk/src/rp2_common/pico_double/double_v1_rom_shim.S.obj
 .debug_info    0x00011c0f       0x26 CMakeFiles/1.8inch_TFT_Display.dir/E_/Pi_Pico/pico-sdk/src/rp2_common/pico_int64_ops/pico_int64_ops_aeabi.S.obj
 .debug_info    0x00011c35       0x22 CMakeFiles/1.8inch_TFT_Display.dir/E_/Pi_Pico/pico-sdk/src/rp2_common/pico_float/float_aeabi.S.obj
 .debug_info    0x00011c57      0x2ef CMakeFiles/1.8inch_TFT_Display.dir/E_/Pi_Pico/pico-sdk/src/rp2_common/pico_float/float_init_rom.c.obj
 .debug_info    0x00011f46       0x22 CMakeFiles/1.8inch_TFT_Display.dir/E_/Pi_Pico/pico-sdk/src/rp2_common/pico_float/float_v1_rom_shim.S.obj
 .debug_info    0x00011f68      0x1e7 CMakeFiles/1.8inch_TFT_Display.dir/E_/Pi_Pico/pico-sdk/src/rp2_common/pico_malloc/pico_malloc.c.obj
 .debug_info    0x0001214f       0x22 CMakeFiles/1.8inch_TFT_Display.dir/E_/Pi_Pico/pico-sdk/src/rp2_common/pico_mem_ops/mem_ops_aeabi.S.obj
 .debug_info    0x00012171       0x22 CMakeFiles/1.8inch_TFT_Display.dir/E_/Pi_Pico/pico-sdk/src/rp2_common/pico_standard_link/crt0.S.obj
 .debug_info    0x00012193      0x2c5 CMakeFiles/1.8inch_TFT_Display.dir/E_/Pi_Pico/pico-sdk/src/rp2_common/pico_standard_link/binary_info.c.obj
 .debug_info    0x00012458     0x1064 CMakeFiles/1.8inch_TFT_Display.dir/E_/Pi_Pico/pico-sdk/src/rp2_common/pico_stdio/stdio.c.obj
 .debug_info    0x000134bc      0xe0d CMakeFiles/1.8inch_TFT_Display.dir/E_/Pi_Pico/pico-sdk/src/rp2_common/pico_stdio_usb/stdio_usb.c.obj
 .debug_info    0x000142c9      0x618 CMakeFiles/1.8inch_TFT_Display.dir/E_/Pi_Pico/pico-sdk/src/rp2_common/pico_stdio_usb/stdio_usb_descriptors.c.obj
 .debug_info    0x000148e1     0x1a31 CMakeFiles/1.8inch_TFT_Display.dir/E_/Pi_Pico/pico-sdk/lib/tinyusb/src/portable/raspberrypi/rp2040/dcd_rp2040.c.obj
 .debug_info    0x00016312      0xca4 CMakeFiles/1.8inch_TFT_Display.dir/E_/Pi_Pico/pico-sdk/lib/tinyusb/src/portable/raspberrypi/rp2040/rp2040_usb.c.obj
 .debug_info    0x00016fb6     0x3fac CMakeFiles/1.8inch_TFT_Display.dir/E_/Pi_Pico/pico-sdk/lib/tinyusb/src/device/usbd.c.obj
 .debug_info    0x0001af62      0x9ea CMakeFiles/1.8inch_TFT_Display.dir/E_/Pi_Pico/pico-sdk/lib/tinyusb/src/device/usbd_control.c.obj
 .debug_info    0x0001b94c     0x1b30 CMakeFiles/1.8inch_TFT_Display.dir/E_/Pi_Pico/pico-sdk/lib/tinyusb/src/class/cdc/cdc_device.c.obj
 .debug_info    0x0001d47c      0x511 CMakeFiles/1.8inch_TFT_Display.dir/E_/Pi_Pico/pico-sdk/lib/tinyusb/src/tusb.c.obj
 .debug_info    0x0001d98d     0x166f CMakeFiles/1.8inch_TFT_Display.dir/E_/Pi_Pico/pico-sdk/lib/tinyusb/src/common/tusb_fifo.c.obj
 .debug_info    0x0001effc     0x100d CMakeFiles/1.8inch_TFT_Display.dir/E_/Pi_Pico/pico-sdk/src/rp2_common/hardware_spi/spi.c.obj

.debug_abbrev   0x00000000     0x5f4d
 .debug_abbrev  0x00000000      0x23d CMakeFiles/1.8inch_TFT_Display.dir/src/main.c.obj
 .debug_abbrev  0x0000023d      0x34a CMakeFiles/1.8inch_TFT_Display.dir/src/st7735.c.obj
 .debug_abbrev  0x00000587       0xaa CMakeFiles/1.8inch_TFT_Display.dir/src/fonts.c.obj
 .debug_abbrev  0x00000631      0x309 CMakeFiles/1.8inch_TFT_Display.dir/E_/Pi_Pico/pico-sdk/src/rp2_common/hardware_gpio/gpio.c.obj
 .debug_abbrev  0x0000093a      0x276 CMakeFiles/1.8inch_TFT_Display.dir/E_/Pi_Pico/pico-sdk/src/rp2_common/hardware_claim/claim.c.obj
 .debug_abbrev  0x00000bb0      0x212 CMakeFiles/1.8inch_TFT_Display.dir/E_/Pi_Pico/pico-sdk/src/rp2_common/hardware_sync/sync.c.obj
 .debug_abbrev  0x00000dc2       0xe7 CMakeFiles/1.8inch_TFT_Display.dir/E_/Pi_Pico/pico-sdk/src/rp2_common/pico_platform/platform.c.obj
 .debug_abbrev  0x00000ea9      0x54b CMakeFiles/1.8inch_TFT_Display.dir/E_/Pi_Pico/pico-sdk/src/common/pico_time/time.c.obj
 .debug_abbrev  0x000013f4      0x34c CMakeFiles/1.8inch_TFT_Display.dir/E_/Pi_Pico/pico-sdk/src/rp2_common/hardware_timer/timer.c.obj
 .debug_abbrev  0x00001740      0x133 CMakeFiles/1.8inch_TFT_Display.dir/E_/Pi_Pico/pico-sdk/src/common/pico_sync/lock_core.c.obj
 .debug_abbrev  0x00001873      0x32b CMakeFiles/1.8inch_TFT_Display.dir/E_/Pi_Pico/pico-sdk/src/common/pico_sync/mutex.c.obj
 .debug_abbrev  0x00001b9e      0x199 CMakeFiles/1.8inch_TFT_Display.dir/E_/Pi_Pico/pico-sdk/src/common/pico_sync/critical_section.c.obj
 .debug_abbrev  0x00001d37      0x297 CMakeFiles/1.8inch_TFT_Display.dir/E_/Pi_Pico/pico-sdk/src/common/pico_util/pheap.c.obj
 .debug_abbrev  0x00001fce      0x348 CMakeFiles/1.8inch_TFT_Display.dir/E_/Pi_Pico/pico-sdk/src/rp2_common/pico_runtime/runtime.c.obj
 .debug_abbrev  0x00002316      0x386 CMakeFiles/1.8inch_TFT_Display.dir/E_/Pi_Pico/pico-sdk/src/rp2_common/hardware_clocks/clocks.c.obj
 .debug_abbrev  0x0000269c      0x1b1 CMakeFiles/1.8inch_TFT_Display.dir/E_/Pi_Pico/pico-sdk/src/rp2_common/hardware_watchdog/watchdog.c.obj
 .debug_abbrev  0x0000284d      0x12c CMakeFiles/1.8inch_TFT_Display.dir/E_/Pi_Pico/pico-sdk/src/rp2_common/hardware_xosc/xosc.c.obj
 .debug_abbrev  0x00002979      0x1bc CMakeFiles/1.8inch_TFT_Display.dir/E_/Pi_Pico/pico-sdk/src/rp2_common/hardware_pll/pll.c.obj
 .debug_abbrev  0x00002b35      0x494 CMakeFiles/1.8inch_TFT_Display.dir/E_/Pi_Pico/pico-sdk/src/rp2_common/hardware_irq/irq.c.obj
 .debug_abbrev  0x00002fc9       0x14 CMakeFiles/1.8inch_TFT_Display.dir/E_/Pi_Pico/pico-sdk/src/rp2_common/hardware_irq/irq_handler_chain.S.obj
 .debug_abbrev  0x00002fdd      0x384 CMakeFiles/1.8inch_TFT_Display.dir/E_/Pi_Pico/pico-sdk/src/rp2_common/pico_printf/printf.c.obj
 .debug_abbrev  0x00003361       0x12 CMakeFiles/1.8inch_TFT_Display.dir/E_/Pi_Pico/pico-sdk/src/rp2_common/pico_bit_ops/bit_ops_aeabi.S.obj
 .debug_abbrev  0x00003373       0xf8 CMakeFiles/1.8inch_TFT_Display.dir/E_/Pi_Pico/pico-sdk/src/rp2_common/pico_bootrom/bootrom.c.obj
 .debug_abbrev  0x0000346b       0x12 CMakeFiles/1.8inch_TFT_Display.dir/E_/Pi_Pico/pico-sdk/src/rp2_common/pico_divider/divider.S.obj
 .debug_abbrev  0x0000347d       0x12 CMakeFiles/1.8inch_TFT_Display.dir/E_/Pi_Pico/pico-sdk/src/rp2_common/pico_double/double_aeabi.S.obj
 .debug_abbrev  0x0000348f      0x162 CMakeFiles/1.8inch_TFT_Display.dir/E_/Pi_Pico/pico-sdk/src/rp2_common/pico_double/double_init_rom.c.obj
 .debug_abbrev  0x000035f1       0x12 CMakeFiles/1.8inch_TFT_Display.dir/E_/Pi_Pico/pico-sdk/src/rp2_common/pico_double/double_v1_rom_shim.S.obj
 .debug_abbrev  0x00003603       0x14 CMakeFiles/1.8inch_TFT_Display.dir/E_/Pi_Pico/pico-sdk/src/rp2_common/pico_int64_ops/pico_int64_ops_aeabi.S.obj
 .debug_abbrev  0x00003617       0x12 CMakeFiles/1.8inch_TFT_Display.dir/E_/Pi_Pico/pico-sdk/src/rp2_common/pico_float/float_aeabi.S.obj
 .debug_abbrev  0x00003629      0x17a CMakeFiles/1.8inch_TFT_Display.dir/E_/Pi_Pico/pico-sdk/src/rp2_common/pico_float/float_init_rom.c.obj
 .debug_abbrev  0x000037a3       0x12 CMakeFiles/1.8inch_TFT_Display.dir/E_/Pi_Pico/pico-sdk/src/rp2_common/pico_float/float_v1_rom_shim.S.obj
 .debug_abbrev  0x000037b5      0x111 CMakeFiles/1.8inch_TFT_Display.dir/E_/Pi_Pico/pico-sdk/src/rp2_common/pico_malloc/pico_malloc.c.obj
 .debug_abbrev  0x000038c6       0x12 CMakeFiles/1.8inch_TFT_Display.dir/E_/Pi_Pico/pico-sdk/src/rp2_common/pico_mem_ops/mem_ops_aeabi.S.obj
 .debug_abbrev  0x000038d8       0x12 CMakeFiles/1.8inch_TFT_Display.dir/E_/Pi_Pico/pico-sdk/src/rp2_common/pico_standard_link/crt0.S.obj
 .debug_abbrev  0x000038ea       0xad CMakeFiles/1.8inch_TFT_Display.dir/E_/Pi_Pico/pico-sdk/src/rp2_common/pico_standard_link/binary_info.c.obj
 .debug_abbrev  0x00003997      0x4f4 CMakeFiles/1.8inch_TFT_Display.dir/E_/Pi_Pico/pico-sdk/src/rp2_common/pico_stdio/stdio.c.obj
 .debug_abbrev  0x00003e8b      0x3df CMakeFiles/1.8inch_TFT_Display.dir/E_/Pi_Pico/pico-sdk/src/rp2_common/pico_stdio_usb/stdio_usb.c.obj
 .debug_abbrev  0x0000426a      0x122 CMakeFiles/1.8inch_TFT_Display.dir/E_/Pi_Pico/pico-sdk/src/rp2_common/pico_stdio_usb/stdio_usb_descriptors.c.obj
 .debug_abbrev  0x0000438c      0x3fa CMakeFiles/1.8inch_TFT_Display.dir/E_/Pi_Pico/pico-sdk/lib/tinyusb/src/portable/raspberrypi/rp2040/dcd_rp2040.c.obj
 .debug_abbrev  0x00004786      0x31a CMakeFiles/1.8inch_TFT_Display.dir/E_/Pi_Pico/pico-sdk/lib/tinyusb/src/portable/raspberrypi/rp2040/rp2040_usb.c.obj
 .debug_abbrev  0x00004aa0      0x57f CMakeFiles/1.8inch_TFT_Display.dir/E_/Pi_Pico/pico-sdk/lib/tinyusb/src/device/usbd.c.obj
 .debug_abbrev  0x0000501f      0x303 CMakeFiles/1.8inch_TFT_Display.dir/E_/Pi_Pico/pico-sdk/lib/tinyusb/src/device/usbd_control.c.obj
 .debug_abbrev  0x00005322      0x444 CMakeFiles/1.8inch_TFT_Display.dir/E_/Pi_Pico/pico-sdk/lib/tinyusb/src/class/cdc/cdc_device.c.obj
 .debug_abbrev  0x00005766      0x200 CMakeFiles/1.8inch_TFT_Display.dir/E_/Pi_Pico/pico-sdk/lib/tinyusb/src/tusb.c.obj
 .debug_abbrev  0x00005966      0x33a CMakeFiles/1.8inch_TFT_Display.dir/E_/Pi_Pico/pico-sdk/lib/tinyusb/src/common/tusb_fifo.c.obj
 .debug_abbrev  0x00005ca0      0x2ad CMakeFiles/1.8inch_TFT_Display.dir/E_/Pi_Pico/pico-sdk/src/rp2_common/hardware_spi/spi.c.obj

.debug_loc      0x00000000    0x149b2
 .debug_loc     0x00000000      0x1a7 CMakeFiles/1.8inch_TFT_Display.dir/src/main.c.obj
 .debug_loc     0x000001a7     0x2527 CMakeFiles/1.8inch_TFT_Display.dir/src/st7735.c.obj
 .debug_loc     0x000026ce      0xafe CMakeFiles/1.8inch_TFT_Display.dir/E_/Pi_Pico/pico-sdk/src/rp2_common/hardware_gpio/gpio.c.obj
 .debug_loc     0x000031cc      0x457 CMakeFiles/1.8inch_TFT_Display.dir/E_/Pi_Pico/pico-sdk/src/rp2_common/hardware_claim/claim.c.obj
 .debug_loc     0x00003623      0x1d7 CMakeFiles/1.8inch_TFT_Display.dir/E_/Pi_Pico/pico-sdk/src/rp2_common/hardware_sync/sync.c.obj
 .debug_loc     0x000037fa       0xe9 CMakeFiles/1.8inch_TFT_Display.dir/E_/Pi_Pico/pico-sdk/src/rp2_common/pico_platform/platform.c.obj
 .debug_loc     0x000038e3     0x28f8 CMakeFiles/1.8inch_TFT_Display.dir/E_/Pi_Pico/pico-sdk/src/common/pico_time/time.c.obj
 .debug_loc     0x000061db      0x831 CMakeFiles/1.8inch_TFT_Display.dir/E_/Pi_Pico/pico-sdk/src/rp2_common/hardware_timer/timer.c.obj
 .debug_loc     0x00006a0c       0xa2 CMakeFiles/1.8inch_TFT_Display.dir/E_/Pi_Pico/pico-sdk/src/common/pico_sync/lock_core.c.obj
 .debug_loc     0x00006aae      0x641 CMakeFiles/1.8inch_TFT_Display.dir/E_/Pi_Pico/pico-sdk/src/common/pico_sync/mutex.c.obj
 .debug_loc     0x000070ef       0xc9 CMakeFiles/1.8inch_TFT_Display.dir/E_/Pi_Pico/pico-sdk/src/common/pico_sync/critical_section.c.obj
 .debug_loc     0x000071b8     0x13a5 CMakeFiles/1.8inch_TFT_Display.dir/E_/Pi_Pico/pico-sdk/src/common/pico_util/pheap.c.obj
 .debug_loc     0x0000855d      0x3d7 CMakeFiles/1.8inch_TFT_Display.dir/E_/Pi_Pico/pico-sdk/src/rp2_common/pico_runtime/runtime.c.obj
 .debug_loc     0x00008934      0x890 CMakeFiles/1.8inch_TFT_Display.dir/E_/Pi_Pico/pico-sdk/src/rp2_common/hardware_clocks/clocks.c.obj
 .debug_loc     0x000091c4      0x267 CMakeFiles/1.8inch_TFT_Display.dir/E_/Pi_Pico/pico-sdk/src/rp2_common/hardware_watchdog/watchdog.c.obj
 .debug_loc     0x0000942b       0x71 CMakeFiles/1.8inch_TFT_Display.dir/E_/Pi_Pico/pico-sdk/src/rp2_common/hardware_xosc/xosc.c.obj
 .debug_loc     0x0000949c      0x278 CMakeFiles/1.8inch_TFT_Display.dir/E_/Pi_Pico/pico-sdk/src/rp2_common/hardware_pll/pll.c.obj
 .debug_loc     0x00009714     0x1240 CMakeFiles/1.8inch_TFT_Display.dir/E_/Pi_Pico/pico-sdk/src/rp2_common/hardware_irq/irq.c.obj
 .debug_loc     0x0000a954     0x203e CMakeFiles/1.8inch_TFT_Display.dir/E_/Pi_Pico/pico-sdk/src/rp2_common/pico_printf/printf.c.obj
 .debug_loc     0x0000c992      0x16f CMakeFiles/1.8inch_TFT_Display.dir/E_/Pi_Pico/pico-sdk/src/rp2_common/pico_bootrom/bootrom.c.obj
 .debug_loc     0x0000cb01       0x59 CMakeFiles/1.8inch_TFT_Display.dir/E_/Pi_Pico/pico-sdk/src/rp2_common/pico_double/double_init_rom.c.obj
 .debug_loc     0x0000cb5a       0x73 CMakeFiles/1.8inch_TFT_Display.dir/E_/Pi_Pico/pico-sdk/src/rp2_common/pico_float/float_init_rom.c.obj
 .debug_loc     0x0000cbcd       0xbe CMakeFiles/1.8inch_TFT_Display.dir/E_/Pi_Pico/pico-sdk/src/rp2_common/pico_malloc/pico_malloc.c.obj
 .debug_loc     0x0000cc8b      0x993 CMakeFiles/1.8inch_TFT_Display.dir/E_/Pi_Pico/pico-sdk/src/rp2_common/pico_stdio/stdio.c.obj
 .debug_loc     0x0000d61e      0x465 CMakeFiles/1.8inch_TFT_Display.dir/E_/Pi_Pico/pico-sdk/src/rp2_common/pico_stdio_usb/stdio_usb.c.obj
 .debug_loc     0x0000da83      0x133 CMakeFiles/1.8inch_TFT_Display.dir/E_/Pi_Pico/pico-sdk/src/rp2_common/pico_stdio_usb/stdio_usb_descriptors.c.obj
 .debug_loc     0x0000dbb6      0xd88 CMakeFiles/1.8inch_TFT_Display.dir/E_/Pi_Pico/pico-sdk/lib/tinyusb/src/portable/raspberrypi/rp2040/dcd_rp2040.c.obj
 .debug_loc     0x0000e93e      0x583 CMakeFiles/1.8inch_TFT_Display.dir/E_/Pi_Pico/pico-sdk/lib/tinyusb/src/portable/raspberrypi/rp2040/rp2040_usb.c.obj
 .debug_loc     0x0000eec1     0x22ec CMakeFiles/1.8inch_TFT_Display.dir/E_/Pi_Pico/pico-sdk/lib/tinyusb/src/device/usbd.c.obj
 .debug_loc     0x000111ad      0x5b9 CMakeFiles/1.8inch_TFT_Display.dir/E_/Pi_Pico/pico-sdk/lib/tinyusb/src/device/usbd_control.c.obj
 .debug_loc     0x00011766      0xf74 CMakeFiles/1.8inch_TFT_Display.dir/E_/Pi_Pico/pico-sdk/lib/tinyusb/src/class/cdc/cdc_device.c.obj
 .debug_loc     0x000126da      0x2c7 CMakeFiles/1.8inch_TFT_Display.dir/E_/Pi_Pico/pico-sdk/lib/tinyusb/src/tusb.c.obj
 .debug_loc     0x000129a1     0x14dd CMakeFiles/1.8inch_TFT_Display.dir/E_/Pi_Pico/pico-sdk/lib/tinyusb/src/common/tusb_fifo.c.obj
 .debug_loc     0x00013e7e      0xb34 CMakeFiles/1.8inch_TFT_Display.dir/E_/Pi_Pico/pico-sdk/src/rp2_common/hardware_spi/spi.c.obj

.debug_aranges  0x00000000     0x12f0
 .debug_aranges
                0x00000000       0x28 CMakeFiles/1.8inch_TFT_Display.dir/src/main.c.obj
 .debug_aranges
                0x00000028      0x110 CMakeFiles/1.8inch_TFT_Display.dir/src/st7735.c.obj
 .debug_aranges
                0x00000138       0x18 CMakeFiles/1.8inch_TFT_Display.dir/src/fonts.c.obj
 .debug_aranges
                0x00000150       0xa0 CMakeFiles/1.8inch_TFT_Display.dir/E_/Pi_Pico/pico-sdk/src/rp2_common/hardware_gpio/gpio.c.obj
 .debug_aranges
                0x000001f0       0x48 CMakeFiles/1.8inch_TFT_Display.dir/E_/Pi_Pico/pico-sdk/src/rp2_common/hardware_claim/claim.c.obj
 .debug_aranges
                0x00000238       0x50 CMakeFiles/1.8inch_TFT_Display.dir/E_/Pi_Pico/pico-sdk/src/rp2_common/hardware_sync/sync.c.obj
 .debug_aranges
                0x00000288       0x28 CMakeFiles/1.8inch_TFT_Display.dir/E_/Pi_Pico/pico-sdk/src/rp2_common/pico_platform/platform.c.obj
 .debug_aranges
                0x000002b0       0xc8 CMakeFiles/1.8inch_TFT_Display.dir/E_/Pi_Pico/pico-sdk/src/common/pico_time/time.c.obj
 .debug_aranges
                0x00000378       0x68 CMakeFiles/1.8inch_TFT_Display.dir/E_/Pi_Pico/pico-sdk/src/rp2_common/hardware_timer/timer.c.obj
 .debug_aranges
                0x000003e0       0x20 CMakeFiles/1.8inch_TFT_Display.dir/E_/Pi_Pico/pico-sdk/src/common/pico_sync/lock_core.c.obj
 .debug_aranges
                0x00000400       0x48 CMakeFiles/1.8inch_TFT_Display.dir/E_/Pi_Pico/pico-sdk/src/common/pico_sync/mutex.c.obj
 .debug_aranges
                0x00000448       0x30 CMakeFiles/1.8inch_TFT_Display.dir/E_/Pi_Pico/pico-sdk/src/common/pico_sync/critical_section.c.obj
 .debug_aranges
                0x00000478       0x70 CMakeFiles/1.8inch_TFT_Display.dir/E_/Pi_Pico/pico-sdk/src/common/pico_util/pheap.c.obj
 .debug_aranges
                0x000004e8       0x60 CMakeFiles/1.8inch_TFT_Display.dir/E_/Pi_Pico/pico-sdk/src/rp2_common/pico_runtime/runtime.c.obj
 .debug_aranges
                0x00000548       0x70 CMakeFiles/1.8inch_TFT_Display.dir/E_/Pi_Pico/pico-sdk/src/rp2_common/hardware_clocks/clocks.c.obj
 .debug_aranges
                0x000005b8       0x50 CMakeFiles/1.8inch_TFT_Display.dir/E_/Pi_Pico/pico-sdk/src/rp2_common/hardware_watchdog/watchdog.c.obj
 .debug_aranges
                0x00000608       0x30 CMakeFiles/1.8inch_TFT_Display.dir/E_/Pi_Pico/pico-sdk/src/rp2_common/hardware_xosc/xosc.c.obj
 .debug_aranges
                0x00000638       0x28 CMakeFiles/1.8inch_TFT_Display.dir/E_/Pi_Pico/pico-sdk/src/rp2_common/hardware_pll/pll.c.obj
 .debug_aranges
                0x00000660       0x90 CMakeFiles/1.8inch_TFT_Display.dir/E_/Pi_Pico/pico-sdk/src/rp2_common/hardware_irq/irq.c.obj
 .debug_aranges
                0x000006f0       0x20 CMakeFiles/1.8inch_TFT_Display.dir/E_/Pi_Pico/pico-sdk/src/rp2_common/hardware_irq/irq_handler_chain.S.obj
 .debug_aranges
                0x00000710       0x90 CMakeFiles/1.8inch_TFT_Display.dir/E_/Pi_Pico/pico-sdk/src/rp2_common/pico_printf/printf.c.obj
 .debug_aranges
                0x000007a0       0x68 CMakeFiles/1.8inch_TFT_Display.dir/E_/Pi_Pico/pico-sdk/src/rp2_common/pico_bit_ops/bit_ops_aeabi.S.obj
 .debug_aranges
                0x00000808       0x30 CMakeFiles/1.8inch_TFT_Display.dir/E_/Pi_Pico/pico-sdk/src/rp2_common/pico_bootrom/bootrom.c.obj
 .debug_aranges
                0x00000838       0x40 CMakeFiles/1.8inch_TFT_Display.dir/E_/Pi_Pico/pico-sdk/src/rp2_common/pico_divider/divider.S.obj
 .debug_aranges
                0x00000878      0x140 CMakeFiles/1.8inch_TFT_Display.dir/E_/Pi_Pico/pico-sdk/src/rp2_common/pico_double/double_aeabi.S.obj
 .debug_aranges
                0x000009b8       0x20 CMakeFiles/1.8inch_TFT_Display.dir/E_/Pi_Pico/pico-sdk/src/rp2_common/pico_double/double_init_rom.c.obj
 .debug_aranges
                0x000009d8       0xc8 CMakeFiles/1.8inch_TFT_Display.dir/E_/Pi_Pico/pico-sdk/src/rp2_common/pico_double/double_v1_rom_shim.S.obj
 .debug_aranges
                0x00000aa0       0x20 CMakeFiles/1.8inch_TFT_Display.dir/E_/Pi_Pico/pico-sdk/src/rp2_common/pico_int64_ops/pico_int64_ops_aeabi.S.obj
 .debug_aranges
                0x00000ac0      0x130 CMakeFiles/1.8inch_TFT_Display.dir/E_/Pi_Pico/pico-sdk/src/rp2_common/pico_float/float_aeabi.S.obj
 .debug_aranges
                0x00000bf0       0x20 CMakeFiles/1.8inch_TFT_Display.dir/E_/Pi_Pico/pico-sdk/src/rp2_common/pico_float/float_init_rom.c.obj
 .debug_aranges
                0x00000c10       0x50 CMakeFiles/1.8inch_TFT_Display.dir/E_/Pi_Pico/pico-sdk/src/rp2_common/pico_float/float_v1_rom_shim.S.obj
 .debug_aranges
                0x00000c60       0x30 CMakeFiles/1.8inch_TFT_Display.dir/E_/Pi_Pico/pico-sdk/src/rp2_common/pico_malloc/pico_malloc.c.obj
 .debug_aranges
                0x00000c90       0x38 CMakeFiles/1.8inch_TFT_Display.dir/E_/Pi_Pico/pico-sdk/src/rp2_common/pico_mem_ops/mem_ops_aeabi.S.obj
 .debug_aranges
                0x00000cc8       0x28 CMakeFiles/1.8inch_TFT_Display.dir/E_/Pi_Pico/pico-sdk/src/rp2_common/pico_standard_link/crt0.S.obj
 .debug_aranges
                0x00000cf0       0x18 CMakeFiles/1.8inch_TFT_Display.dir/E_/Pi_Pico/pico-sdk/src/rp2_common/pico_standard_link/binary_info.c.obj
 .debug_aranges
                0x00000d08       0xb8 CMakeFiles/1.8inch_TFT_Display.dir/E_/Pi_Pico/pico-sdk/src/rp2_common/pico_stdio/stdio.c.obj
 .debug_aranges
                0x00000dc0       0x40 CMakeFiles/1.8inch_TFT_Display.dir/E_/Pi_Pico/pico-sdk/src/rp2_common/pico_stdio_usb/stdio_usb.c.obj
 .debug_aranges
                0x00000e00       0x30 CMakeFiles/1.8inch_TFT_Display.dir/E_/Pi_Pico/pico-sdk/src/rp2_common/pico_stdio_usb/stdio_usb_descriptors.c.obj
 .debug_aranges
                0x00000e30       0xe8 CMakeFiles/1.8inch_TFT_Display.dir/E_/Pi_Pico/pico-sdk/lib/tinyusb/src/portable/raspberrypi/rp2040/dcd_rp2040.c.obj
 .debug_aranges
                0x00000f18       0x58 CMakeFiles/1.8inch_TFT_Display.dir/E_/Pi_Pico/pico-sdk/lib/tinyusb/src/portable/raspberrypi/rp2040/rp2040_usb.c.obj
 .debug_aranges
                0x00000f70      0x110 CMakeFiles/1.8inch_TFT_Display.dir/E_/Pi_Pico/pico-sdk/lib/tinyusb/src/device/usbd.c.obj
 .debug_aranges
                0x00001080       0x50 CMakeFiles/1.8inch_TFT_Display.dir/E_/Pi_Pico/pico-sdk/lib/tinyusb/src/device/usbd_control.c.obj
 .debug_aranges
                0x000010d0       0xa8 CMakeFiles/1.8inch_TFT_Display.dir/E_/Pi_Pico/pico-sdk/lib/tinyusb/src/class/cdc/cdc_device.c.obj
 .debug_aranges
                0x00001178       0x38 CMakeFiles/1.8inch_TFT_Display.dir/E_/Pi_Pico/pico-sdk/lib/tinyusb/src/tusb.c.obj
 .debug_aranges
                0x000011b0       0xe0 CMakeFiles/1.8inch_TFT_Display.dir/E_/Pi_Pico/pico-sdk/lib/tinyusb/src/common/tusb_fifo.c.obj
 .debug_aranges
                0x00001290       0x60 CMakeFiles/1.8inch_TFT_Display.dir/E_/Pi_Pico/pico-sdk/src/rp2_common/hardware_spi/spi.c.obj

.debug_ranges   0x00000000     0x30e0
 .debug_ranges  0x00000000       0x18 CMakeFiles/1.8inch_TFT_Display.dir/src/main.c.obj
 .debug_ranges  0x00000018      0x118 CMakeFiles/1.8inch_TFT_Display.dir/src/st7735.c.obj
 .debug_ranges  0x00000130       0xa8 CMakeFiles/1.8inch_TFT_Display.dir/E_/Pi_Pico/pico-sdk/src/rp2_common/hardware_gpio/gpio.c.obj
 .debug_ranges  0x000001d8       0xd8 CMakeFiles/1.8inch_TFT_Display.dir/E_/Pi_Pico/pico-sdk/src/rp2_common/hardware_claim/claim.c.obj
 .debug_ranges  0x000002b0       0xb8 CMakeFiles/1.8inch_TFT_Display.dir/E_/Pi_Pico/pico-sdk/src/rp2_common/hardware_sync/sync.c.obj
 .debug_ranges  0x00000368       0x18 CMakeFiles/1.8inch_TFT_Display.dir/E_/Pi_Pico/pico-sdk/src/rp2_common/pico_platform/platform.c.obj
 .debug_ranges  0x00000380      0x7e8 CMakeFiles/1.8inch_TFT_Display.dir/E_/Pi_Pico/pico-sdk/src/common/pico_time/time.c.obj
 .debug_ranges  0x00000b68      0x2f0 CMakeFiles/1.8inch_TFT_Display.dir/E_/Pi_Pico/pico-sdk/src/rp2_common/hardware_timer/timer.c.obj
 .debug_ranges  0x00000e58       0x10 CMakeFiles/1.8inch_TFT_Display.dir/E_/Pi_Pico/pico-sdk/src/common/pico_sync/lock_core.c.obj
 .debug_ranges  0x00000e68      0x340 CMakeFiles/1.8inch_TFT_Display.dir/E_/Pi_Pico/pico-sdk/src/common/pico_sync/mutex.c.obj
 .debug_ranges  0x000011a8       0x38 CMakeFiles/1.8inch_TFT_Display.dir/E_/Pi_Pico/pico-sdk/src/common/pico_sync/critical_section.c.obj
 .debug_ranges  0x000011e0      0x240 CMakeFiles/1.8inch_TFT_Display.dir/E_/Pi_Pico/pico-sdk/src/common/pico_util/pheap.c.obj
 .debug_ranges  0x00001420       0x68 CMakeFiles/1.8inch_TFT_Display.dir/E_/Pi_Pico/pico-sdk/src/rp2_common/pico_runtime/runtime.c.obj
 .debug_ranges  0x00001488       0x78 CMakeFiles/1.8inch_TFT_Display.dir/E_/Pi_Pico/pico-sdk/src/rp2_common/hardware_clocks/clocks.c.obj
 .debug_ranges  0x00001500       0x40 CMakeFiles/1.8inch_TFT_Display.dir/E_/Pi_Pico/pico-sdk/src/rp2_common/hardware_watchdog/watchdog.c.obj
 .debug_ranges  0x00001540       0x20 CMakeFiles/1.8inch_TFT_Display.dir/E_/Pi_Pico/pico-sdk/src/rp2_common/hardware_xosc/xosc.c.obj
 .debug_ranges  0x00001560       0x18 CMakeFiles/1.8inch_TFT_Display.dir/E_/Pi_Pico/pico-sdk/src/rp2_common/hardware_pll/pll.c.obj
 .debug_ranges  0x00001578      0x3b0 CMakeFiles/1.8inch_TFT_Display.dir/E_/Pi_Pico/pico-sdk/src/rp2_common/hardware_irq/irq.c.obj
 .debug_ranges  0x00001928      0x108 CMakeFiles/1.8inch_TFT_Display.dir/E_/Pi_Pico/pico-sdk/src/rp2_common/pico_printf/printf.c.obj
 .debug_ranges  0x00001a30       0x60 CMakeFiles/1.8inch_TFT_Display.dir/E_/Pi_Pico/pico-sdk/src/rp2_common/pico_bit_ops/bit_ops_aeabi.S.obj
 .debug_ranges  0x00001a90       0x38 CMakeFiles/1.8inch_TFT_Display.dir/E_/Pi_Pico/pico-sdk/src/rp2_common/pico_bootrom/bootrom.c.obj
 .debug_ranges  0x00001ac8       0x38 CMakeFiles/1.8inch_TFT_Display.dir/E_/Pi_Pico/pico-sdk/src/rp2_common/pico_divider/divider.S.obj
 .debug_ranges  0x00001b00      0x138 CMakeFiles/1.8inch_TFT_Display.dir/E_/Pi_Pico/pico-sdk/src/rp2_common/pico_double/double_aeabi.S.obj
 .debug_ranges  0x00001c38       0x30 CMakeFiles/1.8inch_TFT_Display.dir/E_/Pi_Pico/pico-sdk/src/rp2_common/pico_double/double_init_rom.c.obj
 .debug_ranges  0x00001c68       0xc0 CMakeFiles/1.8inch_TFT_Display.dir/E_/Pi_Pico/pico-sdk/src/rp2_common/pico_double/double_v1_rom_shim.S.obj
 .debug_ranges  0x00001d28      0x128 CMakeFiles/1.8inch_TFT_Display.dir/E_/Pi_Pico/pico-sdk/src/rp2_common/pico_float/float_aeabi.S.obj
 .debug_ranges  0x00001e50       0x28 CMakeFiles/1.8inch_TFT_Display.dir/E_/Pi_Pico/pico-sdk/src/rp2_common/pico_float/float_init_rom.c.obj
 .debug_ranges  0x00001e78       0x48 CMakeFiles/1.8inch_TFT_Display.dir/E_/Pi_Pico/pico-sdk/src/rp2_common/pico_float/float_v1_rom_shim.S.obj
 .debug_ranges  0x00001ec0       0x20 CMakeFiles/1.8inch_TFT_Display.dir/E_/Pi_Pico/pico-sdk/src/rp2_common/pico_malloc/pico_malloc.c.obj
 .debug_ranges  0x00001ee0       0x30 CMakeFiles/1.8inch_TFT_Display.dir/E_/Pi_Pico/pico-sdk/src/rp2_common/pico_mem_ops/mem_ops_aeabi.S.obj
 .debug_ranges  0x00001f10       0x20 CMakeFiles/1.8inch_TFT_Display.dir/E_/Pi_Pico/pico-sdk/src/rp2_common/pico_standard_link/crt0.S.obj
 .debug_ranges  0x00001f30      0x120 CMakeFiles/1.8inch_TFT_Display.dir/E_/Pi_Pico/pico-sdk/src/rp2_common/pico_stdio/stdio.c.obj
 .debug_ranges  0x00002050       0x48 CMakeFiles/1.8inch_TFT_Display.dir/E_/Pi_Pico/pico-sdk/src/rp2_common/pico_stdio_usb/stdio_usb.c.obj
 .debug_ranges  0x00002098       0x20 CMakeFiles/1.8inch_TFT_Display.dir/E_/Pi_Pico/pico-sdk/src/rp2_common/pico_stdio_usb/stdio_usb_descriptors.c.obj
 .debug_ranges  0x000020b8      0x108 CMakeFiles/1.8inch_TFT_Display.dir/E_/Pi_Pico/pico-sdk/lib/tinyusb/src/portable/raspberrypi/rp2040/dcd_rp2040.c.obj
 .debug_ranges  0x000021c0       0x60 CMakeFiles/1.8inch_TFT_Display.dir/E_/Pi_Pico/pico-sdk/lib/tinyusb/src/portable/raspberrypi/rp2040/rp2040_usb.c.obj
 .debug_ranges  0x00002220      0x950 CMakeFiles/1.8inch_TFT_Display.dir/E_/Pi_Pico/pico-sdk/lib/tinyusb/src/device/usbd.c.obj
 .debug_ranges  0x00002b70       0x88 CMakeFiles/1.8inch_TFT_Display.dir/E_/Pi_Pico/pico-sdk/lib/tinyusb/src/device/usbd_control.c.obj
 .debug_ranges  0x00002bf8      0x110 CMakeFiles/1.8inch_TFT_Display.dir/E_/Pi_Pico/pico-sdk/lib/tinyusb/src/class/cdc/cdc_device.c.obj
 .debug_ranges  0x00002d08       0x88 CMakeFiles/1.8inch_TFT_Display.dir/E_/Pi_Pico/pico-sdk/lib/tinyusb/src/tusb.c.obj
 .debug_ranges  0x00002d90       0xd0 CMakeFiles/1.8inch_TFT_Display.dir/E_/Pi_Pico/pico-sdk/lib/tinyusb/src/common/tusb_fifo.c.obj
 .debug_ranges  0x00002e60      0x280 CMakeFiles/1.8inch_TFT_Display.dir/E_/Pi_Pico/pico-sdk/src/rp2_common/hardware_spi/spi.c.obj

.debug_line     0x00000000    0x136d3
 .debug_line    0x00000000      0x5a3 CMakeFiles/1.8inch_TFT_Display.dir/src/main.c.obj
 .debug_line    0x000005a3     0x166e CMakeFiles/1.8inch_TFT_Display.dir/src/st7735.c.obj
 .debug_line    0x00001c11      0x12c CMakeFiles/1.8inch_TFT_Display.dir/src/fonts.c.obj
 .debug_line    0x00001d3d      0x84e CMakeFiles/1.8inch_TFT_Display.dir/E_/Pi_Pico/pico-sdk/src/rp2_common/hardware_gpio/gpio.c.obj
 .debug_line    0x0000258b      0x435 CMakeFiles/1.8inch_TFT_Display.dir/E_/Pi_Pico/pico-sdk/src/rp2_common/hardware_claim/claim.c.obj
 .debug_line    0x000029c0      0x3d3 CMakeFiles/1.8inch_TFT_Display.dir/E_/Pi_Pico/pico-sdk/src/rp2_common/hardware_sync/sync.c.obj
 .debug_line    0x00002d93      0x20b CMakeFiles/1.8inch_TFT_Display.dir/E_/Pi_Pico/pico-sdk/src/rp2_common/pico_platform/platform.c.obj
 .debug_line    0x00002f9e     0x1658 CMakeFiles/1.8inch_TFT_Display.dir/E_/Pi_Pico/pico-sdk/src/common/pico_time/time.c.obj
 .debug_line    0x000045f6      0x9d5 CMakeFiles/1.8inch_TFT_Display.dir/E_/Pi_Pico/pico-sdk/src/rp2_common/hardware_timer/timer.c.obj
 .debug_line    0x00004fcb      0x23f CMakeFiles/1.8inch_TFT_Display.dir/E_/Pi_Pico/pico-sdk/src/common/pico_sync/lock_core.c.obj
 .debug_line    0x0000520a      0x79a CMakeFiles/1.8inch_TFT_Display.dir/E_/Pi_Pico/pico-sdk/src/common/pico_sync/mutex.c.obj
 .debug_line    0x000059a4      0x263 CMakeFiles/1.8inch_TFT_Display.dir/E_/Pi_Pico/pico-sdk/src/common/pico_sync/critical_section.c.obj
 .debug_line    0x00005c07      0x852 CMakeFiles/1.8inch_TFT_Display.dir/E_/Pi_Pico/pico-sdk/src/common/pico_util/pheap.c.obj
 .debug_line    0x00006459      0x78d CMakeFiles/1.8inch_TFT_Display.dir/E_/Pi_Pico/pico-sdk/src/rp2_common/pico_runtime/runtime.c.obj
 .debug_line    0x00006be6      0x9dc CMakeFiles/1.8inch_TFT_Display.dir/E_/Pi_Pico/pico-sdk/src/rp2_common/hardware_clocks/clocks.c.obj
 .debug_line    0x000075c2      0x381 CMakeFiles/1.8inch_TFT_Display.dir/E_/Pi_Pico/pico-sdk/src/rp2_common/hardware_watchdog/watchdog.c.obj
 .debug_line    0x00007943      0x280 CMakeFiles/1.8inch_TFT_Display.dir/E_/Pi_Pico/pico-sdk/src/rp2_common/hardware_xosc/xosc.c.obj
 .debug_line    0x00007bc3      0x36d CMakeFiles/1.8inch_TFT_Display.dir/E_/Pi_Pico/pico-sdk/src/rp2_common/hardware_pll/pll.c.obj
 .debug_line    0x00007f30      0xd51 CMakeFiles/1.8inch_TFT_Display.dir/E_/Pi_Pico/pico-sdk/src/rp2_common/hardware_irq/irq.c.obj
 .debug_line    0x00008c81       0x7d CMakeFiles/1.8inch_TFT_Display.dir/E_/Pi_Pico/pico-sdk/src/rp2_common/hardware_irq/irq_handler_chain.S.obj
 .debug_line    0x00008cfe     0x11c1 CMakeFiles/1.8inch_TFT_Display.dir/E_/Pi_Pico/pico-sdk/src/rp2_common/pico_printf/printf.c.obj
 .debug_line    0x00009ebf      0x140 CMakeFiles/1.8inch_TFT_Display.dir/E_/Pi_Pico/pico-sdk/src/rp2_common/pico_bit_ops/bit_ops_aeabi.S.obj
 .debug_line    0x00009fff      0x1b4 CMakeFiles/1.8inch_TFT_Display.dir/E_/Pi_Pico/pico-sdk/src/rp2_common/pico_bootrom/bootrom.c.obj
 .debug_line    0x0000a1b3      0x2c1 CMakeFiles/1.8inch_TFT_Display.dir/E_/Pi_Pico/pico-sdk/src/rp2_common/pico_divider/divider.S.obj
 .debug_line    0x0000a474      0x3fc CMakeFiles/1.8inch_TFT_Display.dir/E_/Pi_Pico/pico-sdk/src/rp2_common/pico_double/double_aeabi.S.obj
 .debug_line    0x0000a870      0x302 CMakeFiles/1.8inch_TFT_Display.dir/E_/Pi_Pico/pico-sdk/src/rp2_common/pico_double/double_init_rom.c.obj
 .debug_line    0x0000ab72      0x697 CMakeFiles/1.8inch_TFT_Display.dir/E_/Pi_Pico/pico-sdk/src/rp2_common/pico_double/double_v1_rom_shim.S.obj
 .debug_line    0x0000b209       0x90 CMakeFiles/1.8inch_TFT_Display.dir/E_/Pi_Pico/pico-sdk/src/rp2_common/pico_int64_ops/pico_int64_ops_aeabi.S.obj
 .debug_line    0x0000b299      0x3ba CMakeFiles/1.8inch_TFT_Display.dir/E_/Pi_Pico/pico-sdk/src/rp2_common/pico_float/float_aeabi.S.obj
 .debug_line    0x0000b653      0x304 CMakeFiles/1.8inch_TFT_Display.dir/E_/Pi_Pico/pico-sdk/src/rp2_common/pico_float/float_init_rom.c.obj
 .debug_line    0x0000b957      0x1c0 CMakeFiles/1.8inch_TFT_Display.dir/E_/Pi_Pico/pico-sdk/src/rp2_common/pico_float/float_v1_rom_shim.S.obj
 .debug_line    0x0000bb17      0x1ba CMakeFiles/1.8inch_TFT_Display.dir/E_/Pi_Pico/pico-sdk/src/rp2_common/pico_malloc/pico_malloc.c.obj
 .debug_line    0x0000bcd1       0xba CMakeFiles/1.8inch_TFT_Display.dir/E_/Pi_Pico/pico-sdk/src/rp2_common/pico_mem_ops/mem_ops_aeabi.S.obj
 .debug_line    0x0000bd8b       0xcb CMakeFiles/1.8inch_TFT_Display.dir/E_/Pi_Pico/pico-sdk/src/rp2_common/pico_standard_link/crt0.S.obj
 .debug_line    0x0000be56      0x192 CMakeFiles/1.8inch_TFT_Display.dir/E_/Pi_Pico/pico-sdk/src/rp2_common/pico_standard_link/binary_info.c.obj
 .debug_line    0x0000bfe8      0xbef CMakeFiles/1.8inch_TFT_Display.dir/E_/Pi_Pico/pico-sdk/src/rp2_common/pico_stdio/stdio.c.obj
 .debug_line    0x0000cbd7      0x7ef CMakeFiles/1.8inch_TFT_Display.dir/E_/Pi_Pico/pico-sdk/src/rp2_common/pico_stdio_usb/stdio_usb.c.obj
 .debug_line    0x0000d3c6      0x25d CMakeFiles/1.8inch_TFT_Display.dir/E_/Pi_Pico/pico-sdk/src/rp2_common/pico_stdio_usb/stdio_usb_descriptors.c.obj
 .debug_line    0x0000d623      0xb7f CMakeFiles/1.8inch_TFT_Display.dir/E_/Pi_Pico/pico-sdk/lib/tinyusb/src/portable/raspberrypi/rp2040/dcd_rp2040.c.obj
 .debug_line    0x0000e1a2      0x70b CMakeFiles/1.8inch_TFT_Display.dir/E_/Pi_Pico/pico-sdk/lib/tinyusb/src/portable/raspberrypi/rp2040/rp2040_usb.c.obj
 .debug_line    0x0000e8ad     0x1fc0 CMakeFiles/1.8inch_TFT_Display.dir/E_/Pi_Pico/pico-sdk/lib/tinyusb/src/device/usbd.c.obj
 .debug_line    0x0001086d      0x568 CMakeFiles/1.8inch_TFT_Display.dir/E_/Pi_Pico/pico-sdk/lib/tinyusb/src/device/usbd_control.c.obj
 .debug_line    0x00010dd5      0xe1f CMakeFiles/1.8inch_TFT_Display.dir/E_/Pi_Pico/pico-sdk/lib/tinyusb/src/class/cdc/cdc_device.c.obj
 .debug_line    0x00011bf4      0x417 CMakeFiles/1.8inch_TFT_Display.dir/E_/Pi_Pico/pico-sdk/lib/tinyusb/src/tusb.c.obj
 .debug_line    0x0001200b      0xa66 CMakeFiles/1.8inch_TFT_Display.dir/E_/Pi_Pico/pico-sdk/lib/tinyusb/src/common/tusb_fifo.c.obj
 .debug_line    0x00012a71      0xc62 CMakeFiles/1.8inch_TFT_Display.dir/E_/Pi_Pico/pico-sdk/src/rp2_common/hardware_spi/spi.c.obj

.debug_str      0x00000000     0x605b
 .debug_str     0x00000000      0x58e CMakeFiles/1.8inch_TFT_Display.dir/src/main.c.obj
                                0x61b (size before relaxing)
 .debug_str     0x0000058e      0x2f5 CMakeFiles/1.8inch_TFT_Display.dir/src/st7735.c.obj
                                0x7a5 (size before relaxing)
 .debug_str     0x00000883       0x57 CMakeFiles/1.8inch_TFT_Display.dir/src/fonts.c.obj
                                0x1f8 (size before relaxing)
 .debug_str     0x000008da      0x334 CMakeFiles/1.8inch_TFT_Display.dir/E_/Pi_Pico/pico-sdk/src/rp2_common/hardware_gpio/gpio.c.obj
                                0x7b7 (size before relaxing)
 .debug_str     0x00000c0e      0x1c3 CMakeFiles/1.8inch_TFT_Display.dir/E_/Pi_Pico/pico-sdk/src/rp2_common/hardware_claim/claim.c.obj
                                0x369 (size before relaxing)
 .debug_str     0x00000dd1       0xd0 CMakeFiles/1.8inch_TFT_Display.dir/E_/Pi_Pico/pico-sdk/src/rp2_common/hardware_sync/sync.c.obj
                                0x32d (size before relaxing)
 .debug_str     0x00000ea1       0x7a CMakeFiles/1.8inch_TFT_Display.dir/E_/Pi_Pico/pico-sdk/src/rp2_common/pico_platform/platform.c.obj
                                0x220 (size before relaxing)
 .debug_str     0x00000f1b      0x66c CMakeFiles/1.8inch_TFT_Display.dir/E_/Pi_Pico/pico-sdk/src/common/pico_time/time.c.obj
                                0xa73 (size before relaxing)
 .debug_str     0x00001587      0x135 CMakeFiles/1.8inch_TFT_Display.dir/E_/Pi_Pico/pico-sdk/src/rp2_common/hardware_timer/timer.c.obj
                                0x625 (size before relaxing)
 .debug_str     0x000016bc       0x55 CMakeFiles/1.8inch_TFT_Display.dir/E_/Pi_Pico/pico-sdk/src/common/pico_sync/lock_core.c.obj
                                0x20e (size before relaxing)
 .debug_str     0x00001711       0xdf CMakeFiles/1.8inch_TFT_Display.dir/E_/Pi_Pico/pico-sdk/src/common/pico_sync/mutex.c.obj
                                0x487 (size before relaxing)
 .debug_str     0x000017f0       0xcc CMakeFiles/1.8inch_TFT_Display.dir/E_/Pi_Pico/pico-sdk/src/common/pico_sync/critical_section.c.obj
                                0x2c3 (size before relaxing)
 .debug_str     0x000018bc       0xdc CMakeFiles/1.8inch_TFT_Display.dir/E_/Pi_Pico/pico-sdk/src/common/pico_util/pheap.c.obj
                                0x3d5 (size before relaxing)
 .debug_str     0x00001998      0x2c3 CMakeFiles/1.8inch_TFT_Display.dir/E_/Pi_Pico/pico-sdk/src/rp2_common/pico_runtime/runtime.c.obj
                                0x5b6 (size before relaxing)
 .debug_str     0x00001c5b      0x25f CMakeFiles/1.8inch_TFT_Display.dir/E_/Pi_Pico/pico-sdk/src/rp2_common/hardware_clocks/clocks.c.obj
                                0x6b2 (size before relaxing)
 .debug_str     0x00001eba      0x10a CMakeFiles/1.8inch_TFT_Display.dir/E_/Pi_Pico/pico-sdk/src/rp2_common/hardware_watchdog/watchdog.c.obj
                                0x309 (size before relaxing)
 .debug_str     0x00001fc4       0x7c CMakeFiles/1.8inch_TFT_Display.dir/E_/Pi_Pico/pico-sdk/src/rp2_common/hardware_xosc/xosc.c.obj
                                0x244 (size before relaxing)
 .debug_str     0x00002040       0x7e CMakeFiles/1.8inch_TFT_Display.dir/E_/Pi_Pico/pico-sdk/src/rp2_common/hardware_pll/pll.c.obj
                                0x287 (size before relaxing)
 .debug_str     0x000020be      0x2d6 CMakeFiles/1.8inch_TFT_Display.dir/E_/Pi_Pico/pico-sdk/src/rp2_common/hardware_irq/irq.c.obj
                                0x6bf (size before relaxing)
 .debug_str     0x00002394       0x52 CMakeFiles/1.8inch_TFT_Display.dir/E_/Pi_Pico/pico-sdk/src/rp2_common/hardware_irq/irq_handler_chain.S.obj
                                 0x86 (size before relaxing)
 .debug_str     0x000023e6      0x252 CMakeFiles/1.8inch_TFT_Display.dir/E_/Pi_Pico/pico-sdk/src/rp2_common/pico_printf/printf.c.obj
                                0x480 (size before relaxing)
 .debug_str     0x00002638       0x40 CMakeFiles/1.8inch_TFT_Display.dir/E_/Pi_Pico/pico-sdk/src/rp2_common/pico_bit_ops/bit_ops_aeabi.S.obj
                                 0x82 (size before relaxing)
 .debug_str     0x00002678       0xa6 CMakeFiles/1.8inch_TFT_Display.dir/E_/Pi_Pico/pico-sdk/src/rp2_common/pico_bootrom/bootrom.c.obj
                                0x248 (size before relaxing)
 .debug_str     0x0000271e       0x3a CMakeFiles/1.8inch_TFT_Display.dir/E_/Pi_Pico/pico-sdk/src/rp2_common/pico_divider/divider.S.obj
                                 0x7c (size before relaxing)
 .debug_str     0x00002758       0x3e CMakeFiles/1.8inch_TFT_Display.dir/E_/Pi_Pico/pico-sdk/src/rp2_common/pico_double/double_aeabi.S.obj
                                 0x80 (size before relaxing)
 .debug_str     0x00002796       0x8a CMakeFiles/1.8inch_TFT_Display.dir/E_/Pi_Pico/pico-sdk/src/rp2_common/pico_double/double_init_rom.c.obj
                                0x282 (size before relaxing)
 .debug_str     0x00002820       0x44 CMakeFiles/1.8inch_TFT_Display.dir/E_/Pi_Pico/pico-sdk/src/rp2_common/pico_double/double_v1_rom_shim.S.obj
                                 0x86 (size before relaxing)
 .debug_str     0x00002864       0x49 CMakeFiles/1.8inch_TFT_Display.dir/E_/Pi_Pico/pico-sdk/src/rp2_common/pico_int64_ops/pico_int64_ops_aeabi.S.obj
                                 0x8b (size before relaxing)
 .debug_str     0x000028ad       0x3c CMakeFiles/1.8inch_TFT_Display.dir/E_/Pi_Pico/pico-sdk/src/rp2_common/pico_float/float_aeabi.S.obj
                                 0x7e (size before relaxing)
 .debug_str     0x000028e9       0x86 CMakeFiles/1.8inch_TFT_Display.dir/E_/Pi_Pico/pico-sdk/src/rp2_common/pico_float/float_init_rom.c.obj
                                0x2ba (size before relaxing)
 .debug_str     0x0000296f       0x42 CMakeFiles/1.8inch_TFT_Display.dir/E_/Pi_Pico/pico-sdk/src/rp2_common/pico_float/float_v1_rom_shim.S.obj
                                 0x84 (size before relaxing)
 .debug_str     0x000029b1       0x99 CMakeFiles/1.8inch_TFT_Display.dir/E_/Pi_Pico/pico-sdk/src/rp2_common/pico_malloc/pico_malloc.c.obj
                                0x20f (size before relaxing)
 .debug_str     0x00002a4a       0x40 CMakeFiles/1.8inch_TFT_Display.dir/E_/Pi_Pico/pico-sdk/src/rp2_common/pico_mem_ops/mem_ops_aeabi.S.obj
                                 0x82 (size before relaxing)
 .debug_str     0x00002a8a       0x3d CMakeFiles/1.8inch_TFT_Display.dir/E_/Pi_Pico/pico-sdk/src/rp2_common/pico_standard_link/crt0.S.obj
                                 0x7f (size before relaxing)
 .debug_str     0x00002ac7      0x1e6 CMakeFiles/1.8inch_TFT_Display.dir/E_/Pi_Pico/pico-sdk/src/rp2_common/pico_standard_link/binary_info.c.obj
                                0x3af (size before relaxing)
 .debug_str     0x00002cad      0x2bc CMakeFiles/1.8inch_TFT_Display.dir/E_/Pi_Pico/pico-sdk/src/rp2_common/pico_stdio/stdio.c.obj
                                0x71b (size before relaxing)
 .debug_str     0x00002f69      0x342 CMakeFiles/1.8inch_TFT_Display.dir/E_/Pi_Pico/pico-sdk/src/rp2_common/pico_stdio_usb/stdio_usb.c.obj
                                0x836 (size before relaxing)
 .debug_str     0x000032ab      0xca4 CMakeFiles/1.8inch_TFT_Display.dir/E_/Pi_Pico/pico-sdk/src/rp2_common/pico_stdio_usb/stdio_usb_descriptors.c.obj
                                0xf69 (size before relaxing)
 .debug_str     0x00003f4f      0x96c CMakeFiles/1.8inch_TFT_Display.dir/E_/Pi_Pico/pico-sdk/lib/tinyusb/src/portable/raspberrypi/rp2040/dcd_rp2040.c.obj
                                0xdf9 (size before relaxing)
 .debug_str     0x000048bb      0x162 CMakeFiles/1.8inch_TFT_Display.dir/E_/Pi_Pico/pico-sdk/lib/tinyusb/src/portable/raspberrypi/rp2040/rp2040_usb.c.obj
                                0x8a2 (size before relaxing)
 .debug_str     0x00004a1d      0x9e2 CMakeFiles/1.8inch_TFT_Display.dir/E_/Pi_Pico/pico-sdk/lib/tinyusb/src/device/usbd.c.obj
                               0x171e (size before relaxing)
 .debug_str     0x000053ff       0xd6 CMakeFiles/1.8inch_TFT_Display.dir/E_/Pi_Pico/pico-sdk/lib/tinyusb/src/device/usbd_control.c.obj
                                0x5dc (size before relaxing)
 .debug_str     0x000054d5      0x75d CMakeFiles/1.8inch_TFT_Display.dir/E_/Pi_Pico/pico-sdk/lib/tinyusb/src/class/cdc/cdc_device.c.obj
                               0x16d3 (size before relaxing)
 .debug_str     0x00005c32       0x96 CMakeFiles/1.8inch_TFT_Display.dir/E_/Pi_Pico/pico-sdk/lib/tinyusb/src/tusb.c.obj
                                0x3cd (size before relaxing)
 .debug_str     0x00005cc8      0x1ab CMakeFiles/1.8inch_TFT_Display.dir/E_/Pi_Pico/pico-sdk/lib/tinyusb/src/common/tusb_fifo.c.obj
                                0x567 (size before relaxing)
 .debug_str     0x00005e73      0x1e8 CMakeFiles/1.8inch_TFT_Display.dir/E_/Pi_Pico/pico-sdk/src/rp2_common/hardware_spi/spi.c.obj
                                0x566 (size before relaxing)

.debug_frame    0x00000000     0x28ec
 .debug_frame   0x00000000       0x54 CMakeFiles/1.8inch_TFT_Display.dir/src/main.c.obj
 .debug_frame   0x00000054      0x438 CMakeFiles/1.8inch_TFT_Display.dir/src/st7735.c.obj
 .debug_frame   0x0000048c      0x178 CMakeFiles/1.8inch_TFT_Display.dir/E_/Pi_Pico/pico-sdk/src/rp2_common/hardware_gpio/gpio.c.obj
 .debug_frame   0x00000604       0xa8 CMakeFiles/1.8inch_TFT_Display.dir/E_/Pi_Pico/pico-sdk/src/rp2_common/hardware_claim/claim.c.obj
 .debug_frame   0x000006ac       0xac CMakeFiles/1.8inch_TFT_Display.dir/E_/Pi_Pico/pico-sdk/src/rp2_common/hardware_sync/sync.c.obj
 .debug_frame   0x00000758       0x38 CMakeFiles/1.8inch_TFT_Display.dir/E_/Pi_Pico/pico-sdk/src/rp2_common/pico_platform/platform.c.obj
 .debug_frame   0x00000790      0x280 CMakeFiles/1.8inch_TFT_Display.dir/E_/Pi_Pico/pico-sdk/src/common/pico_time/time.c.obj
 .debug_frame   0x00000a10      0x104 CMakeFiles/1.8inch_TFT_Display.dir/E_/Pi_Pico/pico-sdk/src/rp2_common/hardware_timer/timer.c.obj
 .debug_frame   0x00000b14       0x28 CMakeFiles/1.8inch_TFT_Display.dir/E_/Pi_Pico/pico-sdk/src/common/pico_sync/lock_core.c.obj
 .debug_frame   0x00000b3c       0xb0 CMakeFiles/1.8inch_TFT_Display.dir/E_/Pi_Pico/pico-sdk/src/common/pico_sync/mutex.c.obj
 .debug_frame   0x00000bec       0x58 CMakeFiles/1.8inch_TFT_Display.dir/E_/Pi_Pico/pico-sdk/src/common/pico_sync/critical_section.c.obj
 .debug_frame   0x00000c44      0x14c CMakeFiles/1.8inch_TFT_Display.dir/E_/Pi_Pico/pico-sdk/src/common/pico_util/pheap.c.obj
 .debug_frame   0x00000d90       0xdc CMakeFiles/1.8inch_TFT_Display.dir/E_/Pi_Pico/pico-sdk/src/rp2_common/pico_runtime/runtime.c.obj
 .debug_frame   0x00000e6c      0x128 CMakeFiles/1.8inch_TFT_Display.dir/E_/Pi_Pico/pico-sdk/src/rp2_common/hardware_clocks/clocks.c.obj
 .debug_frame   0x00000f94       0x98 CMakeFiles/1.8inch_TFT_Display.dir/E_/Pi_Pico/pico-sdk/src/rp2_common/hardware_watchdog/watchdog.c.obj
 .debug_frame   0x0000102c       0x40 CMakeFiles/1.8inch_TFT_Display.dir/E_/Pi_Pico/pico-sdk/src/rp2_common/hardware_xosc/xosc.c.obj
 .debug_frame   0x0000106c       0x48 CMakeFiles/1.8inch_TFT_Display.dir/E_/Pi_Pico/pico-sdk/src/rp2_common/hardware_pll/pll.c.obj
 .debug_frame   0x000010b4      0x180 CMakeFiles/1.8inch_TFT_Display.dir/E_/Pi_Pico/pico-sdk/src/rp2_common/hardware_irq/irq.c.obj
 .debug_frame   0x00001234      0x1f8 CMakeFiles/1.8inch_TFT_Display.dir/E_/Pi_Pico/pico-sdk/src/rp2_common/pico_printf/printf.c.obj
 .debug_frame   0x0000142c       0x64 CMakeFiles/1.8inch_TFT_Display.dir/E_/Pi_Pico/pico-sdk/src/rp2_common/pico_bootrom/bootrom.c.obj
 .debug_frame   0x00001490       0x2c CMakeFiles/1.8inch_TFT_Display.dir/E_/Pi_Pico/pico-sdk/src/rp2_common/pico_double/double_init_rom.c.obj
 .debug_frame   0x000014bc       0x2c CMakeFiles/1.8inch_TFT_Display.dir/E_/Pi_Pico/pico-sdk/src/rp2_common/pico_float/float_init_rom.c.obj
 .debug_frame   0x000014e8       0x58 CMakeFiles/1.8inch_TFT_Display.dir/E_/Pi_Pico/pico-sdk/src/rp2_common/pico_malloc/pico_malloc.c.obj
 .debug_frame   0x00001540      0x21c CMakeFiles/1.8inch_TFT_Display.dir/E_/Pi_Pico/pico-sdk/src/rp2_common/pico_stdio/stdio.c.obj
 .debug_frame   0x0000175c       0xa4 CMakeFiles/1.8inch_TFT_Display.dir/E_/Pi_Pico/pico-sdk/src/rp2_common/pico_stdio_usb/stdio_usb.c.obj
 .debug_frame   0x00001800       0x48 CMakeFiles/1.8inch_TFT_Display.dir/E_/Pi_Pico/pico-sdk/src/rp2_common/pico_stdio_usb/stdio_usb_descriptors.c.obj
 .debug_frame   0x00001848      0x294 CMakeFiles/1.8inch_TFT_Display.dir/E_/Pi_Pico/pico-sdk/lib/tinyusb/src/portable/raspberrypi/rp2040/dcd_rp2040.c.obj
 .debug_frame   0x00001adc       0xd8 CMakeFiles/1.8inch_TFT_Display.dir/E_/Pi_Pico/pico-sdk/lib/tinyusb/src/portable/raspberrypi/rp2040/rp2040_usb.c.obj
 .debug_frame   0x00001bb4      0x368 CMakeFiles/1.8inch_TFT_Display.dir/E_/Pi_Pico/pico-sdk/lib/tinyusb/src/device/usbd.c.obj
 .debug_frame   0x00001f1c       0xcc CMakeFiles/1.8inch_TFT_Display.dir/E_/Pi_Pico/pico-sdk/lib/tinyusb/src/device/usbd_control.c.obj
 .debug_frame   0x00001fe8      0x200 CMakeFiles/1.8inch_TFT_Display.dir/E_/Pi_Pico/pico-sdk/lib/tinyusb/src/class/cdc/cdc_device.c.obj
 .debug_frame   0x000021e8       0x80 CMakeFiles/1.8inch_TFT_Display.dir/E_/Pi_Pico/pico-sdk/lib/tinyusb/src/tusb.c.obj
 .debug_frame   0x00002268      0x2bc CMakeFiles/1.8inch_TFT_Display.dir/E_/Pi_Pico/pico-sdk/lib/tinyusb/src/common/tusb_fifo.c.obj
 .debug_frame   0x00002524      0x114 CMakeFiles/1.8inch_TFT_Display.dir/E_/Pi_Pico/pico-sdk/src/rp2_common/hardware_spi/spi.c.obj
 .debug_frame   0x00002638       0x28 c:/progra~2/gnuarm~1/102020~1/bin/../lib/gcc/arm-none-eabi/10.2.1/../../../../arm-none-eabi/lib/thumb/v6-m/nofp\libg.a(lib_a-calloc.o)
 .debug_frame   0x00002660       0x28 c:/progra~2/gnuarm~1/102020~1/bin/../lib/gcc/arm-none-eabi/10.2.1/../../../../arm-none-eabi/lib/thumb/v6-m/nofp\libg.a(lib_a-callocr.o)
 .debug_frame   0x00002688       0x40 c:/progra~2/gnuarm~1/102020~1/bin/../lib/gcc/arm-none-eabi/10.2.1/../../../../arm-none-eabi/lib/thumb/v6-m/nofp\libg.a(lib_a-malloc.o)
 .debug_frame   0x000026c8       0x3c c:/progra~2/gnuarm~1/102020~1/bin/../lib/gcc/arm-none-eabi/10.2.1/../../../../arm-none-eabi/lib/thumb/v6-m/nofp\libg.a(lib_a-mallocr.o)
 .debug_frame   0x00002704       0x40 c:/progra~2/gnuarm~1/102020~1/bin/../lib/gcc/arm-none-eabi/10.2.1/../../../../arm-none-eabi/lib/thumb/v6-m/nofp\libg.a(lib_a-mlock.o)
 .debug_frame   0x00002744       0x2c c:/progra~2/gnuarm~1/102020~1/bin/../lib/gcc/arm-none-eabi/10.2.1/../../../../arm-none-eabi/lib/thumb/v6-m/nofp\libg.a(lib_a-sbrkr.o)
 .debug_frame   0x00002770       0x28 c:/progra~2/gnuarm~1/102020~1/bin/../lib/gcc/arm-none-eabi/10.2.1/../../../../arm-none-eabi/lib/thumb/v6-m/nofp\libg.a(lib_a-strlen-stub.o)
 .debug_frame   0x00002798       0x54 c:/progra~2/gnuarm~1/102020~1/bin/../lib/gcc/arm-none-eabi/10.2.1/../../../../arm-none-eabi/lib/thumb/v6-m/nofp\libg.a(lib_a-freer.o)
 .debug_frame   0x000027ec       0xb0 c:/progra~2/gnuarm~1/102020~1/bin/../lib/gcc/arm-none-eabi/10.2.1/../../../../arm-none-eabi/lib/thumb/v6-m/nofp\libg.a(lib_a-lock.o)
 .debug_frame   0x0000289c       0x50 c:/progra~2/gnuarm~1/102020~1/bin/../lib/gcc/arm-none-eabi/10.2.1/../../../../arm-none-eabi/lib/thumb/v6-m/nofp\libg.a(lib_a-reent.o)
