Archive member included to satisfy reference by file (symbol)

libFreeRTOS.a(tasks.c.obj)    CMakeFiles/FreeRTOS_Blink.dir/src/main.c.obj (xTaskCreate)
libFreeRTOS.a(timers.c.obj)   libFreeRTOS.a(tasks.c.obj) (xTimerCreateTimerTask)
libFreeRTOS.a(port.c.obj)     libFreeRTOS.a(tasks.c.obj) (pxPortInitialiseStack)
libFreeRTOS.a(heap_4.c.obj)   libFreeRTOS.a(tasks.c.obj) (pvPortMalloc)
libFreeRTOS.a(list.c.obj)     libFreeRTOS.a(tasks.c.obj) (vListInitialise)
libFreeRTOS.a(queue.c.obj)    libFreeRTOS.a(timers.c.obj) (xQueueGenericCreate)
c:/progra~2/gnuarm~1/102020~1/bin/../lib/gcc/arm-none-eabi/10.2.1/thumb/v6-m/nofp\libgcc.a(_dvmd_tls.o)
                              CMakeFiles/FreeRTOS_Blink.dir/E_/Pi_Pico/pico-sdk/src/rp2_common/pico_divider/divider.S.obj (__aeabi_idiv0)
c:/progra~2/gnuarm~1/102020~1/bin/../lib/gcc/arm-none-eabi/10.2.1/../../../../arm-none-eabi/lib/thumb/v6-m/nofp\libg.a(lib_a-calloc.o)
                              CMakeFiles/FreeRTOS_Blink.dir/E_/Pi_Pico/pico-sdk/src/rp2_common/pico_malloc/pico_malloc.c.obj (calloc)
c:/progra~2/gnuarm~1/102020~1/bin/../lib/gcc/arm-none-eabi/10.2.1/../../../../arm-none-eabi/lib/thumb/v6-m/nofp\libg.a(lib_a-callocr.o)
                              c:/progra~2/gnuarm~1/102020~1/bin/../lib/gcc/arm-none-eabi/10.2.1/../../../../arm-none-eabi/lib/thumb/v6-m/nofp\libg.a(lib_a-calloc.o) (_calloc_r)
c:/progra~2/gnuarm~1/102020~1/bin/../lib/gcc/arm-none-eabi/10.2.1/../../../../arm-none-eabi/lib/thumb/v6-m/nofp\libg.a(lib_a-ctype_.o)
                              CMakeFiles/FreeRTOS_Blink.dir/E_/Pi_Pico/pico-sdk/lib/tinyusb/src/tusb.c.obj (_ctype_)
c:/progra~2/gnuarm~1/102020~1/bin/../lib/gcc/arm-none-eabi/10.2.1/../../../../arm-none-eabi/lib/thumb/v6-m/nofp\libg.a(lib_a-impure.o)
                              c:/progra~2/gnuarm~1/102020~1/bin/../lib/gcc/arm-none-eabi/10.2.1/../../../../arm-none-eabi/lib/thumb/v6-m/nofp\libg.a(lib_a-calloc.o) (_impure_ptr)
c:/progra~2/gnuarm~1/102020~1/bin/../lib/gcc/arm-none-eabi/10.2.1/../../../../arm-none-eabi/lib/thumb/v6-m/nofp\libg.a(lib_a-init.o)
                              c:/progra~2/gnuarm~1/102020~1/bin/../lib/gcc/arm-none-eabi/10.2.1/../../../../arm-none-eabi/lib/thumb/v6-m/nofp/crt0.o (__libc_init_array)
c:/progra~2/gnuarm~1/102020~1/bin/../lib/gcc/arm-none-eabi/10.2.1/../../../../arm-none-eabi/lib/thumb/v6-m/nofp\libg.a(lib_a-malloc.o)
                              CMakeFiles/FreeRTOS_Blink.dir/E_/Pi_Pico/pico-sdk/src/rp2_common/pico_malloc/pico_malloc.c.obj (malloc)
c:/progra~2/gnuarm~1/102020~1/bin/../lib/gcc/arm-none-eabi/10.2.1/../../../../arm-none-eabi/lib/thumb/v6-m/nofp\libg.a(lib_a-mallocr.o)
                              c:/progra~2/gnuarm~1/102020~1/bin/../lib/gcc/arm-none-eabi/10.2.1/../../../../arm-none-eabi/lib/thumb/v6-m/nofp\libg.a(lib_a-callocr.o) (_malloc_r)
c:/progra~2/gnuarm~1/102020~1/bin/../lib/gcc/arm-none-eabi/10.2.1/../../../../arm-none-eabi/lib/thumb/v6-m/nofp\libg.a(lib_a-mlock.o)
                              c:/progra~2/gnuarm~1/102020~1/bin/../lib/gcc/arm-none-eabi/10.2.1/../../../../arm-none-eabi/lib/thumb/v6-m/nofp\libg.a(lib_a-mallocr.o) (__malloc_lock)
c:/progra~2/gnuarm~1/102020~1/bin/../lib/gcc/arm-none-eabi/10.2.1/../../../../arm-none-eabi/lib/thumb/v6-m/nofp\libg.a(lib_a-sbrkr.o)
                              c:/progra~2/gnuarm~1/102020~1/bin/../lib/gcc/arm-none-eabi/10.2.1/../../../../arm-none-eabi/lib/thumb/v6-m/nofp\libg.a(lib_a-mallocr.o) (_sbrk_r)
c:/progra~2/gnuarm~1/102020~1/bin/../lib/gcc/arm-none-eabi/10.2.1/../../../../arm-none-eabi/lib/thumb/v6-m/nofp\libg.a(lib_a-strlen-stub.o)
                              CMakeFiles/FreeRTOS_Blink.dir/E_/Pi_Pico/pico-sdk/src/rp2_common/pico_stdio/stdio.c.obj (strlen)
c:/progra~2/gnuarm~1/102020~1/bin/../lib/gcc/arm-none-eabi/10.2.1/../../../../arm-none-eabi/lib/thumb/v6-m/nofp\libg.a(lib_a-freer.o)
                              c:/progra~2/gnuarm~1/102020~1/bin/../lib/gcc/arm-none-eabi/10.2.1/../../../../arm-none-eabi/lib/thumb/v6-m/nofp\libg.a(lib_a-malloc.o) (_free_r)
c:/progra~2/gnuarm~1/102020~1/bin/../lib/gcc/arm-none-eabi/10.2.1/../../../../arm-none-eabi/lib/thumb/v6-m/nofp\libg.a(lib_a-lock.o)
                              c:/progra~2/gnuarm~1/102020~1/bin/../lib/gcc/arm-none-eabi/10.2.1/../../../../arm-none-eabi/lib/thumb/v6-m/nofp\libg.a(lib_a-mlock.o) (__retarget_lock_acquire_recursive)
c:/progra~2/gnuarm~1/102020~1/bin/../lib/gcc/arm-none-eabi/10.2.1/../../../../arm-none-eabi/lib/thumb/v6-m/nofp\libg.a(lib_a-reent.o)
                              c:/progra~2/gnuarm~1/102020~1/bin/../lib/gcc/arm-none-eabi/10.2.1/../../../../arm-none-eabi/lib/thumb/v6-m/nofp\libg.a(lib_a-sbrkr.o) (errno)

Discarded input sections

 .text          0x00000000        0x0 c:/progra~2/gnuarm~1/102020~1/bin/../lib/gcc/arm-none-eabi/10.2.1/thumb/v6-m/nofp/crti.o
 .data          0x00000000        0x0 c:/progra~2/gnuarm~1/102020~1/bin/../lib/gcc/arm-none-eabi/10.2.1/thumb/v6-m/nofp/crti.o
 .bss           0x00000000        0x0 c:/progra~2/gnuarm~1/102020~1/bin/../lib/gcc/arm-none-eabi/10.2.1/thumb/v6-m/nofp/crti.o
 .data          0x00000000        0x4 c:/progra~2/gnuarm~1/102020~1/bin/../lib/gcc/arm-none-eabi/10.2.1/thumb/v6-m/nofp/crtbegin.o
 .rodata        0x00000000       0x24 c:/progra~2/gnuarm~1/102020~1/bin/../lib/gcc/arm-none-eabi/10.2.1/thumb/v6-m/nofp/crtbegin.o
 .fini_array    0x00000000        0x4 c:/progra~2/gnuarm~1/102020~1/bin/../lib/gcc/arm-none-eabi/10.2.1/thumb/v6-m/nofp/crtbegin.o
 .text          0x00000000       0x80 c:/progra~2/gnuarm~1/102020~1/bin/../lib/gcc/arm-none-eabi/10.2.1/../../../../arm-none-eabi/lib/thumb/v6-m/nofp/crt0.o
 .data          0x00000000        0x0 c:/progra~2/gnuarm~1/102020~1/bin/../lib/gcc/arm-none-eabi/10.2.1/../../../../arm-none-eabi/lib/thumb/v6-m/nofp/crt0.o
 .bss           0x00000000        0x0 c:/progra~2/gnuarm~1/102020~1/bin/../lib/gcc/arm-none-eabi/10.2.1/../../../../arm-none-eabi/lib/thumb/v6-m/nofp/crt0.o
 .ARM.extab     0x00000000        0x0 c:/progra~2/gnuarm~1/102020~1/bin/../lib/gcc/arm-none-eabi/10.2.1/../../../../arm-none-eabi/lib/thumb/v6-m/nofp/crt0.o
 .ARM.exidx     0x00000000       0x10 c:/progra~2/gnuarm~1/102020~1/bin/../lib/gcc/arm-none-eabi/10.2.1/../../../../arm-none-eabi/lib/thumb/v6-m/nofp/crt0.o
 .ARM.attributes
                0x00000000       0x1b c:/progra~2/gnuarm~1/102020~1/bin/../lib/gcc/arm-none-eabi/10.2.1/../../../../arm-none-eabi/lib/thumb/v6-m/nofp/crt0.o
 .text          0x00000000        0x0 CMakeFiles/FreeRTOS_Blink.dir/src/main.c.obj
 .data          0x00000000        0x0 CMakeFiles/FreeRTOS_Blink.dir/src/main.c.obj
 .bss           0x00000000        0x0 CMakeFiles/FreeRTOS_Blink.dir/src/main.c.obj
 .text          0x00000000        0x0 CMakeFiles/FreeRTOS_Blink.dir/E_/Pi_Pico/pico-sdk/src/rp2_common/pico_stdlib/stdlib.c.obj
 .data          0x00000000        0x0 CMakeFiles/FreeRTOS_Blink.dir/E_/Pi_Pico/pico-sdk/src/rp2_common/pico_stdlib/stdlib.c.obj
 .bss           0x00000000        0x0 CMakeFiles/FreeRTOS_Blink.dir/E_/Pi_Pico/pico-sdk/src/rp2_common/pico_stdlib/stdlib.c.obj
 .text.set_sys_clock_48mhz
                0x00000000       0x40 CMakeFiles/FreeRTOS_Blink.dir/E_/Pi_Pico/pico-sdk/src/rp2_common/pico_stdlib/stdlib.c.obj
 .text.set_sys_clock_pll
                0x00000000       0x7c CMakeFiles/FreeRTOS_Blink.dir/E_/Pi_Pico/pico-sdk/src/rp2_common/pico_stdlib/stdlib.c.obj
 .text.check_sys_clock_khz
                0x00000000       0xb0 CMakeFiles/FreeRTOS_Blink.dir/E_/Pi_Pico/pico-sdk/src/rp2_common/pico_stdlib/stdlib.c.obj
 .text.setup_default_uart
                0x00000000       0x2c CMakeFiles/FreeRTOS_Blink.dir/E_/Pi_Pico/pico-sdk/src/rp2_common/pico_stdlib/stdlib.c.obj
 .binary_info.__bi_ptr102
                0x00000000        0x4 CMakeFiles/FreeRTOS_Blink.dir/E_/Pi_Pico/pico-sdk/src/rp2_common/pico_stdlib/stdlib.c.obj
 .rodata.__bi_102.0
                0x00000000        0x8 CMakeFiles/FreeRTOS_Blink.dir/E_/Pi_Pico/pico-sdk/src/rp2_common/pico_stdlib/stdlib.c.obj
 .debug_info    0x00000000      0x763 CMakeFiles/FreeRTOS_Blink.dir/E_/Pi_Pico/pico-sdk/src/rp2_common/pico_stdlib/stdlib.c.obj
 .debug_abbrev  0x00000000      0x1f0 CMakeFiles/FreeRTOS_Blink.dir/E_/Pi_Pico/pico-sdk/src/rp2_common/pico_stdlib/stdlib.c.obj
 .debug_loc     0x00000000      0x2d7 CMakeFiles/FreeRTOS_Blink.dir/E_/Pi_Pico/pico-sdk/src/rp2_common/pico_stdlib/stdlib.c.obj
 .debug_aranges
                0x00000000       0x38 CMakeFiles/FreeRTOS_Blink.dir/E_/Pi_Pico/pico-sdk/src/rp2_common/pico_stdlib/stdlib.c.obj
 .debug_ranges  0x00000000       0x98 CMakeFiles/FreeRTOS_Blink.dir/E_/Pi_Pico/pico-sdk/src/rp2_common/pico_stdlib/stdlib.c.obj
 .debug_line    0x00000000      0x55b CMakeFiles/FreeRTOS_Blink.dir/E_/Pi_Pico/pico-sdk/src/rp2_common/pico_stdlib/stdlib.c.obj
 .debug_str     0x00000000      0x51c CMakeFiles/FreeRTOS_Blink.dir/E_/Pi_Pico/pico-sdk/src/rp2_common/pico_stdlib/stdlib.c.obj
 .comment       0x00000000       0x4e CMakeFiles/FreeRTOS_Blink.dir/E_/Pi_Pico/pico-sdk/src/rp2_common/pico_stdlib/stdlib.c.obj
 .debug_frame   0x00000000       0x90 CMakeFiles/FreeRTOS_Blink.dir/E_/Pi_Pico/pico-sdk/src/rp2_common/pico_stdlib/stdlib.c.obj
 .ARM.attributes
                0x00000000       0x2b CMakeFiles/FreeRTOS_Blink.dir/E_/Pi_Pico/pico-sdk/src/rp2_common/pico_stdlib/stdlib.c.obj
 .text          0x00000000        0x0 CMakeFiles/FreeRTOS_Blink.dir/E_/Pi_Pico/pico-sdk/src/rp2_common/hardware_gpio/gpio.c.obj
 .data          0x00000000        0x0 CMakeFiles/FreeRTOS_Blink.dir/E_/Pi_Pico/pico-sdk/src/rp2_common/hardware_gpio/gpio.c.obj
 .bss           0x00000000        0x0 CMakeFiles/FreeRTOS_Blink.dir/E_/Pi_Pico/pico-sdk/src/rp2_common/hardware_gpio/gpio.c.obj
 .text.gpio_get_pad
                0x00000000       0x28 CMakeFiles/FreeRTOS_Blink.dir/E_/Pi_Pico/pico-sdk/src/rp2_common/hardware_gpio/gpio.c.obj
 .text.gpio_get_function
                0x00000000       0x14 CMakeFiles/FreeRTOS_Blink.dir/E_/Pi_Pico/pico-sdk/src/rp2_common/hardware_gpio/gpio.c.obj
 .text.gpio_set_pulls
                0x00000000       0x34 CMakeFiles/FreeRTOS_Blink.dir/E_/Pi_Pico/pico-sdk/src/rp2_common/hardware_gpio/gpio.c.obj
 .text.gpio_set_inover
                0x00000000       0x24 CMakeFiles/FreeRTOS_Blink.dir/E_/Pi_Pico/pico-sdk/src/rp2_common/hardware_gpio/gpio.c.obj
 .text.gpio_set_outover
                0x00000000       0x24 CMakeFiles/FreeRTOS_Blink.dir/E_/Pi_Pico/pico-sdk/src/rp2_common/hardware_gpio/gpio.c.obj
 .text.gpio_set_oeover
                0x00000000       0x24 CMakeFiles/FreeRTOS_Blink.dir/E_/Pi_Pico/pico-sdk/src/rp2_common/hardware_gpio/gpio.c.obj
 .text.gpio_acknowledge_irq
                0x00000000       0x18 CMakeFiles/FreeRTOS_Blink.dir/E_/Pi_Pico/pico-sdk/src/rp2_common/hardware_gpio/gpio.c.obj
 .text._gpio_set_irq_enabled
                0x00000000       0x34 CMakeFiles/FreeRTOS_Blink.dir/E_/Pi_Pico/pico-sdk/src/rp2_common/hardware_gpio/gpio.c.obj
 .text.gpio_set_irq_enabled
                0x00000000       0x20 CMakeFiles/FreeRTOS_Blink.dir/E_/Pi_Pico/pico-sdk/src/rp2_common/hardware_gpio/gpio.c.obj
 .text.gpio_set_irq_enabled_with_callback
                0x00000000       0x30 CMakeFiles/FreeRTOS_Blink.dir/E_/Pi_Pico/pico-sdk/src/rp2_common/hardware_gpio/gpio.c.obj
 .text.gpio_set_dormant_irq_enabled
                0x00000000       0x10 CMakeFiles/FreeRTOS_Blink.dir/E_/Pi_Pico/pico-sdk/src/rp2_common/hardware_gpio/gpio.c.obj
 .text.gpio_irq_handler
                0x00000000       0x68 CMakeFiles/FreeRTOS_Blink.dir/E_/Pi_Pico/pico-sdk/src/rp2_common/hardware_gpio/gpio.c.obj
 .text.gpio_set_input_enabled
                0x00000000       0x30 CMakeFiles/FreeRTOS_Blink.dir/E_/Pi_Pico/pico-sdk/src/rp2_common/hardware_gpio/gpio.c.obj
 .text.gpio_init_mask
                0x00000000       0x1e CMakeFiles/FreeRTOS_Blink.dir/E_/Pi_Pico/pico-sdk/src/rp2_common/hardware_gpio/gpio.c.obj
 .text.gpio_debug_pins_init
                0x00000000       0x20 CMakeFiles/FreeRTOS_Blink.dir/E_/Pi_Pico/pico-sdk/src/rp2_common/hardware_gpio/gpio.c.obj
 .rodata.str1.4
                0x00000000        0x6 CMakeFiles/FreeRTOS_Blink.dir/E_/Pi_Pico/pico-sdk/src/rp2_common/hardware_gpio/gpio.c.obj
 .binary_info.__bi_ptr144
                0x00000000        0x4 CMakeFiles/FreeRTOS_Blink.dir/E_/Pi_Pico/pico-sdk/src/rp2_common/hardware_gpio/gpio.c.obj
 .bss._callbacks
                0x00000000        0x8 CMakeFiles/FreeRTOS_Blink.dir/E_/Pi_Pico/pico-sdk/src/rp2_common/hardware_gpio/gpio.c.obj
 .rodata.__bi_144.0
                0x00000000        0xc CMakeFiles/FreeRTOS_Blink.dir/E_/Pi_Pico/pico-sdk/src/rp2_common/hardware_gpio/gpio.c.obj
 .text          0x00000000        0x0 CMakeFiles/FreeRTOS_Blink.dir/E_/Pi_Pico/pico-sdk/src/rp2_common/hardware_claim/claim.c.obj
 .data          0x00000000        0x0 CMakeFiles/FreeRTOS_Blink.dir/E_/Pi_Pico/pico-sdk/src/rp2_common/hardware_claim/claim.c.obj
 .bss           0x00000000        0x0 CMakeFiles/FreeRTOS_Blink.dir/E_/Pi_Pico/pico-sdk/src/rp2_common/hardware_claim/claim.c.obj
 .text.hw_is_claimed
                0x00000000       0x32 CMakeFiles/FreeRTOS_Blink.dir/E_/Pi_Pico/pico-sdk/src/rp2_common/hardware_claim/claim.c.obj
 .rodata.hw_claim_clear.str1.4
                0x00000000       0x6e CMakeFiles/FreeRTOS_Blink.dir/E_/Pi_Pico/pico-sdk/src/rp2_common/hardware_claim/claim.c.obj
 .text.hw_claim_clear
                0x00000000       0x44 CMakeFiles/FreeRTOS_Blink.dir/E_/Pi_Pico/pico-sdk/src/rp2_common/hardware_claim/claim.c.obj
 .rodata.__func__.0
                0x00000000        0xf CMakeFiles/FreeRTOS_Blink.dir/E_/Pi_Pico/pico-sdk/src/rp2_common/hardware_claim/claim.c.obj
 .text          0x00000000        0x0 CMakeFiles/FreeRTOS_Blink.dir/E_/Pi_Pico/pico-sdk/src/rp2_common/hardware_sync/sync.c.obj
 .data          0x00000000        0x0 CMakeFiles/FreeRTOS_Blink.dir/E_/Pi_Pico/pico-sdk/src/rp2_common/hardware_sync/sync.c.obj
 .bss           0x00000000        0x0 CMakeFiles/FreeRTOS_Blink.dir/E_/Pi_Pico/pico-sdk/src/rp2_common/hardware_sync/sync.c.obj
 .rodata.spin_lock_init.str1.4
                0x00000000       0x64 CMakeFiles/FreeRTOS_Blink.dir/E_/Pi_Pico/pico-sdk/src/rp2_common/hardware_sync/sync.c.obj
 .text.spin_lock_init
                0x00000000       0x34 CMakeFiles/FreeRTOS_Blink.dir/E_/Pi_Pico/pico-sdk/src/rp2_common/hardware_sync/sync.c.obj
 .rodata.spin_lock_claim.str1.4
                0x00000000       0x1f CMakeFiles/FreeRTOS_Blink.dir/E_/Pi_Pico/pico-sdk/src/rp2_common/hardware_sync/sync.c.obj
 .text.spin_lock_claim
                0x00000000       0x18 CMakeFiles/FreeRTOS_Blink.dir/E_/Pi_Pico/pico-sdk/src/rp2_common/hardware_sync/sync.c.obj
 .text.spin_lock_claim_mask
                0x00000000       0x1e CMakeFiles/FreeRTOS_Blink.dir/E_/Pi_Pico/pico-sdk/src/rp2_common/hardware_sync/sync.c.obj
 .text.spin_lock_unclaim
                0x00000000       0x10 CMakeFiles/FreeRTOS_Blink.dir/E_/Pi_Pico/pico-sdk/src/rp2_common/hardware_sync/sync.c.obj
 .rodata.__func__.0
                0x00000000        0xf CMakeFiles/FreeRTOS_Blink.dir/E_/Pi_Pico/pico-sdk/src/rp2_common/hardware_sync/sync.c.obj
 .text          0x00000000        0x0 CMakeFiles/FreeRTOS_Blink.dir/E_/Pi_Pico/pico-sdk/src/rp2_common/pico_platform/platform.c.obj
 .data          0x00000000        0x0 CMakeFiles/FreeRTOS_Blink.dir/E_/Pi_Pico/pico-sdk/src/rp2_common/pico_platform/platform.c.obj
 .bss           0x00000000        0x0 CMakeFiles/FreeRTOS_Blink.dir/E_/Pi_Pico/pico-sdk/src/rp2_common/pico_platform/platform.c.obj
 .rodata.rp2040_chip_version.str1.4
                0x00000000       0x71 CMakeFiles/FreeRTOS_Blink.dir/E_/Pi_Pico/pico-sdk/src/rp2_common/pico_platform/platform.c.obj
 .text.rp2040_chip_version
                0x00000000       0x4c CMakeFiles/FreeRTOS_Blink.dir/E_/Pi_Pico/pico-sdk/src/rp2_common/pico_platform/platform.c.obj
 .rodata.__func__.0
                0x00000000       0x14 CMakeFiles/FreeRTOS_Blink.dir/E_/Pi_Pico/pico-sdk/src/rp2_common/pico_platform/platform.c.obj
 .text          0x00000000        0x0 CMakeFiles/FreeRTOS_Blink.dir/E_/Pi_Pico/pico-sdk/src/rp2_common/hardware_uart/uart.c.obj
 .data          0x00000000        0x0 CMakeFiles/FreeRTOS_Blink.dir/E_/Pi_Pico/pico-sdk/src/rp2_common/hardware_uart/uart.c.obj
 .bss           0x00000000        0x0 CMakeFiles/FreeRTOS_Blink.dir/E_/Pi_Pico/pico-sdk/src/rp2_common/hardware_uart/uart.c.obj
 .text.uart_deinit
                0x00000000       0x20 CMakeFiles/FreeRTOS_Blink.dir/E_/Pi_Pico/pico-sdk/src/rp2_common/hardware_uart/uart.c.obj
 .text.uart_set_baudrate
                0x00000000       0x64 CMakeFiles/FreeRTOS_Blink.dir/E_/Pi_Pico/pico-sdk/src/rp2_common/hardware_uart/uart.c.obj
 .text.uart_set_translate_crlf
                0x00000000       0x28 CMakeFiles/FreeRTOS_Blink.dir/E_/Pi_Pico/pico-sdk/src/rp2_common/hardware_uart/uart.c.obj
 .text.uart_init
                0x00000000       0x80 CMakeFiles/FreeRTOS_Blink.dir/E_/Pi_Pico/pico-sdk/src/rp2_common/hardware_uart/uart.c.obj
 .text.uart_is_readable_within_us
                0x00000000       0x20 CMakeFiles/FreeRTOS_Blink.dir/E_/Pi_Pico/pico-sdk/src/rp2_common/hardware_uart/uart.c.obj
 .bss.uart_char_to_line_feed
                0x00000000        0x4 CMakeFiles/FreeRTOS_Blink.dir/E_/Pi_Pico/pico-sdk/src/rp2_common/hardware_uart/uart.c.obj
 .debug_info    0x00000000      0xb64 CMakeFiles/FreeRTOS_Blink.dir/E_/Pi_Pico/pico-sdk/src/rp2_common/hardware_uart/uart.c.obj
 .debug_abbrev  0x00000000      0x2ce CMakeFiles/FreeRTOS_Blink.dir/E_/Pi_Pico/pico-sdk/src/rp2_common/hardware_uart/uart.c.obj
 .debug_loc     0x00000000      0x51e CMakeFiles/FreeRTOS_Blink.dir/E_/Pi_Pico/pico-sdk/src/rp2_common/hardware_uart/uart.c.obj
 .debug_aranges
                0x00000000       0x40 CMakeFiles/FreeRTOS_Blink.dir/E_/Pi_Pico/pico-sdk/src/rp2_common/hardware_uart/uart.c.obj
 .debug_ranges  0x00000000       0xf8 CMakeFiles/FreeRTOS_Blink.dir/E_/Pi_Pico/pico-sdk/src/rp2_common/hardware_uart/uart.c.obj
 .debug_line    0x00000000      0x6bb CMakeFiles/FreeRTOS_Blink.dir/E_/Pi_Pico/pico-sdk/src/rp2_common/hardware_uart/uart.c.obj
 .debug_str     0x00000000      0x538 CMakeFiles/FreeRTOS_Blink.dir/E_/Pi_Pico/pico-sdk/src/rp2_common/hardware_uart/uart.c.obj
 .comment       0x00000000       0x4e CMakeFiles/FreeRTOS_Blink.dir/E_/Pi_Pico/pico-sdk/src/rp2_common/hardware_uart/uart.c.obj
 .debug_frame   0x00000000       0x78 CMakeFiles/FreeRTOS_Blink.dir/E_/Pi_Pico/pico-sdk/src/rp2_common/hardware_uart/uart.c.obj
 .ARM.attributes
                0x00000000       0x2b CMakeFiles/FreeRTOS_Blink.dir/E_/Pi_Pico/pico-sdk/src/rp2_common/hardware_uart/uart.c.obj
 .text          0x00000000        0x0 CMakeFiles/FreeRTOS_Blink.dir/E_/Pi_Pico/pico-sdk/src/rp2_common/hardware_divider/divider.S.obj
 .data          0x00000000        0x0 CMakeFiles/FreeRTOS_Blink.dir/E_/Pi_Pico/pico-sdk/src/rp2_common/hardware_divider/divider.S.obj
 .bss           0x00000000        0x0 CMakeFiles/FreeRTOS_Blink.dir/E_/Pi_Pico/pico-sdk/src/rp2_common/hardware_divider/divider.S.obj
 .text.hw_divider_divmod_s32
                0x00000000       0x18 CMakeFiles/FreeRTOS_Blink.dir/E_/Pi_Pico/pico-sdk/src/rp2_common/hardware_divider/divider.S.obj
 .text.hw_divider_divmod_u32
                0x00000000       0x18 CMakeFiles/FreeRTOS_Blink.dir/E_/Pi_Pico/pico-sdk/src/rp2_common/hardware_divider/divider.S.obj
 .text.hw_divider_save_state
                0x00000000       0x1c CMakeFiles/FreeRTOS_Blink.dir/E_/Pi_Pico/pico-sdk/src/rp2_common/hardware_divider/divider.S.obj
 .text.hw_divider_restore_state
                0x00000000       0x14 CMakeFiles/FreeRTOS_Blink.dir/E_/Pi_Pico/pico-sdk/src/rp2_common/hardware_divider/divider.S.obj
 .debug_line    0x00000000       0xc4 CMakeFiles/FreeRTOS_Blink.dir/E_/Pi_Pico/pico-sdk/src/rp2_common/hardware_divider/divider.S.obj
 .debug_info    0x00000000       0x22 CMakeFiles/FreeRTOS_Blink.dir/E_/Pi_Pico/pico-sdk/src/rp2_common/hardware_divider/divider.S.obj
 .debug_abbrev  0x00000000       0x12 CMakeFiles/FreeRTOS_Blink.dir/E_/Pi_Pico/pico-sdk/src/rp2_common/hardware_divider/divider.S.obj
 .debug_aranges
                0x00000000       0x38 CMakeFiles/FreeRTOS_Blink.dir/E_/Pi_Pico/pico-sdk/src/rp2_common/hardware_divider/divider.S.obj
 .debug_str     0x00000000       0x7b CMakeFiles/FreeRTOS_Blink.dir/E_/Pi_Pico/pico-sdk/src/rp2_common/hardware_divider/divider.S.obj
 .debug_ranges  0x00000000       0x30 CMakeFiles/FreeRTOS_Blink.dir/E_/Pi_Pico/pico-sdk/src/rp2_common/hardware_divider/divider.S.obj
 .ARM.attributes
                0x00000000       0x22 CMakeFiles/FreeRTOS_Blink.dir/E_/Pi_Pico/pico-sdk/src/rp2_common/hardware_divider/divider.S.obj
 .text          0x00000000        0x0 CMakeFiles/FreeRTOS_Blink.dir/E_/Pi_Pico/pico-sdk/src/common/pico_time/time.c.obj
 .data          0x00000000        0x0 CMakeFiles/FreeRTOS_Blink.dir/E_/Pi_Pico/pico-sdk/src/common/pico_time/time.c.obj
 .bss           0x00000000        0x0 CMakeFiles/FreeRTOS_Blink.dir/E_/Pi_Pico/pico-sdk/src/common/pico_time/time.c.obj
 .text.repeating_timer_callback
                0x00000000       0x1e CMakeFiles/FreeRTOS_Blink.dir/E_/Pi_Pico/pico-sdk/src/common/pico_time/time.c.obj
 .text.alarm_pool_dump_key
                0x00000000       0x70 CMakeFiles/FreeRTOS_Blink.dir/E_/Pi_Pico/pico-sdk/src/common/pico_time/time.c.obj
 .rodata.alarm_pool_destroy.str1.4
                0x00000000       0x28 CMakeFiles/FreeRTOS_Blink.dir/E_/Pi_Pico/pico-sdk/src/common/pico_time/time.c.obj
 .text.alarm_pool_destroy
                0x00000000       0x5c CMakeFiles/FreeRTOS_Blink.dir/E_/Pi_Pico/pico-sdk/src/common/pico_time/time.c.obj
 .text.alarm_pool_hardware_alarm_num
                0x00000000        0x4 CMakeFiles/FreeRTOS_Blink.dir/E_/Pi_Pico/pico-sdk/src/common/pico_time/time.c.obj
 .text.alarm_pool_add_repeating_timer_us
                0x00000000       0x74 CMakeFiles/FreeRTOS_Blink.dir/E_/Pi_Pico/pico-sdk/src/common/pico_time/time.c.obj
 .text.cancel_repeating_timer
                0x00000000       0x1a CMakeFiles/FreeRTOS_Blink.dir/E_/Pi_Pico/pico-sdk/src/common/pico_time/time.c.obj
 .text.alarm_pool_dump
                0x00000000       0x34 CMakeFiles/FreeRTOS_Blink.dir/E_/Pi_Pico/pico-sdk/src/common/pico_time/time.c.obj
 .text.sleep_until
                0x00000000       0x94 CMakeFiles/FreeRTOS_Blink.dir/E_/Pi_Pico/pico-sdk/src/common/pico_time/time.c.obj
 .text.sleep_us
                0x00000000       0x2c CMakeFiles/FreeRTOS_Blink.dir/E_/Pi_Pico/pico-sdk/src/common/pico_time/time.c.obj
 .text.sleep_ms
                0x00000000       0x14 CMakeFiles/FreeRTOS_Blink.dir/E_/Pi_Pico/pico-sdk/src/common/pico_time/time.c.obj
 .rodata.__func__.1
                0x00000000       0x13 CMakeFiles/FreeRTOS_Blink.dir/E_/Pi_Pico/pico-sdk/src/common/pico_time/time.c.obj
 .rodata.at_the_end_of_time
                0x00000000        0x8 CMakeFiles/FreeRTOS_Blink.dir/E_/Pi_Pico/pico-sdk/src/common/pico_time/time.c.obj
 .rodata.nil_time
                0x00000000        0x8 CMakeFiles/FreeRTOS_Blink.dir/E_/Pi_Pico/pico-sdk/src/common/pico_time/time.c.obj
 .text          0x00000000        0x0 CMakeFiles/FreeRTOS_Blink.dir/E_/Pi_Pico/pico-sdk/src/common/pico_time/timeout_helper.c.obj
 .data          0x00000000        0x0 CMakeFiles/FreeRTOS_Blink.dir/E_/Pi_Pico/pico-sdk/src/common/pico_time/timeout_helper.c.obj
 .bss           0x00000000        0x0 CMakeFiles/FreeRTOS_Blink.dir/E_/Pi_Pico/pico-sdk/src/common/pico_time/timeout_helper.c.obj
 .text.check_per_iteration_timeout_us
                0x00000000       0x60 CMakeFiles/FreeRTOS_Blink.dir/E_/Pi_Pico/pico-sdk/src/common/pico_time/timeout_helper.c.obj
 .text.check_single_timeout_us
                0x00000000       0x2c CMakeFiles/FreeRTOS_Blink.dir/E_/Pi_Pico/pico-sdk/src/common/pico_time/timeout_helper.c.obj
 .text.init_single_timeout_until
                0x00000000        0xc CMakeFiles/FreeRTOS_Blink.dir/E_/Pi_Pico/pico-sdk/src/common/pico_time/timeout_helper.c.obj
 .text.init_per_iteration_timeout_us
                0x00000000       0x38 CMakeFiles/FreeRTOS_Blink.dir/E_/Pi_Pico/pico-sdk/src/common/pico_time/timeout_helper.c.obj
 .debug_info    0x00000000      0x70b CMakeFiles/FreeRTOS_Blink.dir/E_/Pi_Pico/pico-sdk/src/common/pico_time/timeout_helper.c.obj
 .debug_abbrev  0x00000000      0x232 CMakeFiles/FreeRTOS_Blink.dir/E_/Pi_Pico/pico-sdk/src/common/pico_time/timeout_helper.c.obj
 .debug_loc     0x00000000      0x35b CMakeFiles/FreeRTOS_Blink.dir/E_/Pi_Pico/pico-sdk/src/common/pico_time/timeout_helper.c.obj
 .debug_aranges
                0x00000000       0x38 CMakeFiles/FreeRTOS_Blink.dir/E_/Pi_Pico/pico-sdk/src/common/pico_time/timeout_helper.c.obj
 .debug_ranges  0x00000000       0x58 CMakeFiles/FreeRTOS_Blink.dir/E_/Pi_Pico/pico-sdk/src/common/pico_time/timeout_helper.c.obj
 .debug_line    0x00000000      0x49e CMakeFiles/FreeRTOS_Blink.dir/E_/Pi_Pico/pico-sdk/src/common/pico_time/timeout_helper.c.obj
 .debug_str     0x00000000      0x3c3 CMakeFiles/FreeRTOS_Blink.dir/E_/Pi_Pico/pico-sdk/src/common/pico_time/timeout_helper.c.obj
 .comment       0x00000000       0x4e CMakeFiles/FreeRTOS_Blink.dir/E_/Pi_Pico/pico-sdk/src/common/pico_time/timeout_helper.c.obj
 .debug_frame   0x00000000       0x6c CMakeFiles/FreeRTOS_Blink.dir/E_/Pi_Pico/pico-sdk/src/common/pico_time/timeout_helper.c.obj
 .ARM.attributes
                0x00000000       0x2b CMakeFiles/FreeRTOS_Blink.dir/E_/Pi_Pico/pico-sdk/src/common/pico_time/timeout_helper.c.obj
 .text          0x00000000        0x0 CMakeFiles/FreeRTOS_Blink.dir/E_/Pi_Pico/pico-sdk/src/rp2_common/hardware_timer/timer.c.obj
 .data          0x00000000        0x0 CMakeFiles/FreeRTOS_Blink.dir/E_/Pi_Pico/pico-sdk/src/rp2_common/hardware_timer/timer.c.obj
 .bss           0x00000000        0x0 CMakeFiles/FreeRTOS_Blink.dir/E_/Pi_Pico/pico-sdk/src/rp2_common/hardware_timer/timer.c.obj
 .text.hardware_alarm_unclaim
                0x00000000       0x10 CMakeFiles/FreeRTOS_Blink.dir/E_/Pi_Pico/pico-sdk/src/rp2_common/hardware_timer/timer.c.obj
 .text.busy_wait_until
                0x00000000       0x28 CMakeFiles/FreeRTOS_Blink.dir/E_/Pi_Pico/pico-sdk/src/rp2_common/hardware_timer/timer.c.obj
 .text.busy_wait_us
                0x00000000       0x2c CMakeFiles/FreeRTOS_Blink.dir/E_/Pi_Pico/pico-sdk/src/rp2_common/hardware_timer/timer.c.obj
 .text.busy_wait_us_32
                0x00000000       0x24 CMakeFiles/FreeRTOS_Blink.dir/E_/Pi_Pico/pico-sdk/src/rp2_common/hardware_timer/timer.c.obj
 .text          0x00000000        0x0 CMakeFiles/FreeRTOS_Blink.dir/E_/Pi_Pico/pico-sdk/src/common/pico_sync/sem.c.obj
 .data          0x00000000        0x0 CMakeFiles/FreeRTOS_Blink.dir/E_/Pi_Pico/pico-sdk/src/common/pico_sync/sem.c.obj
 .bss           0x00000000        0x0 CMakeFiles/FreeRTOS_Blink.dir/E_/Pi_Pico/pico-sdk/src/common/pico_sync/sem.c.obj
 .text.sem_init
                0x00000000       0x1e CMakeFiles/FreeRTOS_Blink.dir/E_/Pi_Pico/pico-sdk/src/common/pico_sync/sem.c.obj
 .time_critical.sem_available
                0x00000000        0x6 CMakeFiles/FreeRTOS_Blink.dir/E_/Pi_Pico/pico-sdk/src/common/pico_sync/sem.c.obj
 .time_critical.sem_acquire_blocking
                0x00000000       0x3e CMakeFiles/FreeRTOS_Blink.dir/E_/Pi_Pico/pico-sdk/src/common/pico_sync/sem.c.obj
 .time_critical.sem_acquire_timeout_ms
                0x00000000       0xa8 CMakeFiles/FreeRTOS_Blink.dir/E_/Pi_Pico/pico-sdk/src/common/pico_sync/sem.c.obj
 .time_critical.sem_release
                0x00000000       0x3c CMakeFiles/FreeRTOS_Blink.dir/E_/Pi_Pico/pico-sdk/src/common/pico_sync/sem.c.obj
 .rodata.str1.4
                0x00000000       0x5b CMakeFiles/FreeRTOS_Blink.dir/E_/Pi_Pico/pico-sdk/src/common/pico_sync/sem.c.obj
 .time_critical.sem_reset
                0x00000000       0x54 CMakeFiles/FreeRTOS_Blink.dir/E_/Pi_Pico/pico-sdk/src/common/pico_sync/sem.c.obj
 .rodata.__func__.0
                0x00000000        0xa CMakeFiles/FreeRTOS_Blink.dir/E_/Pi_Pico/pico-sdk/src/common/pico_sync/sem.c.obj
 .debug_info    0x00000000      0xd2d CMakeFiles/FreeRTOS_Blink.dir/E_/Pi_Pico/pico-sdk/src/common/pico_sync/sem.c.obj
 .debug_abbrev  0x00000000      0x338 CMakeFiles/FreeRTOS_Blink.dir/E_/Pi_Pico/pico-sdk/src/common/pico_sync/sem.c.obj
 .debug_loc     0x00000000      0x685 CMakeFiles/FreeRTOS_Blink.dir/E_/Pi_Pico/pico-sdk/src/common/pico_sync/sem.c.obj
 .debug_aranges
                0x00000000       0x48 CMakeFiles/FreeRTOS_Blink.dir/E_/Pi_Pico/pico-sdk/src/common/pico_sync/sem.c.obj
 .debug_ranges  0x00000000      0x338 CMakeFiles/FreeRTOS_Blink.dir/E_/Pi_Pico/pico-sdk/src/common/pico_sync/sem.c.obj
 .debug_line    0x00000000      0x7a6 CMakeFiles/FreeRTOS_Blink.dir/E_/Pi_Pico/pico-sdk/src/common/pico_sync/sem.c.obj
 .debug_str     0x00000000      0x495 CMakeFiles/FreeRTOS_Blink.dir/E_/Pi_Pico/pico-sdk/src/common/pico_sync/sem.c.obj
 .comment       0x00000000       0x4e CMakeFiles/FreeRTOS_Blink.dir/E_/Pi_Pico/pico-sdk/src/common/pico_sync/sem.c.obj
 .debug_frame   0x00000000       0x94 CMakeFiles/FreeRTOS_Blink.dir/E_/Pi_Pico/pico-sdk/src/common/pico_sync/sem.c.obj
 .ARM.attributes
                0x00000000       0x2b CMakeFiles/FreeRTOS_Blink.dir/E_/Pi_Pico/pico-sdk/src/common/pico_sync/sem.c.obj
 .text          0x00000000        0x0 CMakeFiles/FreeRTOS_Blink.dir/E_/Pi_Pico/pico-sdk/src/common/pico_sync/lock_core.c.obj
 .data          0x00000000        0x0 CMakeFiles/FreeRTOS_Blink.dir/E_/Pi_Pico/pico-sdk/src/common/pico_sync/lock_core.c.obj
 .bss           0x00000000        0x0 CMakeFiles/FreeRTOS_Blink.dir/E_/Pi_Pico/pico-sdk/src/common/pico_sync/lock_core.c.obj
 .text          0x00000000        0x0 CMakeFiles/FreeRTOS_Blink.dir/E_/Pi_Pico/pico-sdk/src/common/pico_sync/mutex.c.obj
 .data          0x00000000        0x0 CMakeFiles/FreeRTOS_Blink.dir/E_/Pi_Pico/pico-sdk/src/common/pico_sync/mutex.c.obj
 .bss           0x00000000        0x0 CMakeFiles/FreeRTOS_Blink.dir/E_/Pi_Pico/pico-sdk/src/common/pico_sync/mutex.c.obj
 .text          0x00000000        0x0 CMakeFiles/FreeRTOS_Blink.dir/E_/Pi_Pico/pico-sdk/src/common/pico_sync/critical_section.c.obj
 .data          0x00000000        0x0 CMakeFiles/FreeRTOS_Blink.dir/E_/Pi_Pico/pico-sdk/src/common/pico_sync/critical_section.c.obj
 .bss           0x00000000        0x0 CMakeFiles/FreeRTOS_Blink.dir/E_/Pi_Pico/pico-sdk/src/common/pico_sync/critical_section.c.obj
 .text.critical_section_deinit
                0x00000000       0x18 CMakeFiles/FreeRTOS_Blink.dir/E_/Pi_Pico/pico-sdk/src/common/pico_sync/critical_section.c.obj
 .text          0x00000000        0x0 CMakeFiles/FreeRTOS_Blink.dir/E_/Pi_Pico/pico-sdk/src/common/pico_util/datetime.c.obj
 .data          0x00000000        0x0 CMakeFiles/FreeRTOS_Blink.dir/E_/Pi_Pico/pico-sdk/src/common/pico_util/datetime.c.obj
 .bss           0x00000000        0x0 CMakeFiles/FreeRTOS_Blink.dir/E_/Pi_Pico/pico-sdk/src/common/pico_util/datetime.c.obj
 .rodata.datetime_to_str.str1.4
                0x00000000       0x19 CMakeFiles/FreeRTOS_Blink.dir/E_/Pi_Pico/pico-sdk/src/common/pico_util/datetime.c.obj
 .text.datetime_to_str
                0x00000000       0x64 CMakeFiles/FreeRTOS_Blink.dir/E_/Pi_Pico/pico-sdk/src/common/pico_util/datetime.c.obj
 .rodata.str1.4
                0x00000000       0xad CMakeFiles/FreeRTOS_Blink.dir/E_/Pi_Pico/pico-sdk/src/common/pico_util/datetime.c.obj
 .rodata.DATETIME_DOWS
                0x00000000       0x1c CMakeFiles/FreeRTOS_Blink.dir/E_/Pi_Pico/pico-sdk/src/common/pico_util/datetime.c.obj
 .rodata.DATETIME_MONTHS
                0x00000000       0x30 CMakeFiles/FreeRTOS_Blink.dir/E_/Pi_Pico/pico-sdk/src/common/pico_util/datetime.c.obj
 .debug_info    0x00000000      0x21a CMakeFiles/FreeRTOS_Blink.dir/E_/Pi_Pico/pico-sdk/src/common/pico_util/datetime.c.obj
 .debug_abbrev  0x00000000      0x10b CMakeFiles/FreeRTOS_Blink.dir/E_/Pi_Pico/pico-sdk/src/common/pico_util/datetime.c.obj
 .debug_loc     0x00000000       0x7c CMakeFiles/FreeRTOS_Blink.dir/E_/Pi_Pico/pico-sdk/src/common/pico_util/datetime.c.obj
 .debug_aranges
                0x00000000       0x20 CMakeFiles/FreeRTOS_Blink.dir/E_/Pi_Pico/pico-sdk/src/common/pico_util/datetime.c.obj
 .debug_ranges  0x00000000       0x10 CMakeFiles/FreeRTOS_Blink.dir/E_/Pi_Pico/pico-sdk/src/common/pico_util/datetime.c.obj
 .debug_line    0x00000000      0x1a0 CMakeFiles/FreeRTOS_Blink.dir/E_/Pi_Pico/pico-sdk/src/common/pico_util/datetime.c.obj
 .debug_str     0x00000000      0x208 CMakeFiles/FreeRTOS_Blink.dir/E_/Pi_Pico/pico-sdk/src/common/pico_util/datetime.c.obj
 .comment       0x00000000       0x4e CMakeFiles/FreeRTOS_Blink.dir/E_/Pi_Pico/pico-sdk/src/common/pico_util/datetime.c.obj
 .debug_frame   0x00000000       0x38 CMakeFiles/FreeRTOS_Blink.dir/E_/Pi_Pico/pico-sdk/src/common/pico_util/datetime.c.obj
 .ARM.attributes
                0x00000000       0x2b CMakeFiles/FreeRTOS_Blink.dir/E_/Pi_Pico/pico-sdk/src/common/pico_util/datetime.c.obj
 .text          0x00000000        0x0 CMakeFiles/FreeRTOS_Blink.dir/E_/Pi_Pico/pico-sdk/src/common/pico_util/pheap.c.obj
 .data          0x00000000        0x0 CMakeFiles/FreeRTOS_Blink.dir/E_/Pi_Pico/pico-sdk/src/common/pico_util/pheap.c.obj
 .bss           0x00000000        0x0 CMakeFiles/FreeRTOS_Blink.dir/E_/Pi_Pico/pico-sdk/src/common/pico_util/pheap.c.obj
 .rodata.ph_dump_node.str1.4
                0x00000000       0x15 CMakeFiles/FreeRTOS_Blink.dir/E_/Pi_Pico/pico-sdk/src/common/pico_util/pheap.c.obj
 .text.ph_dump_node
                0x00000000       0xb4 CMakeFiles/FreeRTOS_Blink.dir/E_/Pi_Pico/pico-sdk/src/common/pico_util/pheap.c.obj
 .text.ph_destroy
                0x00000000       0x12 CMakeFiles/FreeRTOS_Blink.dir/E_/Pi_Pico/pico-sdk/src/common/pico_util/pheap.c.obj
 .rodata.ph_dump.str1.4
                0x00000000        0xf CMakeFiles/FreeRTOS_Blink.dir/E_/Pi_Pico/pico-sdk/src/common/pico_util/pheap.c.obj
 .text.ph_dump  0x00000000       0x24 CMakeFiles/FreeRTOS_Blink.dir/E_/Pi_Pico/pico-sdk/src/common/pico_util/pheap.c.obj
 .text          0x00000000        0x0 CMakeFiles/FreeRTOS_Blink.dir/E_/Pi_Pico/pico-sdk/src/common/pico_util/queue.c.obj
 .data          0x00000000        0x0 CMakeFiles/FreeRTOS_Blink.dir/E_/Pi_Pico/pico-sdk/src/common/pico_util/queue.c.obj
 .bss           0x00000000        0x0 CMakeFiles/FreeRTOS_Blink.dir/E_/Pi_Pico/pico-sdk/src/common/pico_util/queue.c.obj
 .text.queue_init_with_spinlock
                0x00000000       0x2c CMakeFiles/FreeRTOS_Blink.dir/E_/Pi_Pico/pico-sdk/src/common/pico_util/queue.c.obj
 .text.queue_free
                0x00000000        0xa CMakeFiles/FreeRTOS_Blink.dir/E_/Pi_Pico/pico-sdk/src/common/pico_util/queue.c.obj
 .rodata.queue_try_add.str1.4
                0x00000000       0x4d CMakeFiles/FreeRTOS_Blink.dir/E_/Pi_Pico/pico-sdk/src/common/pico_util/queue.c.obj
 .text.queue_try_add
                0x00000000       0x84 CMakeFiles/FreeRTOS_Blink.dir/E_/Pi_Pico/pico-sdk/src/common/pico_util/queue.c.obj
 .text.queue_try_remove
                0x00000000       0x84 CMakeFiles/FreeRTOS_Blink.dir/E_/Pi_Pico/pico-sdk/src/common/pico_util/queue.c.obj
 .text.queue_try_peek
                0x00000000       0x70 CMakeFiles/FreeRTOS_Blink.dir/E_/Pi_Pico/pico-sdk/src/common/pico_util/queue.c.obj
 .text.queue_add_blocking
                0x00000000       0x18 CMakeFiles/FreeRTOS_Blink.dir/E_/Pi_Pico/pico-sdk/src/common/pico_util/queue.c.obj
 .text.queue_remove_blocking
                0x00000000       0x18 CMakeFiles/FreeRTOS_Blink.dir/E_/Pi_Pico/pico-sdk/src/common/pico_util/queue.c.obj
 .text.queue_peek_blocking
                0x00000000       0x18 CMakeFiles/FreeRTOS_Blink.dir/E_/Pi_Pico/pico-sdk/src/common/pico_util/queue.c.obj
 .rodata.__func__.0
                0x00000000        0xc CMakeFiles/FreeRTOS_Blink.dir/E_/Pi_Pico/pico-sdk/src/common/pico_util/queue.c.obj
 .debug_info    0x00000000      0xd07 CMakeFiles/FreeRTOS_Blink.dir/E_/Pi_Pico/pico-sdk/src/common/pico_util/queue.c.obj
 .debug_abbrev  0x00000000      0x29d CMakeFiles/FreeRTOS_Blink.dir/E_/Pi_Pico/pico-sdk/src/common/pico_util/queue.c.obj
 .debug_loc     0x00000000      0xabc CMakeFiles/FreeRTOS_Blink.dir/E_/Pi_Pico/pico-sdk/src/common/pico_util/queue.c.obj
 .debug_aranges
                0x00000000       0x58 CMakeFiles/FreeRTOS_Blink.dir/E_/Pi_Pico/pico-sdk/src/common/pico_util/queue.c.obj
 .debug_ranges  0x00000000      0x2b8 CMakeFiles/FreeRTOS_Blink.dir/E_/Pi_Pico/pico-sdk/src/common/pico_util/queue.c.obj
 .debug_line    0x00000000      0x755 CMakeFiles/FreeRTOS_Blink.dir/E_/Pi_Pico/pico-sdk/src/common/pico_util/queue.c.obj
 .debug_str     0x00000000      0x41c CMakeFiles/FreeRTOS_Blink.dir/E_/Pi_Pico/pico-sdk/src/common/pico_util/queue.c.obj
 .comment       0x00000000       0x4e CMakeFiles/FreeRTOS_Blink.dir/E_/Pi_Pico/pico-sdk/src/common/pico_util/queue.c.obj
 .debug_frame   0x00000000       0xec CMakeFiles/FreeRTOS_Blink.dir/E_/Pi_Pico/pico-sdk/src/common/pico_util/queue.c.obj
 .ARM.attributes
                0x00000000       0x2b CMakeFiles/FreeRTOS_Blink.dir/E_/Pi_Pico/pico-sdk/src/common/pico_util/queue.c.obj
 .text          0x00000000        0x0 CMakeFiles/FreeRTOS_Blink.dir/E_/Pi_Pico/pico-sdk/src/rp2_common/pico_runtime/runtime.c.obj
 .data          0x00000000        0x0 CMakeFiles/FreeRTOS_Blink.dir/E_/Pi_Pico/pico-sdk/src/rp2_common/pico_runtime/runtime.c.obj
 .bss           0x00000000        0x0 CMakeFiles/FreeRTOS_Blink.dir/E_/Pi_Pico/pico-sdk/src/rp2_common/pico_runtime/runtime.c.obj
 .text.runtime_install_stack_guard
                0x00000000       0x40 CMakeFiles/FreeRTOS_Blink.dir/E_/Pi_Pico/pico-sdk/src/rp2_common/pico_runtime/runtime.c.obj
 .rodata.panic_unsupported.str1.4
                0x00000000        0xe CMakeFiles/FreeRTOS_Blink.dir/E_/Pi_Pico/pico-sdk/src/rp2_common/pico_runtime/runtime.c.obj
 .text.panic_unsupported
                0x00000000        0xc CMakeFiles/FreeRTOS_Blink.dir/E_/Pi_Pico/pico-sdk/src/rp2_common/pico_runtime/runtime.c.obj
 .rodata.hard_assertion_failure.str1.4
                0x00000000        0xc CMakeFiles/FreeRTOS_Blink.dir/E_/Pi_Pico/pico-sdk/src/rp2_common/pico_runtime/runtime.c.obj
 .text.hard_assertion_failure
                0x00000000        0xc CMakeFiles/FreeRTOS_Blink.dir/E_/Pi_Pico/pico-sdk/src/rp2_common/pico_runtime/runtime.c.obj
 .text          0x00000000        0x0 CMakeFiles/FreeRTOS_Blink.dir/E_/Pi_Pico/pico-sdk/src/rp2_common/hardware_clocks/clocks.c.obj
 .data          0x00000000        0x0 CMakeFiles/FreeRTOS_Blink.dir/E_/Pi_Pico/pico-sdk/src/rp2_common/hardware_clocks/clocks.c.obj
 .bss           0x00000000        0x0 CMakeFiles/FreeRTOS_Blink.dir/E_/Pi_Pico/pico-sdk/src/rp2_common/hardware_clocks/clocks.c.obj
 .text.clock_stop
                0x00000000       0x2c CMakeFiles/FreeRTOS_Blink.dir/E_/Pi_Pico/pico-sdk/src/rp2_common/hardware_clocks/clocks.c.obj
 .text.clock_get_hz
                0x00000000        0xc CMakeFiles/FreeRTOS_Blink.dir/E_/Pi_Pico/pico-sdk/src/rp2_common/hardware_clocks/clocks.c.obj
 .rodata.clocks_handle_resus.str1.4
                0x00000000       0x8b CMakeFiles/FreeRTOS_Blink.dir/E_/Pi_Pico/pico-sdk/src/rp2_common/hardware_clocks/clocks.c.obj
 .text.clocks_handle_resus
                0x00000000       0x80 CMakeFiles/FreeRTOS_Blink.dir/E_/Pi_Pico/pico-sdk/src/rp2_common/hardware_clocks/clocks.c.obj
 .rodata.clocks_irq_handler.str1.4
                0x00000000       0x17 CMakeFiles/FreeRTOS_Blink.dir/E_/Pi_Pico/pico-sdk/src/rp2_common/hardware_clocks/clocks.c.obj
 .text.clocks_irq_handler
                0x00000000       0x2c CMakeFiles/FreeRTOS_Blink.dir/E_/Pi_Pico/pico-sdk/src/rp2_common/hardware_clocks/clocks.c.obj
 .text.clock_set_reported_hz
                0x00000000        0xc CMakeFiles/FreeRTOS_Blink.dir/E_/Pi_Pico/pico-sdk/src/rp2_common/hardware_clocks/clocks.c.obj
 .text.frequency_count_khz
                0x00000000       0x40 CMakeFiles/FreeRTOS_Blink.dir/E_/Pi_Pico/pico-sdk/src/rp2_common/hardware_clocks/clocks.c.obj
 .text.clocks_enable_resus
                0x00000000       0x34 CMakeFiles/FreeRTOS_Blink.dir/E_/Pi_Pico/pico-sdk/src/rp2_common/hardware_clocks/clocks.c.obj
 .text.clock_gpio_init
                0x00000000       0x4c CMakeFiles/FreeRTOS_Blink.dir/E_/Pi_Pico/pico-sdk/src/rp2_common/hardware_clocks/clocks.c.obj
 .text.clock_configure_gpin
                0x00000000       0x5c CMakeFiles/FreeRTOS_Blink.dir/E_/Pi_Pico/pico-sdk/src/rp2_common/hardware_clocks/clocks.c.obj
 .bss._resus_callback
                0x00000000        0x4 CMakeFiles/FreeRTOS_Blink.dir/E_/Pi_Pico/pico-sdk/src/rp2_common/hardware_clocks/clocks.c.obj
 .rodata.__func__.0
                0x00000000       0x14 CMakeFiles/FreeRTOS_Blink.dir/E_/Pi_Pico/pico-sdk/src/rp2_common/hardware_clocks/clocks.c.obj
 .rodata.gpin0_src
                0x00000000        0xa CMakeFiles/FreeRTOS_Blink.dir/E_/Pi_Pico/pico-sdk/src/rp2_common/hardware_clocks/clocks.c.obj
 .text          0x00000000        0x0 CMakeFiles/FreeRTOS_Blink.dir/E_/Pi_Pico/pico-sdk/src/rp2_common/hardware_watchdog/watchdog.c.obj
 .data          0x00000000        0x0 CMakeFiles/FreeRTOS_Blink.dir/E_/Pi_Pico/pico-sdk/src/rp2_common/hardware_watchdog/watchdog.c.obj
 .bss           0x00000000        0x0 CMakeFiles/FreeRTOS_Blink.dir/E_/Pi_Pico/pico-sdk/src/rp2_common/hardware_watchdog/watchdog.c.obj
 .text.watchdog_update
                0x00000000       0x14 CMakeFiles/FreeRTOS_Blink.dir/E_/Pi_Pico/pico-sdk/src/rp2_common/hardware_watchdog/watchdog.c.obj
 .text.watchdog_get_count
                0x00000000       0x10 CMakeFiles/FreeRTOS_Blink.dir/E_/Pi_Pico/pico-sdk/src/rp2_common/hardware_watchdog/watchdog.c.obj
 .text._watchdog_enable
                0x00000000       0x70 CMakeFiles/FreeRTOS_Blink.dir/E_/Pi_Pico/pico-sdk/src/rp2_common/hardware_watchdog/watchdog.c.obj
 .text.watchdog_enable
                0x00000000       0x14 CMakeFiles/FreeRTOS_Blink.dir/E_/Pi_Pico/pico-sdk/src/rp2_common/hardware_watchdog/watchdog.c.obj
 .text.watchdog_reboot
                0x00000000       0x48 CMakeFiles/FreeRTOS_Blink.dir/E_/Pi_Pico/pico-sdk/src/rp2_common/hardware_watchdog/watchdog.c.obj
 .text.watchdog_caused_reboot
                0x00000000       0x10 CMakeFiles/FreeRTOS_Blink.dir/E_/Pi_Pico/pico-sdk/src/rp2_common/hardware_watchdog/watchdog.c.obj
 .bss.load_value
                0x00000000        0x4 CMakeFiles/FreeRTOS_Blink.dir/E_/Pi_Pico/pico-sdk/src/rp2_common/hardware_watchdog/watchdog.c.obj
 .text          0x00000000        0x0 CMakeFiles/FreeRTOS_Blink.dir/E_/Pi_Pico/pico-sdk/src/rp2_common/hardware_xosc/xosc.c.obj
 .data          0x00000000        0x0 CMakeFiles/FreeRTOS_Blink.dir/E_/Pi_Pico/pico-sdk/src/rp2_common/hardware_xosc/xosc.c.obj
 .bss           0x00000000        0x0 CMakeFiles/FreeRTOS_Blink.dir/E_/Pi_Pico/pico-sdk/src/rp2_common/hardware_xosc/xosc.c.obj
 .text.xosc_disable
                0x00000000       0x24 CMakeFiles/FreeRTOS_Blink.dir/E_/Pi_Pico/pico-sdk/src/rp2_common/hardware_xosc/xosc.c.obj
 .text.xosc_dormant
                0x00000000       0x18 CMakeFiles/FreeRTOS_Blink.dir/E_/Pi_Pico/pico-sdk/src/rp2_common/hardware_xosc/xosc.c.obj
 .text          0x00000000        0x0 CMakeFiles/FreeRTOS_Blink.dir/E_/Pi_Pico/pico-sdk/src/rp2_common/hardware_pll/pll.c.obj
 .data          0x00000000        0x0 CMakeFiles/FreeRTOS_Blink.dir/E_/Pi_Pico/pico-sdk/src/rp2_common/hardware_pll/pll.c.obj
 .bss           0x00000000        0x0 CMakeFiles/FreeRTOS_Blink.dir/E_/Pi_Pico/pico-sdk/src/rp2_common/hardware_pll/pll.c.obj
 .text.pll_deinit
                0x00000000        0x6 CMakeFiles/FreeRTOS_Blink.dir/E_/Pi_Pico/pico-sdk/src/rp2_common/hardware_pll/pll.c.obj
 .text          0x00000000        0x0 CMakeFiles/FreeRTOS_Blink.dir/E_/Pi_Pico/pico-sdk/src/rp2_common/hardware_vreg/vreg.c.obj
 .data          0x00000000        0x0 CMakeFiles/FreeRTOS_Blink.dir/E_/Pi_Pico/pico-sdk/src/rp2_common/hardware_vreg/vreg.c.obj
 .bss           0x00000000        0x0 CMakeFiles/FreeRTOS_Blink.dir/E_/Pi_Pico/pico-sdk/src/rp2_common/hardware_vreg/vreg.c.obj
 .text.vreg_set_voltage
                0x00000000       0x1c CMakeFiles/FreeRTOS_Blink.dir/E_/Pi_Pico/pico-sdk/src/rp2_common/hardware_vreg/vreg.c.obj
 .debug_info    0x00000000      0x244 CMakeFiles/FreeRTOS_Blink.dir/E_/Pi_Pico/pico-sdk/src/rp2_common/hardware_vreg/vreg.c.obj
 .debug_abbrev  0x00000000      0x11d CMakeFiles/FreeRTOS_Blink.dir/E_/Pi_Pico/pico-sdk/src/rp2_common/hardware_vreg/vreg.c.obj
 .debug_loc     0x00000000       0x9a CMakeFiles/FreeRTOS_Blink.dir/E_/Pi_Pico/pico-sdk/src/rp2_common/hardware_vreg/vreg.c.obj
 .debug_aranges
                0x00000000       0x20 CMakeFiles/FreeRTOS_Blink.dir/E_/Pi_Pico/pico-sdk/src/rp2_common/hardware_vreg/vreg.c.obj
 .debug_ranges  0x00000000       0x10 CMakeFiles/FreeRTOS_Blink.dir/E_/Pi_Pico/pico-sdk/src/rp2_common/hardware_vreg/vreg.c.obj
 .debug_line    0x00000000      0x235 CMakeFiles/FreeRTOS_Blink.dir/E_/Pi_Pico/pico-sdk/src/rp2_common/hardware_vreg/vreg.c.obj
 .debug_str     0x00000000      0x325 CMakeFiles/FreeRTOS_Blink.dir/E_/Pi_Pico/pico-sdk/src/rp2_common/hardware_vreg/vreg.c.obj
 .comment       0x00000000       0x4e CMakeFiles/FreeRTOS_Blink.dir/E_/Pi_Pico/pico-sdk/src/rp2_common/hardware_vreg/vreg.c.obj
 .debug_frame   0x00000000       0x20 CMakeFiles/FreeRTOS_Blink.dir/E_/Pi_Pico/pico-sdk/src/rp2_common/hardware_vreg/vreg.c.obj
 .ARM.attributes
                0x00000000       0x2b CMakeFiles/FreeRTOS_Blink.dir/E_/Pi_Pico/pico-sdk/src/rp2_common/hardware_vreg/vreg.c.obj
 .text          0x00000000        0x0 CMakeFiles/FreeRTOS_Blink.dir/E_/Pi_Pico/pico-sdk/src/rp2_common/hardware_irq/irq.c.obj
 .data          0x00000000        0x0 CMakeFiles/FreeRTOS_Blink.dir/E_/Pi_Pico/pico-sdk/src/rp2_common/hardware_irq/irq.c.obj
 .bss           0x00000000        0x0 CMakeFiles/FreeRTOS_Blink.dir/E_/Pi_Pico/pico-sdk/src/rp2_common/hardware_irq/irq.c.obj
 .text.irq_get_exclusive_handler
                0x00000000       0x4c CMakeFiles/FreeRTOS_Blink.dir/E_/Pi_Pico/pico-sdk/src/rp2_common/hardware_irq/irq.c.obj
 .text.irq_add_shared_handler
                0x00000000      0x230 CMakeFiles/FreeRTOS_Blink.dir/E_/Pi_Pico/pico-sdk/src/rp2_common/hardware_irq/irq.c.obj
 .rodata.__func__.5
                0x00000000       0x17 CMakeFiles/FreeRTOS_Blink.dir/E_/Pi_Pico/pico-sdk/src/rp2_common/hardware_irq/irq.c.obj
 .text          0x00000000        0x0 CMakeFiles/FreeRTOS_Blink.dir/E_/Pi_Pico/pico-sdk/src/rp2_common/hardware_irq/irq_handler_chain.S.obj
 .bss           0x00000000        0x0 CMakeFiles/FreeRTOS_Blink.dir/E_/Pi_Pico/pico-sdk/src/rp2_common/hardware_irq/irq_handler_chain.S.obj
 .text          0x00000000        0x0 CMakeFiles/FreeRTOS_Blink.dir/E_/Pi_Pico/pico-sdk/src/rp2_common/pico_printf/printf.c.obj
 .data          0x00000000        0x0 CMakeFiles/FreeRTOS_Blink.dir/E_/Pi_Pico/pico-sdk/src/rp2_common/pico_printf/printf.c.obj
 .bss           0x00000000        0x0 CMakeFiles/FreeRTOS_Blink.dir/E_/Pi_Pico/pico-sdk/src/rp2_common/pico_printf/printf.c.obj
 .text._out_buffer
                0x00000000        0x8 CMakeFiles/FreeRTOS_Blink.dir/E_/Pi_Pico/pico-sdk/src/rp2_common/pico_printf/printf.c.obj
 .text.__wrap_sprintf
                0x00000000       0x28 CMakeFiles/FreeRTOS_Blink.dir/E_/Pi_Pico/pico-sdk/src/rp2_common/pico_printf/printf.c.obj
 .text.__wrap_snprintf
                0x00000000       0x28 CMakeFiles/FreeRTOS_Blink.dir/E_/Pi_Pico/pico-sdk/src/rp2_common/pico_printf/printf.c.obj
 .text.__wrap_vsnprintf
                0x00000000       0x1c CMakeFiles/FreeRTOS_Blink.dir/E_/Pi_Pico/pico-sdk/src/rp2_common/pico_printf/printf.c.obj
 .data          0x00000000        0x0 CMakeFiles/FreeRTOS_Blink.dir/E_/Pi_Pico/pico-sdk/src/rp2_common/pico_bit_ops/bit_ops_aeabi.S.obj
 .bss           0x00000000        0x0 CMakeFiles/FreeRTOS_Blink.dir/E_/Pi_Pico/pico-sdk/src/rp2_common/pico_bit_ops/bit_ops_aeabi.S.obj
 .text.clzsi    0x00000000        0xc CMakeFiles/FreeRTOS_Blink.dir/E_/Pi_Pico/pico-sdk/src/rp2_common/pico_bit_ops/bit_ops_aeabi.S.obj
 .text.ctzsi    0x00000000        0xc CMakeFiles/FreeRTOS_Blink.dir/E_/Pi_Pico/pico-sdk/src/rp2_common/pico_bit_ops/bit_ops_aeabi.S.obj
 .text.popcountsi
                0x00000000        0xc CMakeFiles/FreeRTOS_Blink.dir/E_/Pi_Pico/pico-sdk/src/rp2_common/pico_bit_ops/bit_ops_aeabi.S.obj
 .text.clzdi    0x00000000       0x18 CMakeFiles/FreeRTOS_Blink.dir/E_/Pi_Pico/pico-sdk/src/rp2_common/pico_bit_ops/bit_ops_aeabi.S.obj
 .text.ctzdi    0x00000000       0x18 CMakeFiles/FreeRTOS_Blink.dir/E_/Pi_Pico/pico-sdk/src/rp2_common/pico_bit_ops/bit_ops_aeabi.S.obj
 .text.popcountdi
                0x00000000       0x18 CMakeFiles/FreeRTOS_Blink.dir/E_/Pi_Pico/pico-sdk/src/rp2_common/pico_bit_ops/bit_ops_aeabi.S.obj
 .text.reverse32
                0x00000000        0xc CMakeFiles/FreeRTOS_Blink.dir/E_/Pi_Pico/pico-sdk/src/rp2_common/pico_bit_ops/bit_ops_aeabi.S.obj
 .text.__rev    0x00000000        0xc CMakeFiles/FreeRTOS_Blink.dir/E_/Pi_Pico/pico-sdk/src/rp2_common/pico_bit_ops/bit_ops_aeabi.S.obj
 .text.__revll  0x00000000       0x18 CMakeFiles/FreeRTOS_Blink.dir/E_/Pi_Pico/pico-sdk/src/rp2_common/pico_bit_ops/bit_ops_aeabi.S.obj
 .text          0x00000000        0x0 CMakeFiles/FreeRTOS_Blink.dir/E_/Pi_Pico/pico-sdk/src/rp2_common/pico_bootrom/bootrom.c.obj
 .data          0x00000000        0x0 CMakeFiles/FreeRTOS_Blink.dir/E_/Pi_Pico/pico-sdk/src/rp2_common/pico_bootrom/bootrom.c.obj
 .bss           0x00000000        0x0 CMakeFiles/FreeRTOS_Blink.dir/E_/Pi_Pico/pico-sdk/src/rp2_common/pico_bootrom/bootrom.c.obj
 .text          0x00000000        0x0 CMakeFiles/FreeRTOS_Blink.dir/E_/Pi_Pico/pico-sdk/src/rp2_common/pico_divider/divider.S.obj
 .data          0x00000000        0x0 CMakeFiles/FreeRTOS_Blink.dir/E_/Pi_Pico/pico-sdk/src/rp2_common/pico_divider/divider.S.obj
 .bss           0x00000000        0x0 CMakeFiles/FreeRTOS_Blink.dir/E_/Pi_Pico/pico-sdk/src/rp2_common/pico_divider/divider.S.obj
 .text.divmod_s64s64_rem
                0x00000000        0xc CMakeFiles/FreeRTOS_Blink.dir/E_/Pi_Pico/pico-sdk/src/rp2_common/pico_divider/divider.S.obj
 .text.divmod_u64u64_rem
                0x00000000        0xc CMakeFiles/FreeRTOS_Blink.dir/E_/Pi_Pico/pico-sdk/src/rp2_common/pico_divider/divider.S.obj
 .text          0x00000000        0x0 CMakeFiles/FreeRTOS_Blink.dir/E_/Pi_Pico/pico-sdk/src/rp2_common/pico_double/double_aeabi.S.obj
 .data          0x00000000        0x0 CMakeFiles/FreeRTOS_Blink.dir/E_/Pi_Pico/pico-sdk/src/rp2_common/pico_double/double_aeabi.S.obj
 .bss           0x00000000        0x0 CMakeFiles/FreeRTOS_Blink.dir/E_/Pi_Pico/pico-sdk/src/rp2_common/pico_double/double_aeabi.S.obj
 .text.push_r8_r11
                0x00000000        0xc CMakeFiles/FreeRTOS_Blink.dir/E_/Pi_Pico/pico-sdk/src/rp2_common/pico_double/double_aeabi.S.obj
 .text.pop_r8_r11
                0x00000000        0xc CMakeFiles/FreeRTOS_Blink.dir/E_/Pi_Pico/pico-sdk/src/rp2_common/pico_double/double_aeabi.S.obj
 .text.__wrap___aeabi_dcmpeq
                0x00000000       0x10 CMakeFiles/FreeRTOS_Blink.dir/E_/Pi_Pico/pico-sdk/src/rp2_common/pico_double/double_aeabi.S.obj
 .text.__wrap___aeabi_ui2d
                0x00000000       0x18 CMakeFiles/FreeRTOS_Blink.dir/E_/Pi_Pico/pico-sdk/src/rp2_common/pico_double/double_aeabi.S.obj
 .text.double2int
                0x00000000       0x18 CMakeFiles/FreeRTOS_Blink.dir/E_/Pi_Pico/pico-sdk/src/rp2_common/pico_double/double_aeabi.S.obj
 .text.fix2double
                0x00000000       0x18 CMakeFiles/FreeRTOS_Blink.dir/E_/Pi_Pico/pico-sdk/src/rp2_common/pico_double/double_aeabi.S.obj
 .text.ufix2double
                0x00000000       0x28 CMakeFiles/FreeRTOS_Blink.dir/E_/Pi_Pico/pico-sdk/src/rp2_common/pico_double/double_aeabi.S.obj
 .text.fix642double
                0x00000000       0x18 CMakeFiles/FreeRTOS_Blink.dir/E_/Pi_Pico/pico-sdk/src/rp2_common/pico_double/double_aeabi.S.obj
 .text.__wrap___aeabi_l2d
                0x00000000       0x18 CMakeFiles/FreeRTOS_Blink.dir/E_/Pi_Pico/pico-sdk/src/rp2_common/pico_double/double_aeabi.S.obj
 .text.__wrap___aeabi_ul2d
                0x00000000       0x18 CMakeFiles/FreeRTOS_Blink.dir/E_/Pi_Pico/pico-sdk/src/rp2_common/pico_double/double_aeabi.S.obj
 .text.__wrap___aeabi_d2lz
                0x00000000       0x26 CMakeFiles/FreeRTOS_Blink.dir/E_/Pi_Pico/pico-sdk/src/rp2_common/pico_double/double_aeabi.S.obj
 .text.double2int64
                0x00000000       0x18 CMakeFiles/FreeRTOS_Blink.dir/E_/Pi_Pico/pico-sdk/src/rp2_common/pico_double/double_aeabi.S.obj
 .text.__wrap___aeabi_d2ulz
                0x00000000       0x18 CMakeFiles/FreeRTOS_Blink.dir/E_/Pi_Pico/pico-sdk/src/rp2_common/pico_double/double_aeabi.S.obj
 .text.double2fix64
                0x00000000       0x18 CMakeFiles/FreeRTOS_Blink.dir/E_/Pi_Pico/pico-sdk/src/rp2_common/pico_double/double_aeabi.S.obj
 .text.double2ufix64
                0x00000000       0x18 CMakeFiles/FreeRTOS_Blink.dir/E_/Pi_Pico/pico-sdk/src/rp2_common/pico_double/double_aeabi.S.obj
 .text.double2fix
                0x00000000       0x18 CMakeFiles/FreeRTOS_Blink.dir/E_/Pi_Pico/pico-sdk/src/rp2_common/pico_double/double_aeabi.S.obj
 .text.double2ufix
                0x00000000       0x18 CMakeFiles/FreeRTOS_Blink.dir/E_/Pi_Pico/pico-sdk/src/rp2_common/pico_double/double_aeabi.S.obj
 .text.__wrap___aeabi_d2f
                0x00000000       0x18 CMakeFiles/FreeRTOS_Blink.dir/E_/Pi_Pico/pico-sdk/src/rp2_common/pico_double/double_aeabi.S.obj
 .text.__wrap_srqt
                0x00000000       0x18 CMakeFiles/FreeRTOS_Blink.dir/E_/Pi_Pico/pico-sdk/src/rp2_common/pico_double/double_aeabi.S.obj
 .text.__wrap_sincostan_remainder
                0x00000000       0x14 CMakeFiles/FreeRTOS_Blink.dir/E_/Pi_Pico/pico-sdk/src/rp2_common/pico_double/double_aeabi.S.obj
 .text.__wrap_cos
                0x00000000       0x2c CMakeFiles/FreeRTOS_Blink.dir/E_/Pi_Pico/pico-sdk/src/rp2_common/pico_double/double_aeabi.S.obj
 .text.__wrap_sin
                0x00000000       0x2c CMakeFiles/FreeRTOS_Blink.dir/E_/Pi_Pico/pico-sdk/src/rp2_common/pico_double/double_aeabi.S.obj
 .text.__wrap_sincos
                0x00000000       0xa0 CMakeFiles/FreeRTOS_Blink.dir/E_/Pi_Pico/pico-sdk/src/rp2_common/pico_double/double_aeabi.S.obj
 .text.__wrap_tan
                0x00000000       0x2c CMakeFiles/FreeRTOS_Blink.dir/E_/Pi_Pico/pico-sdk/src/rp2_common/pico_double/double_aeabi.S.obj
 .text.__wrap_atan2
                0x00000000       0x18 CMakeFiles/FreeRTOS_Blink.dir/E_/Pi_Pico/pico-sdk/src/rp2_common/pico_double/double_aeabi.S.obj
 .text.__wrap_exp
                0x00000000       0x18 CMakeFiles/FreeRTOS_Blink.dir/E_/Pi_Pico/pico-sdk/src/rp2_common/pico_double/double_aeabi.S.obj
 .text.__wrap_log
                0x00000000       0x18 CMakeFiles/FreeRTOS_Blink.dir/E_/Pi_Pico/pico-sdk/src/rp2_common/pico_double/double_aeabi.S.obj
 .text          0x00000000        0x0 CMakeFiles/FreeRTOS_Blink.dir/E_/Pi_Pico/pico-sdk/src/rp2_common/pico_double/double_init_rom.c.obj
 .data          0x00000000        0x0 CMakeFiles/FreeRTOS_Blink.dir/E_/Pi_Pico/pico-sdk/src/rp2_common/pico_double/double_init_rom.c.obj
 .bss           0x00000000        0x0 CMakeFiles/FreeRTOS_Blink.dir/E_/Pi_Pico/pico-sdk/src/rp2_common/pico_double/double_init_rom.c.obj
 .text          0x00000000        0x0 CMakeFiles/FreeRTOS_Blink.dir/E_/Pi_Pico/pico-sdk/src/rp2_common/pico_double/double_math.c.obj
 .data          0x00000000        0x0 CMakeFiles/FreeRTOS_Blink.dir/E_/Pi_Pico/pico-sdk/src/rp2_common/pico_double/double_math.c.obj
 .bss           0x00000000        0x0 CMakeFiles/FreeRTOS_Blink.dir/E_/Pi_Pico/pico-sdk/src/rp2_common/pico_double/double_math.c.obj
 .text.dpow_int2
                0x00000000       0x2c CMakeFiles/FreeRTOS_Blink.dir/E_/Pi_Pico/pico-sdk/src/rp2_common/pico_double/double_math.c.obj
 .text.drem_0   0x00000000      0x130 CMakeFiles/FreeRTOS_Blink.dir/E_/Pi_Pico/pico-sdk/src/rp2_common/pico_double/double_math.c.obj
 .text.dpow_1   0x00000000      0x2a8 CMakeFiles/FreeRTOS_Blink.dir/E_/Pi_Pico/pico-sdk/src/rp2_common/pico_double/double_math.c.obj
 .text.dpowint_0
                0x00000000      0x180 CMakeFiles/FreeRTOS_Blink.dir/E_/Pi_Pico/pico-sdk/src/rp2_common/pico_double/double_math.c.obj
 .text.dpow_0   0x00000000      0x180 CMakeFiles/FreeRTOS_Blink.dir/E_/Pi_Pico/pico-sdk/src/rp2_common/pico_double/double_math.c.obj
 .text.__wrap_ldexp
                0x00000000       0x50 CMakeFiles/FreeRTOS_Blink.dir/E_/Pi_Pico/pico-sdk/src/rp2_common/pico_double/double_math.c.obj
 .text.__wrap_copysign
                0x00000000       0x10 CMakeFiles/FreeRTOS_Blink.dir/E_/Pi_Pico/pico-sdk/src/rp2_common/pico_double/double_math.c.obj
 .text.__wrap_trunc
                0x00000000       0x60 CMakeFiles/FreeRTOS_Blink.dir/E_/Pi_Pico/pico-sdk/src/rp2_common/pico_double/double_math.c.obj
 .text.__wrap_round
                0x00000000       0x9c CMakeFiles/FreeRTOS_Blink.dir/E_/Pi_Pico/pico-sdk/src/rp2_common/pico_double/double_math.c.obj
 .text.__wrap_floor
                0x00000000       0x9c CMakeFiles/FreeRTOS_Blink.dir/E_/Pi_Pico/pico-sdk/src/rp2_common/pico_double/double_math.c.obj
 .text.__wrap_ceil
                0x00000000       0x9c CMakeFiles/FreeRTOS_Blink.dir/E_/Pi_Pico/pico-sdk/src/rp2_common/pico_double/double_math.c.obj
 .text.__wrap_asin
                0x00000000       0x60 CMakeFiles/FreeRTOS_Blink.dir/E_/Pi_Pico/pico-sdk/src/rp2_common/pico_double/double_math.c.obj
 .text.__wrap_acos
                0x00000000       0x5c CMakeFiles/FreeRTOS_Blink.dir/E_/Pi_Pico/pico-sdk/src/rp2_common/pico_double/double_math.c.obj
 .text.__wrap_atan
                0x00000000       0x40 CMakeFiles/FreeRTOS_Blink.dir/E_/Pi_Pico/pico-sdk/src/rp2_common/pico_double/double_math.c.obj
 .text.__wrap_sinh
                0x00000000       0x7c CMakeFiles/FreeRTOS_Blink.dir/E_/Pi_Pico/pico-sdk/src/rp2_common/pico_double/double_math.c.obj
 .text.__wrap_cosh
                0x00000000       0x7c CMakeFiles/FreeRTOS_Blink.dir/E_/Pi_Pico/pico-sdk/src/rp2_common/pico_double/double_math.c.obj
 .text.__wrap_tanh
                0x00000000       0x98 CMakeFiles/FreeRTOS_Blink.dir/E_/Pi_Pico/pico-sdk/src/rp2_common/pico_double/double_math.c.obj
 .text.__wrap_asinh
                0x00000000       0xb4 CMakeFiles/FreeRTOS_Blink.dir/E_/Pi_Pico/pico-sdk/src/rp2_common/pico_double/double_math.c.obj
 .text.__wrap_acosh
                0x00000000       0x78 CMakeFiles/FreeRTOS_Blink.dir/E_/Pi_Pico/pico-sdk/src/rp2_common/pico_double/double_math.c.obj
 .text.__wrap_atanh
                0x00000000       0x84 CMakeFiles/FreeRTOS_Blink.dir/E_/Pi_Pico/pico-sdk/src/rp2_common/pico_double/double_math.c.obj
 .text.__wrap_exp2
                0x00000000       0xcc CMakeFiles/FreeRTOS_Blink.dir/E_/Pi_Pico/pico-sdk/src/rp2_common/pico_double/double_math.c.obj
 .text.__wrap_log2
                0x00000000       0x18 CMakeFiles/FreeRTOS_Blink.dir/E_/Pi_Pico/pico-sdk/src/rp2_common/pico_double/double_math.c.obj
 .text.__wrap_exp10
                0x00000000       0x14 CMakeFiles/FreeRTOS_Blink.dir/E_/Pi_Pico/pico-sdk/src/rp2_common/pico_double/double_math.c.obj
 .text.__wrap_log10
                0x00000000       0x18 CMakeFiles/FreeRTOS_Blink.dir/E_/Pi_Pico/pico-sdk/src/rp2_common/pico_double/double_math.c.obj
 .text.__wrap_expm1
                0x00000000       0x14 CMakeFiles/FreeRTOS_Blink.dir/E_/Pi_Pico/pico-sdk/src/rp2_common/pico_double/double_math.c.obj
 .text.__wrap_log1p
                0x00000000       0x14 CMakeFiles/FreeRTOS_Blink.dir/E_/Pi_Pico/pico-sdk/src/rp2_common/pico_double/double_math.c.obj
 .text.__wrap_fma
                0x00000000       0x10 CMakeFiles/FreeRTOS_Blink.dir/E_/Pi_Pico/pico-sdk/src/rp2_common/pico_double/double_math.c.obj
 .text.__wrap_powint
                0x00000000       0xbc CMakeFiles/FreeRTOS_Blink.dir/E_/Pi_Pico/pico-sdk/src/rp2_common/pico_double/double_math.c.obj
 .text.__wrap_pow
                0x00000000      0x384 CMakeFiles/FreeRTOS_Blink.dir/E_/Pi_Pico/pico-sdk/src/rp2_common/pico_double/double_math.c.obj
 .text.__wrap_hypot
                0x00000000      0x238 CMakeFiles/FreeRTOS_Blink.dir/E_/Pi_Pico/pico-sdk/src/rp2_common/pico_double/double_math.c.obj
 .text.__wrap_cbrt
                0x00000000       0xec CMakeFiles/FreeRTOS_Blink.dir/E_/Pi_Pico/pico-sdk/src/rp2_common/pico_double/double_math.c.obj
 .text.__wrap_fmod
                0x00000000       0xa8 CMakeFiles/FreeRTOS_Blink.dir/E_/Pi_Pico/pico-sdk/src/rp2_common/pico_double/double_math.c.obj
 .text.__wrap_remquo
                0x00000000      0x17c CMakeFiles/FreeRTOS_Blink.dir/E_/Pi_Pico/pico-sdk/src/rp2_common/pico_double/double_math.c.obj
 .text.__wrap_drem
                0x00000000       0x10 CMakeFiles/FreeRTOS_Blink.dir/E_/Pi_Pico/pico-sdk/src/rp2_common/pico_double/double_math.c.obj
 .text.__wrap_remainder
                0x00000000       0x10 CMakeFiles/FreeRTOS_Blink.dir/E_/Pi_Pico/pico-sdk/src/rp2_common/pico_double/double_math.c.obj
 .debug_info    0x00000000     0x320e CMakeFiles/FreeRTOS_Blink.dir/E_/Pi_Pico/pico-sdk/src/rp2_common/pico_double/double_math.c.obj
 .debug_abbrev  0x00000000      0x2bc CMakeFiles/FreeRTOS_Blink.dir/E_/Pi_Pico/pico-sdk/src/rp2_common/pico_double/double_math.c.obj
 .debug_loc     0x00000000     0x58ac CMakeFiles/FreeRTOS_Blink.dir/E_/Pi_Pico/pico-sdk/src/rp2_common/pico_double/double_math.c.obj
 .debug_aranges
                0x00000000      0x130 CMakeFiles/FreeRTOS_Blink.dir/E_/Pi_Pico/pico-sdk/src/rp2_common/pico_double/double_math.c.obj
 .debug_ranges  0x00000000      0x518 CMakeFiles/FreeRTOS_Blink.dir/E_/Pi_Pico/pico-sdk/src/rp2_common/pico_double/double_math.c.obj
 .debug_line    0x00000000     0x21c5 CMakeFiles/FreeRTOS_Blink.dir/E_/Pi_Pico/pico-sdk/src/rp2_common/pico_double/double_math.c.obj
 .debug_str     0x00000000      0x4e8 CMakeFiles/FreeRTOS_Blink.dir/E_/Pi_Pico/pico-sdk/src/rp2_common/pico_double/double_math.c.obj
 .comment       0x00000000       0x4e CMakeFiles/FreeRTOS_Blink.dir/E_/Pi_Pico/pico-sdk/src/rp2_common/pico_double/double_math.c.obj
 .debug_frame   0x00000000      0x440 CMakeFiles/FreeRTOS_Blink.dir/E_/Pi_Pico/pico-sdk/src/rp2_common/pico_double/double_math.c.obj
 .ARM.attributes
                0x00000000       0x2b CMakeFiles/FreeRTOS_Blink.dir/E_/Pi_Pico/pico-sdk/src/rp2_common/pico_double/double_math.c.obj
 .text          0x00000000        0x0 CMakeFiles/FreeRTOS_Blink.dir/E_/Pi_Pico/pico-sdk/src/rp2_common/pico_double/double_v1_rom_shim.S.obj
 .data          0x00000000        0x0 CMakeFiles/FreeRTOS_Blink.dir/E_/Pi_Pico/pico-sdk/src/rp2_common/pico_double/double_v1_rom_shim.S.obj
 .bss           0x00000000        0x0 CMakeFiles/FreeRTOS_Blink.dir/E_/Pi_Pico/pico-sdk/src/rp2_common/pico_double/double_v1_rom_shim.S.obj
 .text.dsqrt_shim
                0x00000000      0x1a8 CMakeFiles/FreeRTOS_Blink.dir/E_/Pi_Pico/pico-sdk/src/rp2_common/pico_double/double_v1_rom_shim.S.obj
 .text.dcordic_vec_step
                0x00000000        0xe CMakeFiles/FreeRTOS_Blink.dir/E_/Pi_Pico/pico-sdk/src/rp2_common/pico_double/double_v1_rom_shim.S.obj
 .text.double2int_shim
                0x00000000        0xe CMakeFiles/FreeRTOS_Blink.dir/E_/Pi_Pico/pico-sdk/src/rp2_common/pico_double/double_v1_rom_shim.S.obj
 .text.double2int64_shim
                0x00000000       0x1a CMakeFiles/FreeRTOS_Blink.dir/E_/Pi_Pico/pico-sdk/src/rp2_common/pico_double/double_v1_rom_shim.S.obj
 .text.double2float_shim
                0x00000000       0x5c CMakeFiles/FreeRTOS_Blink.dir/E_/Pi_Pico/pico-sdk/src/rp2_common/pico_double/double_v1_rom_shim.S.obj
 .text.x2double_shims
                0x00000000       0x90 CMakeFiles/FreeRTOS_Blink.dir/E_/Pi_Pico/pico-sdk/src/rp2_common/pico_double/double_v1_rom_shim.S.obj
 .text.dreduce  0x00000000       0x82 CMakeFiles/FreeRTOS_Blink.dir/E_/Pi_Pico/pico-sdk/src/rp2_common/pico_double/double_v1_rom_shim.S.obj
 .text.dtan_shim
                0x00000000       0x20 CMakeFiles/FreeRTOS_Blink.dir/E_/Pi_Pico/pico-sdk/src/rp2_common/pico_double/double_v1_rom_shim.S.obj
 .text.dcos_shim
                0x00000000       0x10 CMakeFiles/FreeRTOS_Blink.dir/E_/Pi_Pico/pico-sdk/src/rp2_common/pico_double/double_v1_rom_shim.S.obj
 .text.dsin_shim
                0x00000000       0x14 CMakeFiles/FreeRTOS_Blink.dir/E_/Pi_Pico/pico-sdk/src/rp2_common/pico_double/double_v1_rom_shim.S.obj
 .text.dsincos_shim
                0x00000000       0x26 CMakeFiles/FreeRTOS_Blink.dir/E_/Pi_Pico/pico-sdk/src/rp2_common/pico_double/double_v1_rom_shim.S.obj
 .text.dtrig_guts
                0x00000000      0x2ec CMakeFiles/FreeRTOS_Blink.dir/E_/Pi_Pico/pico-sdk/src/rp2_common/pico_double/double_v1_rom_shim.S.obj
 .text.dexp_guts
                0x00000000      0x268 CMakeFiles/FreeRTOS_Blink.dir/E_/Pi_Pico/pico-sdk/src/rp2_common/pico_double/double_v1_rom_shim.S.obj
 .text          0x00000000        0x0 CMakeFiles/FreeRTOS_Blink.dir/E_/Pi_Pico/pico-sdk/src/rp2_common/pico_int64_ops/pico_int64_ops_aeabi.S.obj
 .data          0x00000000        0x0 CMakeFiles/FreeRTOS_Blink.dir/E_/Pi_Pico/pico-sdk/src/rp2_common/pico_int64_ops/pico_int64_ops_aeabi.S.obj
 .bss           0x00000000        0x0 CMakeFiles/FreeRTOS_Blink.dir/E_/Pi_Pico/pico-sdk/src/rp2_common/pico_int64_ops/pico_int64_ops_aeabi.S.obj
 .text          0x00000000        0x0 CMakeFiles/FreeRTOS_Blink.dir/E_/Pi_Pico/pico-sdk/src/rp2_common/pico_float/float_aeabi.S.obj
 .data          0x00000000        0x0 CMakeFiles/FreeRTOS_Blink.dir/E_/Pi_Pico/pico-sdk/src/rp2_common/pico_float/float_aeabi.S.obj
 .bss           0x00000000        0x0 CMakeFiles/FreeRTOS_Blink.dir/E_/Pi_Pico/pico-sdk/src/rp2_common/pico_float/float_aeabi.S.obj
 .text.__wrap___aeabi_farithmetic
                0x00000000       0x34 CMakeFiles/FreeRTOS_Blink.dir/E_/Pi_Pico/pico-sdk/src/rp2_common/pico_float/float_aeabi.S.obj
 .text.__wrap___aeabi_cfcmple
                0x00000000       0x50 CMakeFiles/FreeRTOS_Blink.dir/E_/Pi_Pico/pico-sdk/src/rp2_common/pico_float/float_aeabi.S.obj
 .text.__wrap___aeabi_fcmpeq
                0x00000000       0x10 CMakeFiles/FreeRTOS_Blink.dir/E_/Pi_Pico/pico-sdk/src/rp2_common/pico_float/float_aeabi.S.obj
 .text.__wrap___aeabi_fcmplt
                0x00000000        0xc CMakeFiles/FreeRTOS_Blink.dir/E_/Pi_Pico/pico-sdk/src/rp2_common/pico_float/float_aeabi.S.obj
 .text.__wrap___aeabi_fcmple
                0x00000000       0x10 CMakeFiles/FreeRTOS_Blink.dir/E_/Pi_Pico/pico-sdk/src/rp2_common/pico_float/float_aeabi.S.obj
 .text.__wrap___aeabi_fcmpge
                0x00000000       0x10 CMakeFiles/FreeRTOS_Blink.dir/E_/Pi_Pico/pico-sdk/src/rp2_common/pico_float/float_aeabi.S.obj
 .text.__wrap___aeabi_fcmpgt
                0x00000000        0xa CMakeFiles/FreeRTOS_Blink.dir/E_/Pi_Pico/pico-sdk/src/rp2_common/pico_float/float_aeabi.S.obj
 .text.__wrap___aeabi_fcmpun
                0x00000000       0x18 CMakeFiles/FreeRTOS_Blink.dir/E_/Pi_Pico/pico-sdk/src/rp2_common/pico_float/float_aeabi.S.obj
 .text.__wrap___aeabi_ui2f
                0x00000000        0xa CMakeFiles/FreeRTOS_Blink.dir/E_/Pi_Pico/pico-sdk/src/rp2_common/pico_float/float_aeabi.S.obj
 .text.__wrap___aeabi_i2f
                0x00000000       0x44 CMakeFiles/FreeRTOS_Blink.dir/E_/Pi_Pico/pico-sdk/src/rp2_common/pico_float/float_aeabi.S.obj
 .text.__wrap___aeabi_f2iz
                0x00000000       0x4e CMakeFiles/FreeRTOS_Blink.dir/E_/Pi_Pico/pico-sdk/src/rp2_common/pico_float/float_aeabi.S.obj
 .text.float2int
                0x00000000       0x14 CMakeFiles/FreeRTOS_Blink.dir/E_/Pi_Pico/pico-sdk/src/rp2_common/pico_float/float_aeabi.S.obj
 .text.float2fix
                0x00000000       0x14 CMakeFiles/FreeRTOS_Blink.dir/E_/Pi_Pico/pico-sdk/src/rp2_common/pico_float/float_aeabi.S.obj
 .text.float2ufix
                0x00000000       0x10 CMakeFiles/FreeRTOS_Blink.dir/E_/Pi_Pico/pico-sdk/src/rp2_common/pico_float/float_aeabi.S.obj
 .text.__wrap___aeabi_f2uiz
                0x00000000       0x10 CMakeFiles/FreeRTOS_Blink.dir/E_/Pi_Pico/pico-sdk/src/rp2_common/pico_float/float_aeabi.S.obj
 .text.fix2float
                0x00000000       0x10 CMakeFiles/FreeRTOS_Blink.dir/E_/Pi_Pico/pico-sdk/src/rp2_common/pico_float/float_aeabi.S.obj
 .text.ufix2float
                0x00000000       0x10 CMakeFiles/FreeRTOS_Blink.dir/E_/Pi_Pico/pico-sdk/src/rp2_common/pico_float/float_aeabi.S.obj
 .text.fix642float
                0x00000000       0x14 CMakeFiles/FreeRTOS_Blink.dir/E_/Pi_Pico/pico-sdk/src/rp2_common/pico_float/float_aeabi.S.obj
 .text.ufix642float
                0x00000000       0x14 CMakeFiles/FreeRTOS_Blink.dir/E_/Pi_Pico/pico-sdk/src/rp2_common/pico_float/float_aeabi.S.obj
 .text.__wrap___aeabi_l2f
                0x00000000       0x20 CMakeFiles/FreeRTOS_Blink.dir/E_/Pi_Pico/pico-sdk/src/rp2_common/pico_float/float_aeabi.S.obj
 .text.__wrap___aeabi_ul2f
                0x00000000       0x20 CMakeFiles/FreeRTOS_Blink.dir/E_/Pi_Pico/pico-sdk/src/rp2_common/pico_float/float_aeabi.S.obj
 .text.__wrap___aeabi_f2lz
                0x00000000       0x26 CMakeFiles/FreeRTOS_Blink.dir/E_/Pi_Pico/pico-sdk/src/rp2_common/pico_float/float_aeabi.S.obj
 .text.float2int64
                0x00000000       0x14 CMakeFiles/FreeRTOS_Blink.dir/E_/Pi_Pico/pico-sdk/src/rp2_common/pico_float/float_aeabi.S.obj
 .text.float2fix64
                0x00000000       0x14 CMakeFiles/FreeRTOS_Blink.dir/E_/Pi_Pico/pico-sdk/src/rp2_common/pico_float/float_aeabi.S.obj
 .text.__wrap___aeabi_f2ulz
                0x00000000       0x14 CMakeFiles/FreeRTOS_Blink.dir/E_/Pi_Pico/pico-sdk/src/rp2_common/pico_float/float_aeabi.S.obj
 .text.float2ufix64
                0x00000000       0x14 CMakeFiles/FreeRTOS_Blink.dir/E_/Pi_Pico/pico-sdk/src/rp2_common/pico_float/float_aeabi.S.obj
 .text.__wrap___aeabi_f2d
                0x00000000       0x14 CMakeFiles/FreeRTOS_Blink.dir/E_/Pi_Pico/pico-sdk/src/rp2_common/pico_float/float_aeabi.S.obj
 .text.__wrap_srqtf
                0x00000000       0x24 CMakeFiles/FreeRTOS_Blink.dir/E_/Pi_Pico/pico-sdk/src/rp2_common/pico_float/float_aeabi.S.obj
 .text.__wrap_cosf
                0x00000000       0x28 CMakeFiles/FreeRTOS_Blink.dir/E_/Pi_Pico/pico-sdk/src/rp2_common/pico_float/float_aeabi.S.obj
 .text.__wrap_sinf
                0x00000000       0x28 CMakeFiles/FreeRTOS_Blink.dir/E_/Pi_Pico/pico-sdk/src/rp2_common/pico_float/float_aeabi.S.obj
 .text.__wrap_sincosf
                0x00000000       0x30 CMakeFiles/FreeRTOS_Blink.dir/E_/Pi_Pico/pico-sdk/src/rp2_common/pico_float/float_aeabi.S.obj
 .text.__wrap_tanf
                0x00000000       0x28 CMakeFiles/FreeRTOS_Blink.dir/E_/Pi_Pico/pico-sdk/src/rp2_common/pico_float/float_aeabi.S.obj
 .text.__wrap_atan2f
                0x00000000       0x14 CMakeFiles/FreeRTOS_Blink.dir/E_/Pi_Pico/pico-sdk/src/rp2_common/pico_float/float_aeabi.S.obj
 .text.__wrap_expf
                0x00000000       0x10 CMakeFiles/FreeRTOS_Blink.dir/E_/Pi_Pico/pico-sdk/src/rp2_common/pico_float/float_aeabi.S.obj
 .text.__wrap_logf
                0x00000000       0x10 CMakeFiles/FreeRTOS_Blink.dir/E_/Pi_Pico/pico-sdk/src/rp2_common/pico_float/float_aeabi.S.obj
 .text          0x00000000        0x0 CMakeFiles/FreeRTOS_Blink.dir/E_/Pi_Pico/pico-sdk/src/rp2_common/pico_float/float_init_rom.c.obj
 .data          0x00000000        0x0 CMakeFiles/FreeRTOS_Blink.dir/E_/Pi_Pico/pico-sdk/src/rp2_common/pico_float/float_init_rom.c.obj
 .bss           0x00000000        0x0 CMakeFiles/FreeRTOS_Blink.dir/E_/Pi_Pico/pico-sdk/src/rp2_common/pico_float/float_init_rom.c.obj
 .text          0x00000000        0x0 CMakeFiles/FreeRTOS_Blink.dir/E_/Pi_Pico/pico-sdk/src/rp2_common/pico_float/float_math.c.obj
 .data          0x00000000        0x0 CMakeFiles/FreeRTOS_Blink.dir/E_/Pi_Pico/pico-sdk/src/rp2_common/pico_float/float_math.c.obj
 .bss           0x00000000        0x0 CMakeFiles/FreeRTOS_Blink.dir/E_/Pi_Pico/pico-sdk/src/rp2_common/pico_float/float_math.c.obj
 .text.fpow_int2
                0x00000000       0x26 CMakeFiles/FreeRTOS_Blink.dir/E_/Pi_Pico/pico-sdk/src/rp2_common/pico_float/float_math.c.obj
 .text.frem_0   0x00000000       0x80 CMakeFiles/FreeRTOS_Blink.dir/E_/Pi_Pico/pico-sdk/src/rp2_common/pico_float/float_math.c.obj
 .text.fpow_0   0x00000000      0x130 CMakeFiles/FreeRTOS_Blink.dir/E_/Pi_Pico/pico-sdk/src/rp2_common/pico_float/float_math.c.obj
 .text.fpowint_0
                0x00000000      0x11c CMakeFiles/FreeRTOS_Blink.dir/E_/Pi_Pico/pico-sdk/src/rp2_common/pico_float/float_math.c.obj
 .text.__wrap_ldexpf
                0x00000000       0x34 CMakeFiles/FreeRTOS_Blink.dir/E_/Pi_Pico/pico-sdk/src/rp2_common/pico_float/float_math.c.obj
 .text.__wrap_copysignf
                0x00000000        0xc CMakeFiles/FreeRTOS_Blink.dir/E_/Pi_Pico/pico-sdk/src/rp2_common/pico_float/float_math.c.obj
 .text.__wrap_truncf
                0x00000000       0x22 CMakeFiles/FreeRTOS_Blink.dir/E_/Pi_Pico/pico-sdk/src/rp2_common/pico_float/float_math.c.obj
 .text.__wrap_roundf
                0x00000000       0x3e CMakeFiles/FreeRTOS_Blink.dir/E_/Pi_Pico/pico-sdk/src/rp2_common/pico_float/float_math.c.obj
 .text.__wrap_floorf
                0x00000000       0x44 CMakeFiles/FreeRTOS_Blink.dir/E_/Pi_Pico/pico-sdk/src/rp2_common/pico_float/float_math.c.obj
 .text.__wrap_ceilf
                0x00000000       0x44 CMakeFiles/FreeRTOS_Blink.dir/E_/Pi_Pico/pico-sdk/src/rp2_common/pico_float/float_math.c.obj
 .text.__wrap_asinf
                0x00000000       0x42 CMakeFiles/FreeRTOS_Blink.dir/E_/Pi_Pico/pico-sdk/src/rp2_common/pico_float/float_math.c.obj
 .text.__wrap_acosf
                0x00000000       0x40 CMakeFiles/FreeRTOS_Blink.dir/E_/Pi_Pico/pico-sdk/src/rp2_common/pico_float/float_math.c.obj
 .text.__wrap_atanf
                0x00000000       0x2c CMakeFiles/FreeRTOS_Blink.dir/E_/Pi_Pico/pico-sdk/src/rp2_common/pico_float/float_math.c.obj
 .text.__wrap_sinhf
                0x00000000       0x54 CMakeFiles/FreeRTOS_Blink.dir/E_/Pi_Pico/pico-sdk/src/rp2_common/pico_float/float_math.c.obj
 .text.__wrap_coshf
                0x00000000       0x54 CMakeFiles/FreeRTOS_Blink.dir/E_/Pi_Pico/pico-sdk/src/rp2_common/pico_float/float_math.c.obj
 .text.__wrap_tanhf
                0x00000000       0x6c CMakeFiles/FreeRTOS_Blink.dir/E_/Pi_Pico/pico-sdk/src/rp2_common/pico_float/float_math.c.obj
 .text.__wrap_asinhf
                0x00000000       0xb8 CMakeFiles/FreeRTOS_Blink.dir/E_/Pi_Pico/pico-sdk/src/rp2_common/pico_float/float_math.c.obj
 .text.__wrap_acoshf
                0x00000000       0x74 CMakeFiles/FreeRTOS_Blink.dir/E_/Pi_Pico/pico-sdk/src/rp2_common/pico_float/float_math.c.obj
 .text.__wrap_atanhf
                0x00000000       0x5c CMakeFiles/FreeRTOS_Blink.dir/E_/Pi_Pico/pico-sdk/src/rp2_common/pico_float/float_math.c.obj
 .text.__wrap_exp2f
                0x00000000       0x20 CMakeFiles/FreeRTOS_Blink.dir/E_/Pi_Pico/pico-sdk/src/rp2_common/pico_float/float_math.c.obj
 .text.__wrap_log2f
                0x00000000       0x14 CMakeFiles/FreeRTOS_Blink.dir/E_/Pi_Pico/pico-sdk/src/rp2_common/pico_float/float_math.c.obj
 .text.__wrap_exp10f
                0x00000000       0x20 CMakeFiles/FreeRTOS_Blink.dir/E_/Pi_Pico/pico-sdk/src/rp2_common/pico_float/float_math.c.obj
 .text.__wrap_log10f
                0x00000000       0x14 CMakeFiles/FreeRTOS_Blink.dir/E_/Pi_Pico/pico-sdk/src/rp2_common/pico_float/float_math.c.obj
 .text.__wrap_expm1f
                0x00000000       0x1c CMakeFiles/FreeRTOS_Blink.dir/E_/Pi_Pico/pico-sdk/src/rp2_common/pico_float/float_math.c.obj
 .text.__wrap_log1pf
                0x00000000       0x1c CMakeFiles/FreeRTOS_Blink.dir/E_/Pi_Pico/pico-sdk/src/rp2_common/pico_float/float_math.c.obj
 .text.__wrap_fmaf
                0x00000000       0x3c CMakeFiles/FreeRTOS_Blink.dir/E_/Pi_Pico/pico-sdk/src/rp2_common/pico_float/float_math.c.obj
 .text.__wrap_powintf
                0x00000000       0xa0 CMakeFiles/FreeRTOS_Blink.dir/E_/Pi_Pico/pico-sdk/src/rp2_common/pico_float/float_math.c.obj
 .text.__wrap_powf
                0x00000000      0x214 CMakeFiles/FreeRTOS_Blink.dir/E_/Pi_Pico/pico-sdk/src/rp2_common/pico_float/float_math.c.obj
 .text.__wrap_hypotf
                0x00000000      0x18a CMakeFiles/FreeRTOS_Blink.dir/E_/Pi_Pico/pico-sdk/src/rp2_common/pico_float/float_math.c.obj
 .text.__wrap_cbrtf
                0x00000000       0xc4 CMakeFiles/FreeRTOS_Blink.dir/E_/Pi_Pico/pico-sdk/src/rp2_common/pico_float/float_math.c.obj
 .text.__wrap_fmodf
                0x00000000       0x62 CMakeFiles/FreeRTOS_Blink.dir/E_/Pi_Pico/pico-sdk/src/rp2_common/pico_float/float_math.c.obj
 .text.__wrap_remquof
                0x00000000       0xda CMakeFiles/FreeRTOS_Blink.dir/E_/Pi_Pico/pico-sdk/src/rp2_common/pico_float/float_math.c.obj
 .text.__wrap_dremf
                0x00000000        0xa CMakeFiles/FreeRTOS_Blink.dir/E_/Pi_Pico/pico-sdk/src/rp2_common/pico_float/float_math.c.obj
 .text.__wrap_remainderf
                0x00000000        0xa CMakeFiles/FreeRTOS_Blink.dir/E_/Pi_Pico/pico-sdk/src/rp2_common/pico_float/float_math.c.obj
 .debug_info    0x00000000     0x2f14 CMakeFiles/FreeRTOS_Blink.dir/E_/Pi_Pico/pico-sdk/src/rp2_common/pico_float/float_math.c.obj
 .debug_abbrev  0x00000000      0x296 CMakeFiles/FreeRTOS_Blink.dir/E_/Pi_Pico/pico-sdk/src/rp2_common/pico_float/float_math.c.obj
 .debug_loc     0x00000000     0x465d CMakeFiles/FreeRTOS_Blink.dir/E_/Pi_Pico/pico-sdk/src/rp2_common/pico_float/float_math.c.obj
 .debug_aranges
                0x00000000      0x128 CMakeFiles/FreeRTOS_Blink.dir/E_/Pi_Pico/pico-sdk/src/rp2_common/pico_float/float_math.c.obj
 .debug_ranges  0x00000000      0x4b8 CMakeFiles/FreeRTOS_Blink.dir/E_/Pi_Pico/pico-sdk/src/rp2_common/pico_float/float_math.c.obj
 .debug_line    0x00000000     0x1dc6 CMakeFiles/FreeRTOS_Blink.dir/E_/Pi_Pico/pico-sdk/src/rp2_common/pico_float/float_math.c.obj
 .debug_str     0x00000000      0x4fe CMakeFiles/FreeRTOS_Blink.dir/E_/Pi_Pico/pico-sdk/src/rp2_common/pico_float/float_math.c.obj
 .comment       0x00000000       0x4e CMakeFiles/FreeRTOS_Blink.dir/E_/Pi_Pico/pico-sdk/src/rp2_common/pico_float/float_math.c.obj
 .debug_frame   0x00000000      0x3a0 CMakeFiles/FreeRTOS_Blink.dir/E_/Pi_Pico/pico-sdk/src/rp2_common/pico_float/float_math.c.obj
 .ARM.attributes
                0x00000000       0x2b CMakeFiles/FreeRTOS_Blink.dir/E_/Pi_Pico/pico-sdk/src/rp2_common/pico_float/float_math.c.obj
 .text          0x00000000        0x0 CMakeFiles/FreeRTOS_Blink.dir/E_/Pi_Pico/pico-sdk/src/rp2_common/pico_float/float_v1_rom_shim.S.obj
 .data          0x00000000        0x0 CMakeFiles/FreeRTOS_Blink.dir/E_/Pi_Pico/pico-sdk/src/rp2_common/pico_float/float_v1_rom_shim.S.obj
 .bss           0x00000000        0x0 CMakeFiles/FreeRTOS_Blink.dir/E_/Pi_Pico/pico-sdk/src/rp2_common/pico_float/float_v1_rom_shim.S.obj
 .text.642float_shims
                0x00000000       0x44 CMakeFiles/FreeRTOS_Blink.dir/E_/Pi_Pico/pico-sdk/src/rp2_common/pico_float/float_v1_rom_shim.S.obj
 .text.fatan2_shim
                0x00000000       0x88 CMakeFiles/FreeRTOS_Blink.dir/E_/Pi_Pico/pico-sdk/src/rp2_common/pico_float/float_v1_rom_shim.S.obj
 .text.float232_shims
                0x00000000       0x18 CMakeFiles/FreeRTOS_Blink.dir/E_/Pi_Pico/pico-sdk/src/rp2_common/pico_float/float_v1_rom_shim.S.obj
 .text.float264_shims
                0x00000000       0x4c CMakeFiles/FreeRTOS_Blink.dir/E_/Pi_Pico/pico-sdk/src/rp2_common/pico_float/float_v1_rom_shim.S.obj
 .text.d2fix_a_float
                0x00000000       0x5c CMakeFiles/FreeRTOS_Blink.dir/E_/Pi_Pico/pico-sdk/src/rp2_common/pico_float/float_v1_rom_shim.S.obj
 .text.float2double_shim
                0x00000000       0x30 CMakeFiles/FreeRTOS_Blink.dir/E_/Pi_Pico/pico-sdk/src/rp2_common/pico_float/float_v1_rom_shim.S.obj
 .text          0x00000000        0x0 CMakeFiles/FreeRTOS_Blink.dir/E_/Pi_Pico/pico-sdk/src/rp2_common/pico_malloc/pico_malloc.c.obj
 .data          0x00000000        0x0 CMakeFiles/FreeRTOS_Blink.dir/E_/Pi_Pico/pico-sdk/src/rp2_common/pico_malloc/pico_malloc.c.obj
 .bss           0x00000000        0x0 CMakeFiles/FreeRTOS_Blink.dir/E_/Pi_Pico/pico-sdk/src/rp2_common/pico_malloc/pico_malloc.c.obj
 .text.__wrap_free
                0x00000000        0x8 CMakeFiles/FreeRTOS_Blink.dir/E_/Pi_Pico/pico-sdk/src/rp2_common/pico_malloc/pico_malloc.c.obj
 .data          0x00000000        0x0 CMakeFiles/FreeRTOS_Blink.dir/E_/Pi_Pico/pico-sdk/src/rp2_common/pico_mem_ops/mem_ops_aeabi.S.obj
 .bss           0x00000000        0x0 CMakeFiles/FreeRTOS_Blink.dir/E_/Pi_Pico/pico-sdk/src/rp2_common/pico_mem_ops/mem_ops_aeabi.S.obj
 .text.aeabi_memset_memcpy
                0x00000000       0x24 CMakeFiles/FreeRTOS_Blink.dir/E_/Pi_Pico/pico-sdk/src/rp2_common/pico_mem_ops/mem_ops_aeabi.S.obj
 .text          0x00000000        0x0 CMakeFiles/FreeRTOS_Blink.dir/E_/Pi_Pico/pico-sdk/src/rp2_common/pico_standard_link/crt0.S.obj
 .data          0x00000000        0x0 CMakeFiles/FreeRTOS_Blink.dir/E_/Pi_Pico/pico-sdk/src/rp2_common/pico_standard_link/crt0.S.obj
 .bss           0x00000000        0x0 CMakeFiles/FreeRTOS_Blink.dir/E_/Pi_Pico/pico-sdk/src/rp2_common/pico_standard_link/crt0.S.obj
 .text          0x00000000        0x0 CMakeFiles/FreeRTOS_Blink.dir/E_/Pi_Pico/pico-sdk/src/rp2_common/pico_standard_link/new_delete.cpp.obj
 .data          0x00000000        0x0 CMakeFiles/FreeRTOS_Blink.dir/E_/Pi_Pico/pico-sdk/src/rp2_common/pico_standard_link/new_delete.cpp.obj
 .bss           0x00000000        0x0 CMakeFiles/FreeRTOS_Blink.dir/E_/Pi_Pico/pico-sdk/src/rp2_common/pico_standard_link/new_delete.cpp.obj
 .text._Znwj    0x00000000        0x8 CMakeFiles/FreeRTOS_Blink.dir/E_/Pi_Pico/pico-sdk/src/rp2_common/pico_standard_link/new_delete.cpp.obj
 .text._Znaj    0x00000000        0x8 CMakeFiles/FreeRTOS_Blink.dir/E_/Pi_Pico/pico-sdk/src/rp2_common/pico_standard_link/new_delete.cpp.obj
 .text._ZdlPvj  0x00000000        0x8 CMakeFiles/FreeRTOS_Blink.dir/E_/Pi_Pico/pico-sdk/src/rp2_common/pico_standard_link/new_delete.cpp.obj
 .text._ZdlPv   0x00000000        0x8 CMakeFiles/FreeRTOS_Blink.dir/E_/Pi_Pico/pico-sdk/src/rp2_common/pico_standard_link/new_delete.cpp.obj
 .text._ZdaPv   0x00000000        0x8 CMakeFiles/FreeRTOS_Blink.dir/E_/Pi_Pico/pico-sdk/src/rp2_common/pico_standard_link/new_delete.cpp.obj
 .debug_info    0x00000000      0x750 CMakeFiles/FreeRTOS_Blink.dir/E_/Pi_Pico/pico-sdk/src/rp2_common/pico_standard_link/new_delete.cpp.obj
 .debug_abbrev  0x00000000      0x1eb CMakeFiles/FreeRTOS_Blink.dir/E_/Pi_Pico/pico-sdk/src/rp2_common/pico_standard_link/new_delete.cpp.obj
 .debug_loc     0x00000000       0xde CMakeFiles/FreeRTOS_Blink.dir/E_/Pi_Pico/pico-sdk/src/rp2_common/pico_standard_link/new_delete.cpp.obj
 .debug_aranges
                0x00000000       0x40 CMakeFiles/FreeRTOS_Blink.dir/E_/Pi_Pico/pico-sdk/src/rp2_common/pico_standard_link/new_delete.cpp.obj
 .debug_ranges  0x00000000       0x30 CMakeFiles/FreeRTOS_Blink.dir/E_/Pi_Pico/pico-sdk/src/rp2_common/pico_standard_link/new_delete.cpp.obj
 .debug_line    0x00000000      0x253 CMakeFiles/FreeRTOS_Blink.dir/E_/Pi_Pico/pico-sdk/src/rp2_common/pico_standard_link/new_delete.cpp.obj
 .debug_str     0x00000000      0x382 CMakeFiles/FreeRTOS_Blink.dir/E_/Pi_Pico/pico-sdk/src/rp2_common/pico_standard_link/new_delete.cpp.obj
 .comment       0x00000000       0x4e CMakeFiles/FreeRTOS_Blink.dir/E_/Pi_Pico/pico-sdk/src/rp2_common/pico_standard_link/new_delete.cpp.obj
 .debug_frame   0x00000000       0x88 CMakeFiles/FreeRTOS_Blink.dir/E_/Pi_Pico/pico-sdk/src/rp2_common/pico_standard_link/new_delete.cpp.obj
 .ARM.attributes
                0x00000000       0x2b CMakeFiles/FreeRTOS_Blink.dir/E_/Pi_Pico/pico-sdk/src/rp2_common/pico_standard_link/new_delete.cpp.obj
 .text          0x00000000        0x0 CMakeFiles/FreeRTOS_Blink.dir/E_/Pi_Pico/pico-sdk/src/rp2_common/pico_standard_link/binary_info.c.obj
 .data          0x00000000        0x0 CMakeFiles/FreeRTOS_Blink.dir/E_/Pi_Pico/pico-sdk/src/rp2_common/pico_standard_link/binary_info.c.obj
 .bss           0x00000000        0x0 CMakeFiles/FreeRTOS_Blink.dir/E_/Pi_Pico/pico-sdk/src/rp2_common/pico_standard_link/binary_info.c.obj
 .text          0x00000000        0x0 CMakeFiles/FreeRTOS_Blink.dir/E_/Pi_Pico/pico-sdk/src/rp2_common/pico_stdio/stdio.c.obj
 .data          0x00000000        0x0 CMakeFiles/FreeRTOS_Blink.dir/E_/Pi_Pico/pico-sdk/src/rp2_common/pico_stdio/stdio.c.obj
 .bss           0x00000000        0x0 CMakeFiles/FreeRTOS_Blink.dir/E_/Pi_Pico/pico-sdk/src/rp2_common/pico_stdio/stdio.c.obj
 .text.stdio_get_until
                0x00000000       0x78 CMakeFiles/FreeRTOS_Blink.dir/E_/Pi_Pico/pico-sdk/src/rp2_common/pico_stdio/stdio.c.obj
 .text.__wrap_putchar
                0x00000000       0x1a CMakeFiles/FreeRTOS_Blink.dir/E_/Pi_Pico/pico-sdk/src/rp2_common/pico_stdio/stdio.c.obj
 .text._read    0x00000000       0x24 CMakeFiles/FreeRTOS_Blink.dir/E_/Pi_Pico/pico-sdk/src/rp2_common/pico_stdio/stdio.c.obj
 .text._write   0x00000000       0x1e CMakeFiles/FreeRTOS_Blink.dir/E_/Pi_Pico/pico-sdk/src/rp2_common/pico_stdio/stdio.c.obj
 .text.__wrap_getchar
                0x00000000       0x28 CMakeFiles/FreeRTOS_Blink.dir/E_/Pi_Pico/pico-sdk/src/rp2_common/pico_stdio/stdio.c.obj
 .rodata.getchar_timeout_us.str1.4
                0x00000000       0x3a CMakeFiles/FreeRTOS_Blink.dir/E_/Pi_Pico/pico-sdk/src/rp2_common/pico_stdio/stdio.c.obj
 .text.getchar_timeout_us
                0x00000000       0x54 CMakeFiles/FreeRTOS_Blink.dir/E_/Pi_Pico/pico-sdk/src/rp2_common/pico_stdio/stdio.c.obj
 .text.stdio_filter_driver
                0x00000000        0xc CMakeFiles/FreeRTOS_Blink.dir/E_/Pi_Pico/pico-sdk/src/rp2_common/pico_stdio/stdio.c.obj
 .text.stdio_set_translate_crlf
                0x00000000       0x10 CMakeFiles/FreeRTOS_Blink.dir/E_/Pi_Pico/pico-sdk/src/rp2_common/pico_stdio/stdio.c.obj
 .rodata.__func__.0
                0x00000000       0x13 CMakeFiles/FreeRTOS_Blink.dir/E_/Pi_Pico/pico-sdk/src/rp2_common/pico_stdio/stdio.c.obj
 .text          0x00000000        0x0 CMakeFiles/FreeRTOS_Blink.dir/E_/Pi_Pico/pico-sdk/src/rp2_common/pico_stdio_usb/stdio_usb.c.obj
 .data          0x00000000        0x0 CMakeFiles/FreeRTOS_Blink.dir/E_/Pi_Pico/pico-sdk/src/rp2_common/pico_stdio_usb/stdio_usb.c.obj
 .bss           0x00000000        0x0 CMakeFiles/FreeRTOS_Blink.dir/E_/Pi_Pico/pico-sdk/src/rp2_common/pico_stdio_usb/stdio_usb.c.obj
 .text          0x00000000        0x0 CMakeFiles/FreeRTOS_Blink.dir/E_/Pi_Pico/pico-sdk/src/rp2_common/pico_stdio_usb/stdio_usb_descriptors.c.obj
 .data          0x00000000        0x0 CMakeFiles/FreeRTOS_Blink.dir/E_/Pi_Pico/pico-sdk/src/rp2_common/pico_stdio_usb/stdio_usb_descriptors.c.obj
 .bss           0x00000000        0x0 CMakeFiles/FreeRTOS_Blink.dir/E_/Pi_Pico/pico-sdk/src/rp2_common/pico_stdio_usb/stdio_usb_descriptors.c.obj
 .text          0x00000000        0x0 CMakeFiles/FreeRTOS_Blink.dir/E_/Pi_Pico/pico-sdk/lib/tinyusb/src/portable/raspberrypi/rp2040/dcd_rp2040.c.obj
 .data          0x00000000        0x0 CMakeFiles/FreeRTOS_Blink.dir/E_/Pi_Pico/pico-sdk/lib/tinyusb/src/portable/raspberrypi/rp2040/dcd_rp2040.c.obj
 .bss           0x00000000        0x0 CMakeFiles/FreeRTOS_Blink.dir/E_/Pi_Pico/pico-sdk/lib/tinyusb/src/portable/raspberrypi/rp2040/dcd_rp2040.c.obj
 .text.dcd_int_disable
                0x00000000       0x2c CMakeFiles/FreeRTOS_Blink.dir/E_/Pi_Pico/pico-sdk/lib/tinyusb/src/portable/raspberrypi/rp2040/dcd_rp2040.c.obj
 .rodata.dcd_remote_wakeup.str1.4
                0x00000000       0x16 CMakeFiles/FreeRTOS_Blink.dir/E_/Pi_Pico/pico-sdk/lib/tinyusb/src/portable/raspberrypi/rp2040/dcd_rp2040.c.obj
 .text.dcd_remote_wakeup
                0x00000000       0x10 CMakeFiles/FreeRTOS_Blink.dir/E_/Pi_Pico/pico-sdk/lib/tinyusb/src/portable/raspberrypi/rp2040/dcd_rp2040.c.obj
 .text.dcd_disconnect
                0x00000000       0x30 CMakeFiles/FreeRTOS_Blink.dir/E_/Pi_Pico/pico-sdk/lib/tinyusb/src/portable/raspberrypi/rp2040/dcd_rp2040.c.obj
 .text.dcd_edpt_close
                0x00000000        0x2 CMakeFiles/FreeRTOS_Blink.dir/E_/Pi_Pico/pico-sdk/lib/tinyusb/src/portable/raspberrypi/rp2040/dcd_rp2040.c.obj
 .rodata.__func__.7
                0x00000000        0xf CMakeFiles/FreeRTOS_Blink.dir/E_/Pi_Pico/pico-sdk/lib/tinyusb/src/portable/raspberrypi/rp2040/dcd_rp2040.c.obj
 .rodata.__func__.9
                0x00000000       0x10 CMakeFiles/FreeRTOS_Blink.dir/E_/Pi_Pico/pico-sdk/lib/tinyusb/src/portable/raspberrypi/rp2040/dcd_rp2040.c.obj
 .text          0x00000000        0x0 CMakeFiles/FreeRTOS_Blink.dir/E_/Pi_Pico/pico-sdk/lib/tinyusb/src/portable/raspberrypi/rp2040/rp2040_usb.c.obj
 .data          0x00000000        0x0 CMakeFiles/FreeRTOS_Blink.dir/E_/Pi_Pico/pico-sdk/lib/tinyusb/src/portable/raspberrypi/rp2040/rp2040_usb.c.obj
 .bss           0x00000000        0x0 CMakeFiles/FreeRTOS_Blink.dir/E_/Pi_Pico/pico-sdk/lib/tinyusb/src/portable/raspberrypi/rp2040/rp2040_usb.c.obj
 .text          0x00000000        0x0 CMakeFiles/FreeRTOS_Blink.dir/E_/Pi_Pico/pico-sdk/lib/tinyusb/src/device/usbd.c.obj
 .data          0x00000000        0x0 CMakeFiles/FreeRTOS_Blink.dir/E_/Pi_Pico/pico-sdk/lib/tinyusb/src/device/usbd.c.obj
 .bss           0x00000000        0x0 CMakeFiles/FreeRTOS_Blink.dir/E_/Pi_Pico/pico-sdk/lib/tinyusb/src/device/usbd.c.obj
 .text.tud_speed_get
                0x00000000        0xc CMakeFiles/FreeRTOS_Blink.dir/E_/Pi_Pico/pico-sdk/lib/tinyusb/src/device/usbd.c.obj
 .text.tud_remote_wakeup
                0x00000000       0x2c CMakeFiles/FreeRTOS_Blink.dir/E_/Pi_Pico/pico-sdk/lib/tinyusb/src/device/usbd.c.obj
 .text.tud_disconnect
                0x00000000       0x1c CMakeFiles/FreeRTOS_Blink.dir/E_/Pi_Pico/pico-sdk/lib/tinyusb/src/device/usbd.c.obj
 .text.tud_connect
                0x00000000       0x1c CMakeFiles/FreeRTOS_Blink.dir/E_/Pi_Pico/pico-sdk/lib/tinyusb/src/device/usbd.c.obj
 .text.tud_task_event_ready
                0x00000000       0x20 CMakeFiles/FreeRTOS_Blink.dir/E_/Pi_Pico/pico-sdk/lib/tinyusb/src/device/usbd.c.obj
 .text.dcd_event_bus_reset
                0x00000000       0x2a CMakeFiles/FreeRTOS_Blink.dir/E_/Pi_Pico/pico-sdk/lib/tinyusb/src/device/usbd.c.obj
 .text.usbd_defer_func
                0x00000000       0x2a CMakeFiles/FreeRTOS_Blink.dir/E_/Pi_Pico/pico-sdk/lib/tinyusb/src/device/usbd.c.obj
 .text.usbd_edpt_busy
                0x00000000       0x1c CMakeFiles/FreeRTOS_Blink.dir/E_/Pi_Pico/pico-sdk/lib/tinyusb/src/device/usbd.c.obj
 .text.usbd_edpt_close
                0x00000000       0x2c CMakeFiles/FreeRTOS_Blink.dir/E_/Pi_Pico/pico-sdk/lib/tinyusb/src/device/usbd.c.obj
 .rodata.__func__.0
                0x00000000       0x10 CMakeFiles/FreeRTOS_Blink.dir/E_/Pi_Pico/pico-sdk/lib/tinyusb/src/device/usbd.c.obj
 .text          0x00000000        0x0 CMakeFiles/FreeRTOS_Blink.dir/E_/Pi_Pico/pico-sdk/lib/tinyusb/src/device/usbd_control.c.obj
 .data          0x00000000        0x0 CMakeFiles/FreeRTOS_Blink.dir/E_/Pi_Pico/pico-sdk/lib/tinyusb/src/device/usbd_control.c.obj
 .bss           0x00000000        0x0 CMakeFiles/FreeRTOS_Blink.dir/E_/Pi_Pico/pico-sdk/lib/tinyusb/src/device/usbd_control.c.obj
 .text          0x00000000        0x0 CMakeFiles/FreeRTOS_Blink.dir/E_/Pi_Pico/pico-sdk/lib/tinyusb/src/class/audio/audio_device.c.obj
 .data          0x00000000        0x0 CMakeFiles/FreeRTOS_Blink.dir/E_/Pi_Pico/pico-sdk/lib/tinyusb/src/class/audio/audio_device.c.obj
 .bss           0x00000000        0x0 CMakeFiles/FreeRTOS_Blink.dir/E_/Pi_Pico/pico-sdk/lib/tinyusb/src/class/audio/audio_device.c.obj
 .debug_line    0x00000000        0x0 CMakeFiles/FreeRTOS_Blink.dir/E_/Pi_Pico/pico-sdk/lib/tinyusb/src/class/audio/audio_device.c.obj
 .debug_str     0x00000000       0xf7 CMakeFiles/FreeRTOS_Blink.dir/E_/Pi_Pico/pico-sdk/lib/tinyusb/src/class/audio/audio_device.c.obj
 .comment       0x00000000       0x4e CMakeFiles/FreeRTOS_Blink.dir/E_/Pi_Pico/pico-sdk/lib/tinyusb/src/class/audio/audio_device.c.obj
 .ARM.attributes
                0x00000000       0x32 CMakeFiles/FreeRTOS_Blink.dir/E_/Pi_Pico/pico-sdk/lib/tinyusb/src/class/audio/audio_device.c.obj
 .text          0x00000000        0x0 CMakeFiles/FreeRTOS_Blink.dir/E_/Pi_Pico/pico-sdk/lib/tinyusb/src/class/cdc/cdc_device.c.obj
 .data          0x00000000        0x0 CMakeFiles/FreeRTOS_Blink.dir/E_/Pi_Pico/pico-sdk/lib/tinyusb/src/class/cdc/cdc_device.c.obj
 .bss           0x00000000        0x0 CMakeFiles/FreeRTOS_Blink.dir/E_/Pi_Pico/pico-sdk/lib/tinyusb/src/class/cdc/cdc_device.c.obj
 .text.tud_cdc_n_get_line_state
                0x00000000       0x18 CMakeFiles/FreeRTOS_Blink.dir/E_/Pi_Pico/pico-sdk/lib/tinyusb/src/class/cdc/cdc_device.c.obj
 .text.tud_cdc_n_get_line_coding
                0x00000000       0x24 CMakeFiles/FreeRTOS_Blink.dir/E_/Pi_Pico/pico-sdk/lib/tinyusb/src/class/cdc/cdc_device.c.obj
 .text.tud_cdc_n_set_wanted_char
                0x00000000       0x18 CMakeFiles/FreeRTOS_Blink.dir/E_/Pi_Pico/pico-sdk/lib/tinyusb/src/class/cdc/cdc_device.c.obj
 .text.tud_cdc_n_peek
                0x00000000       0x20 CMakeFiles/FreeRTOS_Blink.dir/E_/Pi_Pico/pico-sdk/lib/tinyusb/src/class/cdc/cdc_device.c.obj
 .text.tud_cdc_n_read_flush
                0x00000000       0x28 CMakeFiles/FreeRTOS_Blink.dir/E_/Pi_Pico/pico-sdk/lib/tinyusb/src/class/cdc/cdc_device.c.obj
 .text          0x00000000        0x0 CMakeFiles/FreeRTOS_Blink.dir/E_/Pi_Pico/pico-sdk/lib/tinyusb/src/class/dfu/dfu_rt_device.c.obj
 .data          0x00000000        0x0 CMakeFiles/FreeRTOS_Blink.dir/E_/Pi_Pico/pico-sdk/lib/tinyusb/src/class/dfu/dfu_rt_device.c.obj
 .bss           0x00000000        0x0 CMakeFiles/FreeRTOS_Blink.dir/E_/Pi_Pico/pico-sdk/lib/tinyusb/src/class/dfu/dfu_rt_device.c.obj
 .debug_line    0x00000000        0x0 CMakeFiles/FreeRTOS_Blink.dir/E_/Pi_Pico/pico-sdk/lib/tinyusb/src/class/dfu/dfu_rt_device.c.obj
 .debug_str     0x00000000       0xf6 CMakeFiles/FreeRTOS_Blink.dir/E_/Pi_Pico/pico-sdk/lib/tinyusb/src/class/dfu/dfu_rt_device.c.obj
 .comment       0x00000000       0x4e CMakeFiles/FreeRTOS_Blink.dir/E_/Pi_Pico/pico-sdk/lib/tinyusb/src/class/dfu/dfu_rt_device.c.obj
 .ARM.attributes
                0x00000000       0x32 CMakeFiles/FreeRTOS_Blink.dir/E_/Pi_Pico/pico-sdk/lib/tinyusb/src/class/dfu/dfu_rt_device.c.obj
 .text          0x00000000        0x0 CMakeFiles/FreeRTOS_Blink.dir/E_/Pi_Pico/pico-sdk/lib/tinyusb/src/class/hid/hid_device.c.obj
 .data          0x00000000        0x0 CMakeFiles/FreeRTOS_Blink.dir/E_/Pi_Pico/pico-sdk/lib/tinyusb/src/class/hid/hid_device.c.obj
 .bss           0x00000000        0x0 CMakeFiles/FreeRTOS_Blink.dir/E_/Pi_Pico/pico-sdk/lib/tinyusb/src/class/hid/hid_device.c.obj
 .debug_line    0x00000000        0x0 CMakeFiles/FreeRTOS_Blink.dir/E_/Pi_Pico/pico-sdk/lib/tinyusb/src/class/hid/hid_device.c.obj
 .debug_str     0x00000000       0xf3 CMakeFiles/FreeRTOS_Blink.dir/E_/Pi_Pico/pico-sdk/lib/tinyusb/src/class/hid/hid_device.c.obj
 .comment       0x00000000       0x4e CMakeFiles/FreeRTOS_Blink.dir/E_/Pi_Pico/pico-sdk/lib/tinyusb/src/class/hid/hid_device.c.obj
 .ARM.attributes
                0x00000000       0x32 CMakeFiles/FreeRTOS_Blink.dir/E_/Pi_Pico/pico-sdk/lib/tinyusb/src/class/hid/hid_device.c.obj
 .text          0x00000000        0x0 CMakeFiles/FreeRTOS_Blink.dir/E_/Pi_Pico/pico-sdk/lib/tinyusb/src/class/midi/midi_device.c.obj
 .data          0x00000000        0x0 CMakeFiles/FreeRTOS_Blink.dir/E_/Pi_Pico/pico-sdk/lib/tinyusb/src/class/midi/midi_device.c.obj
 .bss           0x00000000        0x0 CMakeFiles/FreeRTOS_Blink.dir/E_/Pi_Pico/pico-sdk/lib/tinyusb/src/class/midi/midi_device.c.obj
 .debug_line    0x00000000        0x0 CMakeFiles/FreeRTOS_Blink.dir/E_/Pi_Pico/pico-sdk/lib/tinyusb/src/class/midi/midi_device.c.obj
 .debug_str     0x00000000       0xf5 CMakeFiles/FreeRTOS_Blink.dir/E_/Pi_Pico/pico-sdk/lib/tinyusb/src/class/midi/midi_device.c.obj
 .comment       0x00000000       0x4e CMakeFiles/FreeRTOS_Blink.dir/E_/Pi_Pico/pico-sdk/lib/tinyusb/src/class/midi/midi_device.c.obj
 .ARM.attributes
                0x00000000       0x32 CMakeFiles/FreeRTOS_Blink.dir/E_/Pi_Pico/pico-sdk/lib/tinyusb/src/class/midi/midi_device.c.obj
 .text          0x00000000        0x0 CMakeFiles/FreeRTOS_Blink.dir/E_/Pi_Pico/pico-sdk/lib/tinyusb/src/class/msc/msc_device.c.obj
 .data          0x00000000        0x0 CMakeFiles/FreeRTOS_Blink.dir/E_/Pi_Pico/pico-sdk/lib/tinyusb/src/class/msc/msc_device.c.obj
 .bss           0x00000000        0x0 CMakeFiles/FreeRTOS_Blink.dir/E_/Pi_Pico/pico-sdk/lib/tinyusb/src/class/msc/msc_device.c.obj
 .debug_line    0x00000000        0x0 CMakeFiles/FreeRTOS_Blink.dir/E_/Pi_Pico/pico-sdk/lib/tinyusb/src/class/msc/msc_device.c.obj
 .debug_str     0x00000000       0xf3 CMakeFiles/FreeRTOS_Blink.dir/E_/Pi_Pico/pico-sdk/lib/tinyusb/src/class/msc/msc_device.c.obj
 .comment       0x00000000       0x4e CMakeFiles/FreeRTOS_Blink.dir/E_/Pi_Pico/pico-sdk/lib/tinyusb/src/class/msc/msc_device.c.obj
 .ARM.attributes
                0x00000000       0x32 CMakeFiles/FreeRTOS_Blink.dir/E_/Pi_Pico/pico-sdk/lib/tinyusb/src/class/msc/msc_device.c.obj
 .text          0x00000000        0x0 CMakeFiles/FreeRTOS_Blink.dir/E_/Pi_Pico/pico-sdk/lib/tinyusb/src/class/net/net_device.c.obj
 .data          0x00000000        0x0 CMakeFiles/FreeRTOS_Blink.dir/E_/Pi_Pico/pico-sdk/lib/tinyusb/src/class/net/net_device.c.obj
 .bss           0x00000000        0x0 CMakeFiles/FreeRTOS_Blink.dir/E_/Pi_Pico/pico-sdk/lib/tinyusb/src/class/net/net_device.c.obj
 .debug_line    0x00000000        0x0 CMakeFiles/FreeRTOS_Blink.dir/E_/Pi_Pico/pico-sdk/lib/tinyusb/src/class/net/net_device.c.obj
 .debug_str     0x00000000       0xf3 CMakeFiles/FreeRTOS_Blink.dir/E_/Pi_Pico/pico-sdk/lib/tinyusb/src/class/net/net_device.c.obj
 .comment       0x00000000       0x4e CMakeFiles/FreeRTOS_Blink.dir/E_/Pi_Pico/pico-sdk/lib/tinyusb/src/class/net/net_device.c.obj
 .ARM.attributes
                0x00000000       0x32 CMakeFiles/FreeRTOS_Blink.dir/E_/Pi_Pico/pico-sdk/lib/tinyusb/src/class/net/net_device.c.obj
 .text          0x00000000        0x0 CMakeFiles/FreeRTOS_Blink.dir/E_/Pi_Pico/pico-sdk/lib/tinyusb/src/class/usbtmc/usbtmc_device.c.obj
 .data          0x00000000        0x0 CMakeFiles/FreeRTOS_Blink.dir/E_/Pi_Pico/pico-sdk/lib/tinyusb/src/class/usbtmc/usbtmc_device.c.obj
 .bss           0x00000000        0x0 CMakeFiles/FreeRTOS_Blink.dir/E_/Pi_Pico/pico-sdk/lib/tinyusb/src/class/usbtmc/usbtmc_device.c.obj
 .debug_line    0x00000000        0x0 CMakeFiles/FreeRTOS_Blink.dir/E_/Pi_Pico/pico-sdk/lib/tinyusb/src/class/usbtmc/usbtmc_device.c.obj
 .debug_str     0x00000000       0xf9 CMakeFiles/FreeRTOS_Blink.dir/E_/Pi_Pico/pico-sdk/lib/tinyusb/src/class/usbtmc/usbtmc_device.c.obj
 .comment       0x00000000       0x4e CMakeFiles/FreeRTOS_Blink.dir/E_/Pi_Pico/pico-sdk/lib/tinyusb/src/class/usbtmc/usbtmc_device.c.obj
 .ARM.attributes
                0x00000000       0x32 CMakeFiles/FreeRTOS_Blink.dir/E_/Pi_Pico/pico-sdk/lib/tinyusb/src/class/usbtmc/usbtmc_device.c.obj
 .text          0x00000000        0x0 CMakeFiles/FreeRTOS_Blink.dir/E_/Pi_Pico/pico-sdk/lib/tinyusb/src/class/vendor/vendor_device.c.obj
 .data          0x00000000        0x0 CMakeFiles/FreeRTOS_Blink.dir/E_/Pi_Pico/pico-sdk/lib/tinyusb/src/class/vendor/vendor_device.c.obj
 .bss           0x00000000        0x0 CMakeFiles/FreeRTOS_Blink.dir/E_/Pi_Pico/pico-sdk/lib/tinyusb/src/class/vendor/vendor_device.c.obj
 .debug_line    0x00000000        0x0 CMakeFiles/FreeRTOS_Blink.dir/E_/Pi_Pico/pico-sdk/lib/tinyusb/src/class/vendor/vendor_device.c.obj
 .debug_str     0x00000000       0xf9 CMakeFiles/FreeRTOS_Blink.dir/E_/Pi_Pico/pico-sdk/lib/tinyusb/src/class/vendor/vendor_device.c.obj
 .comment       0x00000000       0x4e CMakeFiles/FreeRTOS_Blink.dir/E_/Pi_Pico/pico-sdk/lib/tinyusb/src/class/vendor/vendor_device.c.obj
 .ARM.attributes
                0x00000000       0x32 CMakeFiles/FreeRTOS_Blink.dir/E_/Pi_Pico/pico-sdk/lib/tinyusb/src/class/vendor/vendor_device.c.obj
 .text          0x00000000        0x0 CMakeFiles/FreeRTOS_Blink.dir/E_/Pi_Pico/pico-sdk/lib/tinyusb/src/tusb.c.obj
 .data          0x00000000        0x0 CMakeFiles/FreeRTOS_Blink.dir/E_/Pi_Pico/pico-sdk/lib/tinyusb/src/tusb.c.obj
 .bss           0x00000000        0x0 CMakeFiles/FreeRTOS_Blink.dir/E_/Pi_Pico/pico-sdk/lib/tinyusb/src/tusb.c.obj
 .rodata.dump_str_line.str1.4
                0x00000000        0x7 CMakeFiles/FreeRTOS_Blink.dir/E_/Pi_Pico/pico-sdk/lib/tinyusb/src/tusb.c.obj
 .text.dump_str_line
                0x00000000       0x40 CMakeFiles/FreeRTOS_Blink.dir/E_/Pi_Pico/pico-sdk/lib/tinyusb/src/tusb.c.obj
 .rodata.tu_print_mem.str1.4
                0x00000000       0x15 CMakeFiles/FreeRTOS_Blink.dir/E_/Pi_Pico/pico-sdk/lib/tinyusb/src/tusb.c.obj
 .text.tu_print_mem
                0x00000000       0xe0 CMakeFiles/FreeRTOS_Blink.dir/E_/Pi_Pico/pico-sdk/lib/tinyusb/src/tusb.c.obj
 .rodata.str1.4
                0x00000000      0x132 CMakeFiles/FreeRTOS_Blink.dir/E_/Pi_Pico/pico-sdk/lib/tinyusb/src/tusb.c.obj
 .rodata.tusb_strerr
                0x00000000       0x2c CMakeFiles/FreeRTOS_Blink.dir/E_/Pi_Pico/pico-sdk/lib/tinyusb/src/tusb.c.obj
 .text          0x00000000        0x0 CMakeFiles/FreeRTOS_Blink.dir/E_/Pi_Pico/pico-sdk/lib/tinyusb/src/common/tusb_fifo.c.obj
 .data          0x00000000        0x0 CMakeFiles/FreeRTOS_Blink.dir/E_/Pi_Pico/pico-sdk/lib/tinyusb/src/common/tusb_fifo.c.obj
 .bss           0x00000000        0x0 CMakeFiles/FreeRTOS_Blink.dir/E_/Pi_Pico/pico-sdk/lib/tinyusb/src/common/tusb_fifo.c.obj
 .text.tu_fifo_empty
                0x00000000       0x10 CMakeFiles/FreeRTOS_Blink.dir/E_/Pi_Pico/pico-sdk/lib/tinyusb/src/common/tusb_fifo.c.obj
 .text.tu_fifo_full
                0x00000000       0x24 CMakeFiles/FreeRTOS_Blink.dir/E_/Pi_Pico/pico-sdk/lib/tinyusb/src/common/tusb_fifo.c.obj
 .text.tu_fifo_overflowed
                0x00000000       0x22 CMakeFiles/FreeRTOS_Blink.dir/E_/Pi_Pico/pico-sdk/lib/tinyusb/src/common/tusb_fifo.c.obj
 .text.tu_fifo_correct_read_pointer
                0x00000000       0x1e CMakeFiles/FreeRTOS_Blink.dir/E_/Pi_Pico/pico-sdk/lib/tinyusb/src/common/tusb_fifo.c.obj
 .text.tu_fifo_peek_at
                0x00000000       0x2e CMakeFiles/FreeRTOS_Blink.dir/E_/Pi_Pico/pico-sdk/lib/tinyusb/src/common/tusb_fifo.c.obj
 .text.tu_fifo_peek_at_n
                0x00000000       0x36 CMakeFiles/FreeRTOS_Blink.dir/E_/Pi_Pico/pico-sdk/lib/tinyusb/src/common/tusb_fifo.c.obj
 .text.tu_fifo_advance_write_pointer
                0x00000000       0x12 CMakeFiles/FreeRTOS_Blink.dir/E_/Pi_Pico/pico-sdk/lib/tinyusb/src/common/tusb_fifo.c.obj
 .text.tu_fifo_advance_read_pointer
                0x00000000       0x12 CMakeFiles/FreeRTOS_Blink.dir/E_/Pi_Pico/pico-sdk/lib/tinyusb/src/common/tusb_fifo.c.obj
 .text          0x00000000        0x0 CMakeFiles/FreeRTOS_Blink.dir/E_/Pi_Pico/pico-sdk/src/rp2_common/pico_fix/rp2040_usb_device_enumeration/rp2040_usb_device_enumeration.c.obj
 .data          0x00000000        0x0 CMakeFiles/FreeRTOS_Blink.dir/E_/Pi_Pico/pico-sdk/src/rp2_common/pico_fix/rp2040_usb_device_enumeration/rp2040_usb_device_enumeration.c.obj
 .bss           0x00000000        0x0 CMakeFiles/FreeRTOS_Blink.dir/E_/Pi_Pico/pico-sdk/src/rp2_common/pico_fix/rp2040_usb_device_enumeration/rp2040_usb_device_enumeration.c.obj
 .text.hw_enumeration_fix_finish
                0x00000000       0x20 CMakeFiles/FreeRTOS_Blink.dir/E_/Pi_Pico/pico-sdk/src/rp2_common/pico_fix/rp2040_usb_device_enumeration/rp2040_usb_device_enumeration.c.obj
 .text.hw_enumeration_fix_force_ls_j_done
                0x00000000        0xc CMakeFiles/FreeRTOS_Blink.dir/E_/Pi_Pico/pico-sdk/src/rp2_common/pico_fix/rp2040_usb_device_enumeration/rp2040_usb_device_enumeration.c.obj
 .rodata.hw_enumeration_fix_force_ls_j.str1.4
                0x00000000       0x82 CMakeFiles/FreeRTOS_Blink.dir/E_/Pi_Pico/pico-sdk/src/rp2_common/pico_fix/rp2040_usb_device_enumeration/rp2040_usb_device_enumeration.c.obj
 .text.hw_enumeration_fix_force_ls_j
                0x00000000       0xac CMakeFiles/FreeRTOS_Blink.dir/E_/Pi_Pico/pico-sdk/src/rp2_common/pico_fix/rp2040_usb_device_enumeration/rp2040_usb_device_enumeration.c.obj
 .text.hw_enumeration_fix_wait_se0_callback
                0x00000000       0x24 CMakeFiles/FreeRTOS_Blink.dir/E_/Pi_Pico/pico-sdk/src/rp2_common/pico_fix/rp2040_usb_device_enumeration/rp2040_usb_device_enumeration.c.obj
 .text.hw_enumeration_fix_wait_se0
                0x00000000       0x60 CMakeFiles/FreeRTOS_Blink.dir/E_/Pi_Pico/pico-sdk/src/rp2_common/pico_fix/rp2040_usb_device_enumeration/rp2040_usb_device_enumeration.c.obj
 .text.rp2040_usb_device_enumeration_fix
                0x00000000        0x8 CMakeFiles/FreeRTOS_Blink.dir/E_/Pi_Pico/pico-sdk/src/rp2_common/pico_fix/rp2040_usb_device_enumeration/rp2040_usb_device_enumeration.c.obj
 .rodata.__func__.0
                0x00000000       0x1e CMakeFiles/FreeRTOS_Blink.dir/E_/Pi_Pico/pico-sdk/src/rp2_common/pico_fix/rp2040_usb_device_enumeration/rp2040_usb_device_enumeration.c.obj
 .debug_info    0x00000000      0xa86 CMakeFiles/FreeRTOS_Blink.dir/E_/Pi_Pico/pico-sdk/src/rp2_common/pico_fix/rp2040_usb_device_enumeration/rp2040_usb_device_enumeration.c.obj
 .debug_abbrev  0x00000000      0x359 CMakeFiles/FreeRTOS_Blink.dir/E_/Pi_Pico/pico-sdk/src/rp2_common/pico_fix/rp2040_usb_device_enumeration/rp2040_usb_device_enumeration.c.obj
 .debug_loc     0x00000000      0x34a CMakeFiles/FreeRTOS_Blink.dir/E_/Pi_Pico/pico-sdk/src/rp2_common/pico_fix/rp2040_usb_device_enumeration/rp2040_usb_device_enumeration.c.obj
 .debug_aranges
                0x00000000       0x48 CMakeFiles/FreeRTOS_Blink.dir/E_/Pi_Pico/pico-sdk/src/rp2_common/pico_fix/rp2040_usb_device_enumeration/rp2040_usb_device_enumeration.c.obj
 .debug_ranges  0x00000000       0x38 CMakeFiles/FreeRTOS_Blink.dir/E_/Pi_Pico/pico-sdk/src/rp2_common/pico_fix/rp2040_usb_device_enumeration/rp2040_usb_device_enumeration.c.obj
 .debug_line    0x00000000      0x5c7 CMakeFiles/FreeRTOS_Blink.dir/E_/Pi_Pico/pico-sdk/src/rp2_common/pico_fix/rp2040_usb_device_enumeration/rp2040_usb_device_enumeration.c.obj
 .debug_str     0x00000000      0x642 CMakeFiles/FreeRTOS_Blink.dir/E_/Pi_Pico/pico-sdk/src/rp2_common/pico_fix/rp2040_usb_device_enumeration/rp2040_usb_device_enumeration.c.obj
 .comment       0x00000000       0x4e CMakeFiles/FreeRTOS_Blink.dir/E_/Pi_Pico/pico-sdk/src/rp2_common/pico_fix/rp2040_usb_device_enumeration/rp2040_usb_device_enumeration.c.obj
 .debug_frame   0x00000000       0xa8 CMakeFiles/FreeRTOS_Blink.dir/E_/Pi_Pico/pico-sdk/src/rp2_common/pico_fix/rp2040_usb_device_enumeration/rp2040_usb_device_enumeration.c.obj
 .ARM.attributes
                0x00000000       0x2b CMakeFiles/FreeRTOS_Blink.dir/E_/Pi_Pico/pico-sdk/src/rp2_common/pico_fix/rp2040_usb_device_enumeration/rp2040_usb_device_enumeration.c.obj
 .data          0x00000000        0x0 libFreeRTOS.a(timers.c.obj)
 .bss           0x00000000        0x0 libFreeRTOS.a(port.c.obj)
 .data          0x00000000        0x0 libFreeRTOS.a(heap_4.c.obj)
 .data          0x00000000        0x0 libFreeRTOS.a(list.c.obj)
 .bss           0x00000000        0x0 libFreeRTOS.a(list.c.obj)
 .data          0x00000000        0x0 libFreeRTOS.a(queue.c.obj)
 .text          0x00000000        0x0 C:\Users\Venki\AppData\Local\Temp\ccmvFWll.o
 .data          0x00000000        0x0 C:\Users\Venki\AppData\Local\Temp\ccmvFWll.o
 .bss           0x00000000        0x0 C:\Users\Venki\AppData\Local\Temp\ccmvFWll.o
 .data          0x00000000        0x0 c:/progra~2/gnuarm~1/102020~1/bin/../lib/gcc/arm-none-eabi/10.2.1/thumb/v6-m/nofp\libgcc.a(_dvmd_tls.o)
 .bss           0x00000000        0x0 c:/progra~2/gnuarm~1/102020~1/bin/../lib/gcc/arm-none-eabi/10.2.1/thumb/v6-m/nofp\libgcc.a(_dvmd_tls.o)
 .text          0x00000000        0x0 c:/progra~2/gnuarm~1/102020~1/bin/../lib/gcc/arm-none-eabi/10.2.1/../../../../arm-none-eabi/lib/thumb/v6-m/nofp\libg.a(lib_a-calloc.o)
 .data          0x00000000        0x0 c:/progra~2/gnuarm~1/102020~1/bin/../lib/gcc/arm-none-eabi/10.2.1/../../../../arm-none-eabi/lib/thumb/v6-m/nofp\libg.a(lib_a-calloc.o)
 .bss           0x00000000        0x0 c:/progra~2/gnuarm~1/102020~1/bin/../lib/gcc/arm-none-eabi/10.2.1/../../../../arm-none-eabi/lib/thumb/v6-m/nofp\libg.a(lib_a-calloc.o)
 .text          0x00000000        0x0 c:/progra~2/gnuarm~1/102020~1/bin/../lib/gcc/arm-none-eabi/10.2.1/../../../../arm-none-eabi/lib/thumb/v6-m/nofp\libg.a(lib_a-callocr.o)
 .data          0x00000000        0x0 c:/progra~2/gnuarm~1/102020~1/bin/../lib/gcc/arm-none-eabi/10.2.1/../../../../arm-none-eabi/lib/thumb/v6-m/nofp\libg.a(lib_a-callocr.o)
 .bss           0x00000000        0x0 c:/progra~2/gnuarm~1/102020~1/bin/../lib/gcc/arm-none-eabi/10.2.1/../../../../arm-none-eabi/lib/thumb/v6-m/nofp\libg.a(lib_a-callocr.o)
 .text          0x00000000        0x0 c:/progra~2/gnuarm~1/102020~1/bin/../lib/gcc/arm-none-eabi/10.2.1/../../../../arm-none-eabi/lib/thumb/v6-m/nofp\libg.a(lib_a-ctype_.o)
 .data          0x00000000        0x0 c:/progra~2/gnuarm~1/102020~1/bin/../lib/gcc/arm-none-eabi/10.2.1/../../../../arm-none-eabi/lib/thumb/v6-m/nofp\libg.a(lib_a-ctype_.o)
 .bss           0x00000000        0x0 c:/progra~2/gnuarm~1/102020~1/bin/../lib/gcc/arm-none-eabi/10.2.1/../../../../arm-none-eabi/lib/thumb/v6-m/nofp\libg.a(lib_a-ctype_.o)
 .rodata._ctype_
                0x00000000      0x101 c:/progra~2/gnuarm~1/102020~1/bin/../lib/gcc/arm-none-eabi/10.2.1/../../../../arm-none-eabi/lib/thumb/v6-m/nofp\libg.a(lib_a-ctype_.o)
 .ARM.attributes
                0x00000000       0x2c c:/progra~2/gnuarm~1/102020~1/bin/../lib/gcc/arm-none-eabi/10.2.1/../../../../arm-none-eabi/lib/thumb/v6-m/nofp\libg.a(lib_a-ctype_.o)
 .text          0x00000000        0x0 c:/progra~2/gnuarm~1/102020~1/bin/../lib/gcc/arm-none-eabi/10.2.1/../../../../arm-none-eabi/lib/thumb/v6-m/nofp\libg.a(lib_a-impure.o)
 .data          0x00000000        0x0 c:/progra~2/gnuarm~1/102020~1/bin/../lib/gcc/arm-none-eabi/10.2.1/../../../../arm-none-eabi/lib/thumb/v6-m/nofp\libg.a(lib_a-impure.o)
 .bss           0x00000000        0x0 c:/progra~2/gnuarm~1/102020~1/bin/../lib/gcc/arm-none-eabi/10.2.1/../../../../arm-none-eabi/lib/thumb/v6-m/nofp\libg.a(lib_a-impure.o)
 .rodata._global_impure_ptr
                0x00000000        0x4 c:/progra~2/gnuarm~1/102020~1/bin/../lib/gcc/arm-none-eabi/10.2.1/../../../../arm-none-eabi/lib/thumb/v6-m/nofp\libg.a(lib_a-impure.o)
 .text          0x00000000        0x0 c:/progra~2/gnuarm~1/102020~1/bin/../lib/gcc/arm-none-eabi/10.2.1/../../../../arm-none-eabi/lib/thumb/v6-m/nofp\libg.a(lib_a-init.o)
 .data          0x00000000        0x0 c:/progra~2/gnuarm~1/102020~1/bin/../lib/gcc/arm-none-eabi/10.2.1/../../../../arm-none-eabi/lib/thumb/v6-m/nofp\libg.a(lib_a-init.o)
 .bss           0x00000000        0x0 c:/progra~2/gnuarm~1/102020~1/bin/../lib/gcc/arm-none-eabi/10.2.1/../../../../arm-none-eabi/lib/thumb/v6-m/nofp\libg.a(lib_a-init.o)
 .text.__libc_init_array
                0x00000000       0x44 c:/progra~2/gnuarm~1/102020~1/bin/../lib/gcc/arm-none-eabi/10.2.1/../../../../arm-none-eabi/lib/thumb/v6-m/nofp\libg.a(lib_a-init.o)
 .debug_frame   0x00000000       0x2c c:/progra~2/gnuarm~1/102020~1/bin/../lib/gcc/arm-none-eabi/10.2.1/../../../../arm-none-eabi/lib/thumb/v6-m/nofp\libg.a(lib_a-init.o)
 .ARM.attributes
                0x00000000       0x2c c:/progra~2/gnuarm~1/102020~1/bin/../lib/gcc/arm-none-eabi/10.2.1/../../../../arm-none-eabi/lib/thumb/v6-m/nofp\libg.a(lib_a-init.o)
 .text          0x00000000        0x0 c:/progra~2/gnuarm~1/102020~1/bin/../lib/gcc/arm-none-eabi/10.2.1/../../../../arm-none-eabi/lib/thumb/v6-m/nofp\libg.a(lib_a-malloc.o)
 .data          0x00000000        0x0 c:/progra~2/gnuarm~1/102020~1/bin/../lib/gcc/arm-none-eabi/10.2.1/../../../../arm-none-eabi/lib/thumb/v6-m/nofp\libg.a(lib_a-malloc.o)
 .bss           0x00000000        0x0 c:/progra~2/gnuarm~1/102020~1/bin/../lib/gcc/arm-none-eabi/10.2.1/../../../../arm-none-eabi/lib/thumb/v6-m/nofp\libg.a(lib_a-malloc.o)
 .text.free     0x00000000       0x14 c:/progra~2/gnuarm~1/102020~1/bin/../lib/gcc/arm-none-eabi/10.2.1/../../../../arm-none-eabi/lib/thumb/v6-m/nofp\libg.a(lib_a-malloc.o)
 .text          0x00000000        0x0 c:/progra~2/gnuarm~1/102020~1/bin/../lib/gcc/arm-none-eabi/10.2.1/../../../../arm-none-eabi/lib/thumb/v6-m/nofp\libg.a(lib_a-mallocr.o)
 .data          0x00000000        0x0 c:/progra~2/gnuarm~1/102020~1/bin/../lib/gcc/arm-none-eabi/10.2.1/../../../../arm-none-eabi/lib/thumb/v6-m/nofp\libg.a(lib_a-mallocr.o)
 .bss           0x00000000        0x0 c:/progra~2/gnuarm~1/102020~1/bin/../lib/gcc/arm-none-eabi/10.2.1/../../../../arm-none-eabi/lib/thumb/v6-m/nofp\libg.a(lib_a-mallocr.o)
 .text          0x00000000        0x0 c:/progra~2/gnuarm~1/102020~1/bin/../lib/gcc/arm-none-eabi/10.2.1/../../../../arm-none-eabi/lib/thumb/v6-m/nofp\libg.a(lib_a-mlock.o)
 .data          0x00000000        0x0 c:/progra~2/gnuarm~1/102020~1/bin/../lib/gcc/arm-none-eabi/10.2.1/../../../../arm-none-eabi/lib/thumb/v6-m/nofp\libg.a(lib_a-mlock.o)
 .bss           0x00000000        0x0 c:/progra~2/gnuarm~1/102020~1/bin/../lib/gcc/arm-none-eabi/10.2.1/../../../../arm-none-eabi/lib/thumb/v6-m/nofp\libg.a(lib_a-mlock.o)
 .text          0x00000000        0x0 c:/progra~2/gnuarm~1/102020~1/bin/../lib/gcc/arm-none-eabi/10.2.1/../../../../arm-none-eabi/lib/thumb/v6-m/nofp\libg.a(lib_a-sbrkr.o)
 .data          0x00000000        0x0 c:/progra~2/gnuarm~1/102020~1/bin/../lib/gcc/arm-none-eabi/10.2.1/../../../../arm-none-eabi/lib/thumb/v6-m/nofp\libg.a(lib_a-sbrkr.o)
 .bss           0x00000000        0x0 c:/progra~2/gnuarm~1/102020~1/bin/../lib/gcc/arm-none-eabi/10.2.1/../../../../arm-none-eabi/lib/thumb/v6-m/nofp\libg.a(lib_a-sbrkr.o)
 .text          0x00000000        0x0 c:/progra~2/gnuarm~1/102020~1/bin/../lib/gcc/arm-none-eabi/10.2.1/../../../../arm-none-eabi/lib/thumb/v6-m/nofp\libg.a(lib_a-strlen-stub.o)
 .data          0x00000000        0x0 c:/progra~2/gnuarm~1/102020~1/bin/../lib/gcc/arm-none-eabi/10.2.1/../../../../arm-none-eabi/lib/thumb/v6-m/nofp\libg.a(lib_a-strlen-stub.o)
 .bss           0x00000000        0x0 c:/progra~2/gnuarm~1/102020~1/bin/../lib/gcc/arm-none-eabi/10.2.1/../../../../arm-none-eabi/lib/thumb/v6-m/nofp\libg.a(lib_a-strlen-stub.o)
 .text          0x00000000        0x0 c:/progra~2/gnuarm~1/102020~1/bin/../lib/gcc/arm-none-eabi/10.2.1/../../../../arm-none-eabi/lib/thumb/v6-m/nofp\libg.a(lib_a-freer.o)
 .data          0x00000000        0x0 c:/progra~2/gnuarm~1/102020~1/bin/../lib/gcc/arm-none-eabi/10.2.1/../../../../arm-none-eabi/lib/thumb/v6-m/nofp\libg.a(lib_a-freer.o)
 .bss           0x00000000        0x0 c:/progra~2/gnuarm~1/102020~1/bin/../lib/gcc/arm-none-eabi/10.2.1/../../../../arm-none-eabi/lib/thumb/v6-m/nofp\libg.a(lib_a-freer.o)
 .text          0x00000000        0x0 c:/progra~2/gnuarm~1/102020~1/bin/../lib/gcc/arm-none-eabi/10.2.1/../../../../arm-none-eabi/lib/thumb/v6-m/nofp\libg.a(lib_a-lock.o)
 .data          0x00000000        0x0 c:/progra~2/gnuarm~1/102020~1/bin/../lib/gcc/arm-none-eabi/10.2.1/../../../../arm-none-eabi/lib/thumb/v6-m/nofp\libg.a(lib_a-lock.o)
 .bss           0x00000000        0x0 c:/progra~2/gnuarm~1/102020~1/bin/../lib/gcc/arm-none-eabi/10.2.1/../../../../arm-none-eabi/lib/thumb/v6-m/nofp\libg.a(lib_a-lock.o)
 .text.__retarget_lock_init
                0x00000000        0x4 c:/progra~2/gnuarm~1/102020~1/bin/../lib/gcc/arm-none-eabi/10.2.1/../../../../arm-none-eabi/lib/thumb/v6-m/nofp\libg.a(lib_a-lock.o)
 .text.__retarget_lock_init_recursive
                0x00000000        0x4 c:/progra~2/gnuarm~1/102020~1/bin/../lib/gcc/arm-none-eabi/10.2.1/../../../../arm-none-eabi/lib/thumb/v6-m/nofp\libg.a(lib_a-lock.o)
 .text.__retarget_lock_close
                0x00000000        0x4 c:/progra~2/gnuarm~1/102020~1/bin/../lib/gcc/arm-none-eabi/10.2.1/../../../../arm-none-eabi/lib/thumb/v6-m/nofp\libg.a(lib_a-lock.o)
 .text.__retarget_lock_close_recursive
                0x00000000        0x4 c:/progra~2/gnuarm~1/102020~1/bin/../lib/gcc/arm-none-eabi/10.2.1/../../../../arm-none-eabi/lib/thumb/v6-m/nofp\libg.a(lib_a-lock.o)
 .text.__retarget_lock_acquire
                0x00000000        0x4 c:/progra~2/gnuarm~1/102020~1/bin/../lib/gcc/arm-none-eabi/10.2.1/../../../../arm-none-eabi/lib/thumb/v6-m/nofp\libg.a(lib_a-lock.o)
 .text.__retarget_lock_try_acquire
                0x00000000        0x4 c:/progra~2/gnuarm~1/102020~1/bin/../lib/gcc/arm-none-eabi/10.2.1/../../../../arm-none-eabi/lib/thumb/v6-m/nofp\libg.a(lib_a-lock.o)
 .text.__retarget_lock_try_acquire_recursive
                0x00000000        0x4 c:/progra~2/gnuarm~1/102020~1/bin/../lib/gcc/arm-none-eabi/10.2.1/../../../../arm-none-eabi/lib/thumb/v6-m/nofp\libg.a(lib_a-lock.o)
 .text.__retarget_lock_release
                0x00000000        0x4 c:/progra~2/gnuarm~1/102020~1/bin/../lib/gcc/arm-none-eabi/10.2.1/../../../../arm-none-eabi/lib/thumb/v6-m/nofp\libg.a(lib_a-lock.o)
 .bss.__lock___arc4random_mutex
                0x00000000        0x1 c:/progra~2/gnuarm~1/102020~1/bin/../lib/gcc/arm-none-eabi/10.2.1/../../../../arm-none-eabi/lib/thumb/v6-m/nofp\libg.a(lib_a-lock.o)
 .bss.__lock___at_quick_exit_mutex
                0x00000000        0x1 c:/progra~2/gnuarm~1/102020~1/bin/../lib/gcc/arm-none-eabi/10.2.1/../../../../arm-none-eabi/lib/thumb/v6-m/nofp\libg.a(lib_a-lock.o)
 .bss.__lock___atexit_recursive_mutex
                0x00000000        0x1 c:/progra~2/gnuarm~1/102020~1/bin/../lib/gcc/arm-none-eabi/10.2.1/../../../../arm-none-eabi/lib/thumb/v6-m/nofp\libg.a(lib_a-lock.o)
 .bss.__lock___dd_hash_mutex
                0x00000000        0x1 c:/progra~2/gnuarm~1/102020~1/bin/../lib/gcc/arm-none-eabi/10.2.1/../../../../arm-none-eabi/lib/thumb/v6-m/nofp\libg.a(lib_a-lock.o)
 .bss.__lock___env_recursive_mutex
                0x00000000        0x1 c:/progra~2/gnuarm~1/102020~1/bin/../lib/gcc/arm-none-eabi/10.2.1/../../../../arm-none-eabi/lib/thumb/v6-m/nofp\libg.a(lib_a-lock.o)
 .bss.__lock___sfp_recursive_mutex
                0x00000000        0x1 c:/progra~2/gnuarm~1/102020~1/bin/../lib/gcc/arm-none-eabi/10.2.1/../../../../arm-none-eabi/lib/thumb/v6-m/nofp\libg.a(lib_a-lock.o)
 .bss.__lock___sinit_recursive_mutex
                0x00000000        0x1 c:/progra~2/gnuarm~1/102020~1/bin/../lib/gcc/arm-none-eabi/10.2.1/../../../../arm-none-eabi/lib/thumb/v6-m/nofp\libg.a(lib_a-lock.o)
 .bss.__lock___tz_mutex
                0x00000000        0x1 c:/progra~2/gnuarm~1/102020~1/bin/../lib/gcc/arm-none-eabi/10.2.1/../../../../arm-none-eabi/lib/thumb/v6-m/nofp\libg.a(lib_a-lock.o)
 .text          0x00000000        0x0 c:/progra~2/gnuarm~1/102020~1/bin/../lib/gcc/arm-none-eabi/10.2.1/../../../../arm-none-eabi/lib/thumb/v6-m/nofp\libg.a(lib_a-reent.o)
 .data          0x00000000        0x0 c:/progra~2/gnuarm~1/102020~1/bin/../lib/gcc/arm-none-eabi/10.2.1/../../../../arm-none-eabi/lib/thumb/v6-m/nofp\libg.a(lib_a-reent.o)
 .bss           0x00000000        0x0 c:/progra~2/gnuarm~1/102020~1/bin/../lib/gcc/arm-none-eabi/10.2.1/../../../../arm-none-eabi/lib/thumb/v6-m/nofp\libg.a(lib_a-reent.o)
 .text.cleanup_glue
                0x00000000       0x50 c:/progra~2/gnuarm~1/102020~1/bin/../lib/gcc/arm-none-eabi/10.2.1/../../../../arm-none-eabi/lib/thumb/v6-m/nofp\libg.a(lib_a-reent.o)
 .text._reclaim_reent
                0x00000000       0xa0 c:/progra~2/gnuarm~1/102020~1/bin/../lib/gcc/arm-none-eabi/10.2.1/../../../../arm-none-eabi/lib/thumb/v6-m/nofp\libg.a(lib_a-reent.o)
 .text          0x00000000        0x0 c:/progra~2/gnuarm~1/102020~1/bin/../lib/gcc/arm-none-eabi/10.2.1/thumb/v6-m/nofp/crtend.o
 .data          0x00000000        0x0 c:/progra~2/gnuarm~1/102020~1/bin/../lib/gcc/arm-none-eabi/10.2.1/thumb/v6-m/nofp/crtend.o
 .bss           0x00000000        0x0 c:/progra~2/gnuarm~1/102020~1/bin/../lib/gcc/arm-none-eabi/10.2.1/thumb/v6-m/nofp/crtend.o
 .rodata        0x00000000       0x24 c:/progra~2/gnuarm~1/102020~1/bin/../lib/gcc/arm-none-eabi/10.2.1/thumb/v6-m/nofp/crtend.o
 .eh_frame      0x00000000        0x4 c:/progra~2/gnuarm~1/102020~1/bin/../lib/gcc/arm-none-eabi/10.2.1/thumb/v6-m/nofp/crtend.o
 .ARM.attributes
                0x00000000       0x2c c:/progra~2/gnuarm~1/102020~1/bin/../lib/gcc/arm-none-eabi/10.2.1/thumb/v6-m/nofp/crtend.o
 .text          0x00000000        0x0 c:/progra~2/gnuarm~1/102020~1/bin/../lib/gcc/arm-none-eabi/10.2.1/thumb/v6-m/nofp/crtn.o
 .data          0x00000000        0x0 c:/progra~2/gnuarm~1/102020~1/bin/../lib/gcc/arm-none-eabi/10.2.1/thumb/v6-m/nofp/crtn.o
 .bss           0x00000000        0x0 c:/progra~2/gnuarm~1/102020~1/bin/../lib/gcc/arm-none-eabi/10.2.1/thumb/v6-m/nofp/crtn.o
 .init          0x00000000        0x8 c:/progra~2/gnuarm~1/102020~1/bin/../lib/gcc/arm-none-eabi/10.2.1/thumb/v6-m/nofp/crtn.o
 .fini          0x00000000        0x8 c:/progra~2/gnuarm~1/102020~1/bin/../lib/gcc/arm-none-eabi/10.2.1/thumb/v6-m/nofp/crtn.o
 .ARM.attributes
                0x00000000       0x1e c:/progra~2/gnuarm~1/102020~1/bin/../lib/gcc/arm-none-eabi/10.2.1/thumb/v6-m/nofp/crtn.o

Memory Configuration

Name             Origin             Length             Attributes
FLASH            0x10000000         0x00200000         xr
RAM              0x20000000         0x00040000         xrw
SCRATCH_X        0x20040000         0x00001000         xrw
SCRATCH_Y        0x20041000         0x00001000         xrw
*default*        0x00000000         0xffffffff

Linker script and memory map

LOAD c:/progra~2/gnuarm~1/102020~1/bin/../lib/gcc/arm-none-eabi/10.2.1/thumb/v6-m/nofp/crti.o
LOAD c:/progra~2/gnuarm~1/102020~1/bin/../lib/gcc/arm-none-eabi/10.2.1/thumb/v6-m/nofp/crtbegin.o
LOAD c:/progra~2/gnuarm~1/102020~1/bin/../lib/gcc/arm-none-eabi/10.2.1/../../../../arm-none-eabi/lib/thumb/v6-m/nofp/crt0.o

.flash_begin    0x10000000        0x0
                0x10000000                __flash_binary_start = .

.boot2          0x10000000      0x100
                0x10000000                __boot2_start__ = .
 *(.boot2)
 .boot2         0x10000000      0x100 C:\Users\Venki\AppData\Local\Temp\ccmvFWll.o
                0x10000100                __boot2_end__ = .
                0x00000001                ASSERT (((__boot2_end__ - __boot2_start__) == 0x100), ERROR: Pico second stage bootloader must be 256 bytes in size)

.text           0x10000100     0x9030
                0x10000100                __logical_binary_start = .
 *(.vectors)
 .vectors       0x10000100       0xd4 CMakeFiles/FreeRTOS_Blink.dir/E_/Pi_Pico/pico-sdk/src/rp2_common/pico_standard_link/crt0.S.obj
                0x10000100                __vectors
                0x100001c0                isr_invalid
                0x100001c2                isr_nmi
                0x100001c4                isr_hardfault
                0x100001cc                isr_irq5
                0x100001cc                isr_irq11
                0x100001cc                isr_irq31
                0x100001cc                isr_irq27
                0x100001cc                __unhandled_user_irq
                0x100001cc                isr_irq18
                0x100001cc                isr_irq13
                0x100001cc                isr_irq28
                0x100001cc                isr_irq19
                0x100001cc                isr_irq0
                0x100001cc                isr_irq6
                0x100001cc                isr_irq23
                0x100001cc                isr_irq12
                0x100001cc                isr_irq22
                0x100001cc                isr_irq30
                0x100001cc                isr_irq17
                0x100001cc                isr_irq14
                0x100001cc                isr_irq2
                0x100001cc                isr_irq10
                0x100001cc                isr_irq8
                0x100001cc                isr_irq24
                0x100001cc                isr_irq1
                0x100001cc                isr_irq7
                0x100001cc                isr_irq21
                0x100001cc                isr_irq20
                0x100001cc                isr_irq15
                0x100001cc                isr_irq25
                0x100001cc                isr_irq4
                0x100001cc                isr_irq16
                0x100001cc                isr_irq29
                0x100001cc                isr_irq26
                0x100001cc                isr_irq3
                0x100001cc                isr_irq9
                0x100001d2                unhandled_user_irq_num_in_r0
 *(.binary_info_header)
 .binary_info_header
                0x100001d4       0x14 CMakeFiles/FreeRTOS_Blink.dir/E_/Pi_Pico/pico-sdk/src/rp2_common/pico_standard_link/crt0.S.obj
                0x100001e8                __binary_info_header_end = .
 *(.reset)
 .reset         0x100001e8       0xa8 CMakeFiles/FreeRTOS_Blink.dir/E_/Pi_Pico/pico-sdk/src/rp2_common/pico_standard_link/crt0.S.obj
                0x100001e8                _entry_point
                0x10000266                __get_current_exception
 .reset         0x10000290       0x30 CMakeFiles/FreeRTOS_Blink.dir/E_/Pi_Pico/pico-sdk/src/rp2_common/pico_standard_link/binary_info.c.obj
 *(.init)
 .init          0x100002c0        0x4 c:/progra~2/gnuarm~1/102020~1/bin/../lib/gcc/arm-none-eabi/10.2.1/thumb/v6-m/nofp/crti.o
                0x100002c0                _init
 *(EXCLUDE_FILE(*libm.a: *libc.a:*lib_a-mem*.o *libgcc.a:) .text*)
 .text          0x100002c4       0x48 c:/progra~2/gnuarm~1/102020~1/bin/../lib/gcc/arm-none-eabi/10.2.1/thumb/v6-m/nofp/crtbegin.o
 .text.vRedLEDTask
                0x1000030c       0x20 CMakeFiles/FreeRTOS_Blink.dir/src/main.c.obj
                0x1000030c                vRedLEDTask
 .text.vYellowLEDTask
                0x1000032c       0x20 CMakeFiles/FreeRTOS_Blink.dir/src/main.c.obj
                0x1000032c                vYellowLEDTask
 .text.main     0x1000034c       0x6c CMakeFiles/FreeRTOS_Blink.dir/src/main.c.obj
                0x1000034c                main
 .text.gpio_set_function
                0x100003b8       0x30 CMakeFiles/FreeRTOS_Blink.dir/E_/Pi_Pico/pico-sdk/src/rp2_common/hardware_gpio/gpio.c.obj
                0x100003b8                gpio_set_function
 .text.gpio_init
                0x100003e8       0x16 CMakeFiles/FreeRTOS_Blink.dir/E_/Pi_Pico/pico-sdk/src/rp2_common/hardware_gpio/gpio.c.obj
                0x100003e8                gpio_init
 *fill*         0x100003fe        0x2 
 .text.hw_claim_lock
                0x10000400       0x18 CMakeFiles/FreeRTOS_Blink.dir/E_/Pi_Pico/pico-sdk/src/rp2_common/hardware_claim/claim.c.obj
                0x10000400                hw_claim_lock
 .text.hw_claim_unlock
                0x10000418       0x14 CMakeFiles/FreeRTOS_Blink.dir/E_/Pi_Pico/pico-sdk/src/rp2_common/hardware_claim/claim.c.obj
                0x10000418                hw_claim_unlock
 .text.hw_claim_or_assert
                0x1000042c       0x34 CMakeFiles/FreeRTOS_Blink.dir/E_/Pi_Pico/pico-sdk/src/rp2_common/hardware_claim/claim.c.obj
                0x1000042c                hw_claim_or_assert
 .text.hw_claim_unused_from_range
                0x10000460       0x56 CMakeFiles/FreeRTOS_Blink.dir/E_/Pi_Pico/pico-sdk/src/rp2_common/hardware_claim/claim.c.obj
                0x10000460                hw_claim_unused_from_range
 *fill*         0x100004b6        0x2 
 .text.spin_locks_reset
                0x100004b8       0x20 CMakeFiles/FreeRTOS_Blink.dir/E_/Pi_Pico/pico-sdk/src/rp2_common/hardware_sync/sync.c.obj
                0x100004b8                spin_locks_reset
 .text.next_striped_spin_lock_num
                0x100004d8       0x1c CMakeFiles/FreeRTOS_Blink.dir/E_/Pi_Pico/pico-sdk/src/rp2_common/hardware_sync/sync.c.obj
                0x100004d8                next_striped_spin_lock_num
 .text.spin_lock_claim_unused
                0x100004f4       0x20 CMakeFiles/FreeRTOS_Blink.dir/E_/Pi_Pico/pico-sdk/src/rp2_common/hardware_sync/sync.c.obj
                0x100004f4                spin_lock_claim_unused
 .text.running_on_fpga
                0x10000514       0x14 CMakeFiles/FreeRTOS_Blink.dir/E_/Pi_Pico/pico-sdk/src/rp2_common/pico_platform/platform.c.obj
                0x10000514                running_on_fpga
 .text.sev_callback
                0x10000528        0x8 CMakeFiles/FreeRTOS_Blink.dir/E_/Pi_Pico/pico-sdk/src/common/pico_time/time.c.obj
 .text.timer_pool_entry_comparator
                0x10000530       0x7c CMakeFiles/FreeRTOS_Blink.dir/E_/Pi_Pico/pico-sdk/src/common/pico_time/time.c.obj
                0x10000530                timer_pool_entry_comparator
 .text.ph_add_child_node
                0x100005ac       0xa4 CMakeFiles/FreeRTOS_Blink.dir/E_/Pi_Pico/pico-sdk/src/common/pico_time/time.c.obj
 .text.ph_merge_nodes
                0x10000650       0x3e CMakeFiles/FreeRTOS_Blink.dir/E_/Pi_Pico/pico-sdk/src/common/pico_time/time.c.obj
 *fill*         0x1000068e        0x2 
 .text.add_alarm_under_lock
                0x10000690      0x178 CMakeFiles/FreeRTOS_Blink.dir/E_/Pi_Pico/pico-sdk/src/common/pico_time/time.c.obj
 .text.alarm_pool_alarm_callback
                0x10000808      0x2e4 CMakeFiles/FreeRTOS_Blink.dir/E_/Pi_Pico/pico-sdk/src/common/pico_time/time.c.obj
 .text.alarm_pool_get_default
                0x10000aec       0x28 CMakeFiles/FreeRTOS_Blink.dir/E_/Pi_Pico/pico-sdk/src/common/pico_time/time.c.obj
                0x10000aec                alarm_pool_get_default
 .text.alarm_pool_create
                0x10000b14       0x6c CMakeFiles/FreeRTOS_Blink.dir/E_/Pi_Pico/pico-sdk/src/common/pico_time/time.c.obj
                0x10000b14                alarm_pool_create
 .text.alarm_pool_init_default
                0x10000b80       0x20 CMakeFiles/FreeRTOS_Blink.dir/E_/Pi_Pico/pico-sdk/src/common/pico_time/time.c.obj
                0x10000b80                alarm_pool_init_default
 .text.alarm_pool_add_alarm_at
                0x10000ba0      0x128 CMakeFiles/FreeRTOS_Blink.dir/E_/Pi_Pico/pico-sdk/src/common/pico_time/time.c.obj
                0x10000ba0                alarm_pool_add_alarm_at
 .text.alarm_pool_cancel_alarm
                0x10000cc8       0xec CMakeFiles/FreeRTOS_Blink.dir/E_/Pi_Pico/pico-sdk/src/common/pico_time/time.c.obj
                0x10000cc8                alarm_pool_cancel_alarm
 .text.best_effort_wfe_or_timeout
                0x10000db4       0x80 CMakeFiles/FreeRTOS_Blink.dir/E_/Pi_Pico/pico-sdk/src/common/pico_time/time.c.obj
                0x10000db4                best_effort_wfe_or_timeout
 .text.hardware_alarm_irq_handler
                0x10000e34       0x8c CMakeFiles/FreeRTOS_Blink.dir/E_/Pi_Pico/pico-sdk/src/rp2_common/hardware_timer/timer.c.obj
 .text.hardware_alarm_claim
                0x10000ec0       0x18 CMakeFiles/FreeRTOS_Blink.dir/E_/Pi_Pico/pico-sdk/src/rp2_common/hardware_timer/timer.c.obj
                0x10000ec0                hardware_alarm_claim
 .text.time_us_64
                0x10000ed8       0x18 CMakeFiles/FreeRTOS_Blink.dir/E_/Pi_Pico/pico-sdk/src/rp2_common/hardware_timer/timer.c.obj
                0x10000ed8                time_us_64
 .text.hardware_alarm_set_callback
                0x10000ef0       0x90 CMakeFiles/FreeRTOS_Blink.dir/E_/Pi_Pico/pico-sdk/src/rp2_common/hardware_timer/timer.c.obj
                0x10000ef0                hardware_alarm_set_callback
 .text.hardware_alarm_set_target
                0x10000f80       0xd0 CMakeFiles/FreeRTOS_Blink.dir/E_/Pi_Pico/pico-sdk/src/rp2_common/hardware_timer/timer.c.obj
                0x10000f80                hardware_alarm_set_target
 .text.hardware_alarm_cancel
                0x10001050       0x40 CMakeFiles/FreeRTOS_Blink.dir/E_/Pi_Pico/pico-sdk/src/rp2_common/hardware_timer/timer.c.obj
                0x10001050                hardware_alarm_cancel
 .text.lock_init
                0x10001090       0x30 CMakeFiles/FreeRTOS_Blink.dir/E_/Pi_Pico/pico-sdk/src/common/pico_sync/lock_core.c.obj
                0x10001090                lock_init
 .text.mutex_init
                0x100010c0       0x1a CMakeFiles/FreeRTOS_Blink.dir/E_/Pi_Pico/pico-sdk/src/common/pico_sync/mutex.c.obj
                0x100010c0                mutex_init
 .text.critical_section_init_with_lock_num
                0x100010da        0xc CMakeFiles/FreeRTOS_Blink.dir/E_/Pi_Pico/pico-sdk/src/common/pico_sync/critical_section.c.obj
                0x100010da                critical_section_init_with_lock_num
 .text.critical_section_init
                0x100010e6       0x14 CMakeFiles/FreeRTOS_Blink.dir/E_/Pi_Pico/pico-sdk/src/common/pico_sync/critical_section.c.obj
                0x100010e6                critical_section_init
 *fill*         0x100010fa        0x2 
 .text.ph_add_child_node
                0x100010fc       0xa4 CMakeFiles/FreeRTOS_Blink.dir/E_/Pi_Pico/pico-sdk/src/common/pico_util/pheap.c.obj
 .text.ph_merge_nodes
                0x100011a0       0x3e CMakeFiles/FreeRTOS_Blink.dir/E_/Pi_Pico/pico-sdk/src/common/pico_util/pheap.c.obj
 *fill*         0x100011de        0x2 
 .text.ph_clear
                0x100011e0       0x74 CMakeFiles/FreeRTOS_Blink.dir/E_/Pi_Pico/pico-sdk/src/common/pico_util/pheap.c.obj
                0x100011e0                ph_clear
 .text.ph_create
                0x10001254       0x2c CMakeFiles/FreeRTOS_Blink.dir/E_/Pi_Pico/pico-sdk/src/common/pico_util/pheap.c.obj
                0x10001254                ph_create
 .text.ph_merge_two_pass
                0x10001280       0xa8 CMakeFiles/FreeRTOS_Blink.dir/E_/Pi_Pico/pico-sdk/src/common/pico_util/pheap.c.obj
                0x10001280                ph_merge_two_pass
 .text.ph_remove_any_head
                0x10001328      0x108 CMakeFiles/FreeRTOS_Blink.dir/E_/Pi_Pico/pico-sdk/src/common/pico_util/pheap.c.obj
 .text.ph_remove_head_reserve
                0x10001430       0x14 CMakeFiles/FreeRTOS_Blink.dir/E_/Pi_Pico/pico-sdk/src/common/pico_util/pheap.c.obj
                0x10001430                ph_remove_head_reserve
 .text.ph_delete
                0x10001444       0xf8 CMakeFiles/FreeRTOS_Blink.dir/E_/Pi_Pico/pico-sdk/src/common/pico_util/pheap.c.obj
                0x10001444                ph_delete
 .text.runtime_init
                0x1000153c       0xcc CMakeFiles/FreeRTOS_Blink.dir/E_/Pi_Pico/pico-sdk/src/rp2_common/pico_runtime/runtime.c.obj
                0x1000153c                runtime_init
 .text._exit    0x10001608        0x4 CMakeFiles/FreeRTOS_Blink.dir/E_/Pi_Pico/pico-sdk/src/rp2_common/pico_runtime/runtime.c.obj
                0x10001608                _exit
 .text._sbrk    0x1000160c       0x38 CMakeFiles/FreeRTOS_Blink.dir/E_/Pi_Pico/pico-sdk/src/rp2_common/pico_runtime/runtime.c.obj
                0x1000160c                _sbrk
 .text.exit     0x10001644        0x6 CMakeFiles/FreeRTOS_Blink.dir/E_/Pi_Pico/pico-sdk/src/rp2_common/pico_runtime/runtime.c.obj
                0x10001644                exit
 *fill*         0x1000164a        0x2 
 .text.__assert_func
                0x1000164c       0x3c CMakeFiles/FreeRTOS_Blink.dir/E_/Pi_Pico/pico-sdk/src/rp2_common/pico_runtime/runtime.c.obj
                0x1000164c                __assert_func
 .text.panic    0x10001688       0x30 CMakeFiles/FreeRTOS_Blink.dir/E_/Pi_Pico/pico-sdk/src/rp2_common/pico_runtime/runtime.c.obj
                0x10001688                panic
 .text.clock_configure
                0x100016b8       0xe8 CMakeFiles/FreeRTOS_Blink.dir/E_/Pi_Pico/pico-sdk/src/rp2_common/hardware_clocks/clocks.c.obj
                0x100016b8                clock_configure
 .text.clocks_init
                0x100017a0      0x124 CMakeFiles/FreeRTOS_Blink.dir/E_/Pi_Pico/pico-sdk/src/rp2_common/hardware_clocks/clocks.c.obj
                0x100017a0                clocks_init
 .text.watchdog_start_tick
                0x100018c4       0x10 CMakeFiles/FreeRTOS_Blink.dir/E_/Pi_Pico/pico-sdk/src/rp2_common/hardware_watchdog/watchdog.c.obj
                0x100018c4                watchdog_start_tick
 .text.xosc_init
                0x100018d4       0x28 CMakeFiles/FreeRTOS_Blink.dir/E_/Pi_Pico/pico-sdk/src/rp2_common/hardware_xosc/xosc.c.obj
                0x100018d4                xosc_init
 .text.pll_init
                0x100018fc       0xd4 CMakeFiles/FreeRTOS_Blink.dir/E_/Pi_Pico/pico-sdk/src/rp2_common/hardware_pll/pll.c.obj
                0x100018fc                pll_init
 .text.set_raw_irq_handler_and_unlock
                0x100019d0       0x28 CMakeFiles/FreeRTOS_Blink.dir/E_/Pi_Pico/pico-sdk/src/rp2_common/hardware_irq/irq.c.obj
 .text.make_branch
                0x100019f8       0x34 CMakeFiles/FreeRTOS_Blink.dir/E_/Pi_Pico/pico-sdk/src/rp2_common/hardware_irq/irq.c.obj
 .text.insert_branch_and_link
                0x10001a2c       0x40 CMakeFiles/FreeRTOS_Blink.dir/E_/Pi_Pico/pico-sdk/src/rp2_common/hardware_irq/irq.c.obj
 .text.irq_is_enabled
                0x10001a6c       0x18 CMakeFiles/FreeRTOS_Blink.dir/E_/Pi_Pico/pico-sdk/src/rp2_common/hardware_irq/irq.c.obj
                0x10001a6c                irq_is_enabled
 .text.irq_set_mask_enabled
                0x10001a84       0x20 CMakeFiles/FreeRTOS_Blink.dir/E_/Pi_Pico/pico-sdk/src/rp2_common/hardware_irq/irq.c.obj
                0x10001a84                irq_set_mask_enabled
 .text.irq_set_enabled
                0x10001aa4        0xe CMakeFiles/FreeRTOS_Blink.dir/E_/Pi_Pico/pico-sdk/src/rp2_common/hardware_irq/irq.c.obj
                0x10001aa4                irq_set_enabled
 *fill*         0x10001ab2        0x2 
 .text.irq_set_pending
                0x10001ab4       0x10 CMakeFiles/FreeRTOS_Blink.dir/E_/Pi_Pico/pico-sdk/src/rp2_common/hardware_irq/irq.c.obj
                0x10001ab4                irq_set_pending
 .text.irq_get_vtable_handler
                0x10001ac4       0x10 CMakeFiles/FreeRTOS_Blink.dir/E_/Pi_Pico/pico-sdk/src/rp2_common/hardware_irq/irq.c.obj
                0x10001ac4                irq_get_vtable_handler
 .text.irq_set_exclusive_handler
                0x10001ad4       0x54 CMakeFiles/FreeRTOS_Blink.dir/E_/Pi_Pico/pico-sdk/src/rp2_common/hardware_irq/irq.c.obj
                0x10001ad4                irq_set_exclusive_handler
 .text.irq_remove_handler
                0x10001b28      0x1b4 CMakeFiles/FreeRTOS_Blink.dir/E_/Pi_Pico/pico-sdk/src/rp2_common/hardware_irq/irq.c.obj
                0x10001b28                irq_remove_handler
 .text.irq_set_priority
                0x10001cdc       0x28 CMakeFiles/FreeRTOS_Blink.dir/E_/Pi_Pico/pico-sdk/src/rp2_common/hardware_irq/irq.c.obj
                0x10001cdc                irq_set_priority
 .text.irq_add_tail_to_free_list
                0x10001d04       0xf8 CMakeFiles/FreeRTOS_Blink.dir/E_/Pi_Pico/pico-sdk/src/rp2_common/hardware_irq/irq.c.obj
                0x10001d04                irq_add_tail_to_free_list
 .text.irq_init_priorities
                0x10001dfc       0x16 CMakeFiles/FreeRTOS_Blink.dir/E_/Pi_Pico/pico-sdk/src/rp2_common/hardware_irq/irq.c.obj
                0x10001dfc                irq_init_priorities
 .text._out_null
                0x10001e12        0x2 CMakeFiles/FreeRTOS_Blink.dir/E_/Pi_Pico/pico-sdk/src/rp2_common/pico_printf/printf.c.obj
 .text._out_fct
                0x10001e14        0xe CMakeFiles/FreeRTOS_Blink.dir/E_/Pi_Pico/pico-sdk/src/rp2_common/pico_printf/printf.c.obj
 .text._atoi    0x10001e22       0x24 CMakeFiles/FreeRTOS_Blink.dir/E_/Pi_Pico/pico-sdk/src/rp2_common/pico_printf/printf.c.obj
 .text._out_rev
                0x10001e46       0xae CMakeFiles/FreeRTOS_Blink.dir/E_/Pi_Pico/pico-sdk/src/rp2_common/pico_printf/printf.c.obj
 .text._ntoa_format
                0x10001ef4      0x112 CMakeFiles/FreeRTOS_Blink.dir/E_/Pi_Pico/pico-sdk/src/rp2_common/pico_printf/printf.c.obj
 .text._ntoa_long
                0x10002006       0xbc CMakeFiles/FreeRTOS_Blink.dir/E_/Pi_Pico/pico-sdk/src/rp2_common/pico_printf/printf.c.obj
 .text._ntoa_long_long
                0x100020c2       0xe2 CMakeFiles/FreeRTOS_Blink.dir/E_/Pi_Pico/pico-sdk/src/rp2_common/pico_printf/printf.c.obj
 .text._etoa    0x100021a4      0x404 CMakeFiles/FreeRTOS_Blink.dir/E_/Pi_Pico/pico-sdk/src/rp2_common/pico_printf/printf.c.obj
 .text._ftoa    0x100025a8      0x354 CMakeFiles/FreeRTOS_Blink.dir/E_/Pi_Pico/pico-sdk/src/rp2_common/pico_printf/printf.c.obj
 .text._vsnprintf
                0x100028fc      0x624 CMakeFiles/FreeRTOS_Blink.dir/E_/Pi_Pico/pico-sdk/src/rp2_common/pico_printf/printf.c.obj
 .text.vfctprintf
                0x10002f20       0x20 CMakeFiles/FreeRTOS_Blink.dir/E_/Pi_Pico/pico-sdk/src/rp2_common/pico_printf/printf.c.obj
                0x10002f20                vfctprintf
 .text          0x10002f40       0x10 CMakeFiles/FreeRTOS_Blink.dir/E_/Pi_Pico/pico-sdk/src/rp2_common/pico_bit_ops/bit_ops_aeabi.S.obj
 .text.rom_func_lookup
                0x10002f50       0x10 CMakeFiles/FreeRTOS_Blink.dir/E_/Pi_Pico/pico-sdk/src/rp2_common/pico_bootrom/bootrom.c.obj
                0x10002f50                rom_func_lookup
 .text.rom_data_lookup
                0x10002f60       0x10 CMakeFiles/FreeRTOS_Blink.dir/E_/Pi_Pico/pico-sdk/src/rp2_common/pico_bootrom/bootrom.c.obj
                0x10002f60                rom_data_lookup
 .text.rom_funcs_lookup
                0x10002f70       0x36 CMakeFiles/FreeRTOS_Blink.dir/E_/Pi_Pico/pico-sdk/src/rp2_common/pico_bootrom/bootrom.c.obj
                0x10002f70                rom_funcs_lookup
 *fill*         0x10002fa6        0x2 
 .text.__wrap___aeabi_idiv
                0x10002fa8       0x58 CMakeFiles/FreeRTOS_Blink.dir/E_/Pi_Pico/pico-sdk/src/rp2_common/pico_divider/divider.S.obj
                0x10002fa8                __wrap___aeabi_idivmod
                0x10002fa8                divmod_s32s32
                0x10002fa8                div_s32s32
                0x10002fa8                __wrap___aeabi_idiv
                0x10002fb0                divmod_s32s32_unsafe
                0x10002fdc                divmod_s32s32_savestate
 .text.__wrap___aeabi_uidiv
                0x10003000       0x54 CMakeFiles/FreeRTOS_Blink.dir/E_/Pi_Pico/pico-sdk/src/rp2_common/pico_divider/divider.S.obj
                0x10003000                __wrap___aeabi_uidiv
                0x10003000                __wrap___aeabi_uidivmod
                0x10003000                div_u32u32
                0x10003000                divmod_u32u32
                0x10003008                divmod_u32u32_unsafe
                0x10003030                divmod_u32u32_savestate
 .text.__wrap___aeabi_ldiv
                0x10003054      0x430 CMakeFiles/FreeRTOS_Blink.dir/E_/Pi_Pico/pico-sdk/src/rp2_common/pico_divider/divider.S.obj
                0x10003054                div_s64s64
                0x10003054                divmod_s64s64
                0x10003054                __wrap___aeabi_ldivmod
                0x1000308c                divmod_u64u64
                0x1000308c                div_u64u64
                0x1000308c                __wrap___aeabi_uldivmod
                0x1000309c                divmod_u64u64_savestate
                0x100030c4                divmod_s64s64_unsafe
                0x1000314c                divmod_u64u64_unsafe
 .text.__wrap___aeabi_darithmetic
                0x10003484       0x54 CMakeFiles/FreeRTOS_Blink.dir/E_/Pi_Pico/pico-sdk/src/rp2_common/pico_double/double_aeabi.S.obj
                0x10003484                __wrap___aeabi_drsub
                0x1000348a                __wrap___aeabi_dsub
                0x1000349c                __wrap___aeabi_dadd
                0x100034ae                __wrap___aeabi_ddiv
                0x100034c0                __wrap___aeabi_dmul
 .text.__wrap___aeabi_cdcmple
                0x100034d8       0x6c CMakeFiles/FreeRTOS_Blink.dir/E_/Pi_Pico/pico-sdk/src/rp2_common/pico_double/double_aeabi.S.obj
                0x100034d8                __wrap___aeabi_cdrcmple
                0x100034e8                __wrap___aeabi_cdcmpeq
                0x100034e8                __wrap___aeabi_cdcmple
 .text.__wrap___aeabi_dcmplt
                0x10003544        0xc CMakeFiles/FreeRTOS_Blink.dir/E_/Pi_Pico/pico-sdk/src/rp2_common/pico_double/double_aeabi.S.obj
                0x10003544                __wrap___aeabi_dcmplt
 .text.__wrap___aeabi_dcmple
                0x10003550       0x10 CMakeFiles/FreeRTOS_Blink.dir/E_/Pi_Pico/pico-sdk/src/rp2_common/pico_double/double_aeabi.S.obj
                0x10003550                __wrap___aeabi_dcmple
 .text.__wrap___aeabi_dcmpge
                0x10003560       0x10 CMakeFiles/FreeRTOS_Blink.dir/E_/Pi_Pico/pico-sdk/src/rp2_common/pico_double/double_aeabi.S.obj
                0x10003560                __wrap___aeabi_dcmpge
 .text.__wrap___aeabi_dcmpgt
                0x10003570        0xa CMakeFiles/FreeRTOS_Blink.dir/E_/Pi_Pico/pico-sdk/src/rp2_common/pico_double/double_aeabi.S.obj
                0x10003570                __wrap___aeabi_dcmpgt
 .text.__wrap___aeabi_dcmpun
                0x1000357a       0x1c CMakeFiles/FreeRTOS_Blink.dir/E_/Pi_Pico/pico-sdk/src/rp2_common/pico_double/double_aeabi.S.obj
                0x1000357a                __wrap___aeabi_dcmpun
 *fill*         0x10003596        0x2 
 .text.__wrap___aeabi_i2d
                0x10003598       0x38 CMakeFiles/FreeRTOS_Blink.dir/E_/Pi_Pico/pico-sdk/src/rp2_common/pico_double/double_aeabi.S.obj
                0x10003598                __wrap___aeabi_ui2d
                0x100035a0                __wrap___aeabi_i2d
 .text.__wrap___aeabi_d2iz
                0x100035d0       0x48 CMakeFiles/FreeRTOS_Blink.dir/E_/Pi_Pico/pico-sdk/src/rp2_common/pico_double/double_aeabi.S.obj
                0x100035d0                double2int_z
                0x100035d0                __wrap___aeabi_d2iz
 .text.__wrap___aeabi_d2uiz
                0x10003618       0x18 CMakeFiles/FreeRTOS_Blink.dir/E_/Pi_Pico/pico-sdk/src/rp2_common/pico_double/double_aeabi.S.obj
                0x10003618                __wrap___aeabi_d2uiz
                0x10003618                double2uint
 .text.__aeabi_double_init
                0x10003630       0xb8 CMakeFiles/FreeRTOS_Blink.dir/E_/Pi_Pico/pico-sdk/src/rp2_common/pico_double/double_init_rom.c.obj
                0x10003630                __aeabi_double_init
 .text.double_table_shim_on_use_helper
                0x100036e8       0x34 CMakeFiles/FreeRTOS_Blink.dir/E_/Pi_Pico/pico-sdk/src/rp2_common/pico_double/double_v1_rom_shim.S.obj
                0x100036e8                double_table_shim_on_use_helper
 .text.__wrap___aeabi_dsub
                0x1000371c       0x10 CMakeFiles/FreeRTOS_Blink.dir/E_/Pi_Pico/pico-sdk/src/rp2_common/pico_double/double_v1_rom_shim.S.obj
                0x1000371c                drsub_shim
                0x10003722                dsub_shim
 .text.dadd_shim
                0x1000372c      0x15c CMakeFiles/FreeRTOS_Blink.dir/E_/Pi_Pico/pico-sdk/src/rp2_common/pico_double/double_v1_rom_shim.S.obj
                0x1000372c                dadd_shim
 .text.dmul_shim
                0x10003888      0x15c CMakeFiles/FreeRTOS_Blink.dir/E_/Pi_Pico/pico-sdk/src/rp2_common/pico_double/double_v1_rom_shim.S.obj
                0x10003888                dmul_shim
 .text.ddiv_shim
                0x100039e4      0x1b0 CMakeFiles/FreeRTOS_Blink.dir/E_/Pi_Pico/pico-sdk/src/rp2_common/pico_double/double_v1_rom_shim.S.obj
                0x100039e4                ddiv_shim
 .text.dcordic_rot_step
                0x10003b94       0x7c CMakeFiles/FreeRTOS_Blink.dir/E_/Pi_Pico/pico-sdk/src/rp2_common/pico_double/double_v1_rom_shim.S.obj
                0x10003b94                dcordic_rot_step
 .text.double2uint_shim
                0x10003c10        0xe CMakeFiles/FreeRTOS_Blink.dir/E_/Pi_Pico/pico-sdk/src/rp2_common/pico_double/double_v1_rom_shim.S.obj
                0x10003c10                double2uint_shim
                0x10003c12                double2ufix_shim
 *fill*         0x10003c1e        0x2 
 .text.double2uint64_shim
                0x10003c20       0x6c CMakeFiles/FreeRTOS_Blink.dir/E_/Pi_Pico/pico-sdk/src/rp2_common/pico_double/double_v1_rom_shim.S.obj
                0x10003c20                double2uint64_shim
                0x10003c22                double2ufix64_shim
                0x10003c3c                d2fix_a
 .text.dunpacks
                0x10003c8c       0x3c CMakeFiles/FreeRTOS_Blink.dir/E_/Pi_Pico/pico-sdk/src/rp2_common/pico_double/double_v1_rom_shim.S.obj
                0x10003c8c                dunpacks
 .text.__aeabi_lmul
                0x10003cc8       0x32 CMakeFiles/FreeRTOS_Blink.dir/E_/Pi_Pico/pico-sdk/src/rp2_common/pico_int64_ops/pico_int64_ops_aeabi.S.obj
                0x10003cc8                __wrap___aeabi_lmul
 *fill*         0x10003cfa        0x2 
 .text.__aeabi_float_init
                0x10003cfc       0xfc CMakeFiles/FreeRTOS_Blink.dir/E_/Pi_Pico/pico-sdk/src/rp2_common/pico_float/float_init_rom.c.obj
                0x10003cfc                __aeabi_float_init
 .text.float_table_shim_on_use_helper
                0x10003df8       0x34 CMakeFiles/FreeRTOS_Blink.dir/E_/Pi_Pico/pico-sdk/src/rp2_common/pico_float/float_v1_rom_shim.S.obj
                0x10003df8                float_table_shim_on_use_helper
 .text.__wrap_malloc
                0x10003e2c        0x8 CMakeFiles/FreeRTOS_Blink.dir/E_/Pi_Pico/pico-sdk/src/rp2_common/pico_malloc/pico_malloc.c.obj
                0x10003e2c                __wrap_malloc
 .text.__wrap_calloc
                0x10003e34        0x8 CMakeFiles/FreeRTOS_Blink.dir/E_/Pi_Pico/pico-sdk/src/rp2_common/pico_malloc/pico_malloc.c.obj
                0x10003e34                __wrap_calloc
 .text          0x10003e3c       0x10 CMakeFiles/FreeRTOS_Blink.dir/E_/Pi_Pico/pico-sdk/src/rp2_common/pico_mem_ops/mem_ops_aeabi.S.obj
                0x10003e3c                __aeabi_mem_init
 .text.memset   0x10003e4c        0xc CMakeFiles/FreeRTOS_Blink.dir/E_/Pi_Pico/pico-sdk/src/rp2_common/pico_mem_ops/mem_ops_aeabi.S.obj
                0x10003e4c                __wrap_memset
 .text.memcpy   0x10003e58        0xc CMakeFiles/FreeRTOS_Blink.dir/E_/Pi_Pico/pico-sdk/src/rp2_common/pico_mem_ops/mem_ops_aeabi.S.obj
                0x10003e58                __wrap_memcpy
                0x10003e58                __wrap___aeabi_memcpy
 .text.stdio_out_chars_crlf
                0x10003e64       0x80 CMakeFiles/FreeRTOS_Blink.dir/E_/Pi_Pico/pico-sdk/src/rp2_common/pico_stdio/stdio.c.obj
 .text.stdio_stack_buffer_flush
                0x10003ee4       0x44 CMakeFiles/FreeRTOS_Blink.dir/E_/Pi_Pico/pico-sdk/src/rp2_common/pico_stdio/stdio.c.obj
 .text.stdio_buffered_printer
                0x10003f28       0x20 CMakeFiles/FreeRTOS_Blink.dir/E_/Pi_Pico/pico-sdk/src/rp2_common/pico_stdio/stdio.c.obj
 .text.stdout_serialize_begin
                0x10003f48       0x2c CMakeFiles/FreeRTOS_Blink.dir/E_/Pi_Pico/pico-sdk/src/rp2_common/pico_stdio/stdio.c.obj
                0x10003f48                stdout_serialize_begin
 .text.stdout_serialize_end
                0x10003f74       0x10 CMakeFiles/FreeRTOS_Blink.dir/E_/Pi_Pico/pico-sdk/src/rp2_common/pico_stdio/stdio.c.obj
                0x10003f74                stdout_serialize_end
 .text.stdio_put_string
                0x10003f84       0x84 CMakeFiles/FreeRTOS_Blink.dir/E_/Pi_Pico/pico-sdk/src/rp2_common/pico_stdio/stdio.c.obj
 .text.stdio_set_driver_enabled
                0x10004008       0x38 CMakeFiles/FreeRTOS_Blink.dir/E_/Pi_Pico/pico-sdk/src/rp2_common/pico_stdio/stdio.c.obj
                0x10004008                stdio_set_driver_enabled
 .text.stdio_flush
                0x10004040       0x20 CMakeFiles/FreeRTOS_Blink.dir/E_/Pi_Pico/pico-sdk/src/rp2_common/pico_stdio/stdio.c.obj
                0x10004040                stdio_flush
 .text.__wrap_puts
                0x10004060       0x1c CMakeFiles/FreeRTOS_Blink.dir/E_/Pi_Pico/pico-sdk/src/rp2_common/pico_stdio/stdio.c.obj
                0x10004060                __wrap_puts
 .text.__wrap_vprintf
                0x1000407c       0x44 CMakeFiles/FreeRTOS_Blink.dir/E_/Pi_Pico/pico-sdk/src/rp2_common/pico_stdio/stdio.c.obj
                0x1000407c                __wrap_vprintf
 .text.__wrap_printf
                0x100040c0       0x18 CMakeFiles/FreeRTOS_Blink.dir/E_/Pi_Pico/pico-sdk/src/rp2_common/pico_stdio/stdio.c.obj
                0x100040c0                __wrap_printf
 .text.stdio_init_all
                0x100040d8        0x8 CMakeFiles/FreeRTOS_Blink.dir/E_/Pi_Pico/pico-sdk/src/rp2_common/pico_stdio/stdio.c.obj
                0x100040d8                stdio_init_all
 .text.stdio_usb_in_chars
                0x100040e0       0x70 CMakeFiles/FreeRTOS_Blink.dir/E_/Pi_Pico/pico-sdk/src/rp2_common/pico_stdio_usb/stdio_usb.c.obj
                0x100040e0                stdio_usb_in_chars
 .text.low_priority_worker_irq
                0x10004150       0x20 CMakeFiles/FreeRTOS_Blink.dir/E_/Pi_Pico/pico-sdk/src/rp2_common/pico_stdio_usb/stdio_usb.c.obj
 .text.stdio_usb_out_chars
                0x10004170       0xd4 CMakeFiles/FreeRTOS_Blink.dir/E_/Pi_Pico/pico-sdk/src/rp2_common/pico_stdio_usb/stdio_usb.c.obj
 .text.timer_task
                0x10004244       0x10 CMakeFiles/FreeRTOS_Blink.dir/E_/Pi_Pico/pico-sdk/src/rp2_common/pico_stdio_usb/stdio_usb.c.obj
 .text.stdio_usb_init
                0x10004254       0x90 CMakeFiles/FreeRTOS_Blink.dir/E_/Pi_Pico/pico-sdk/src/rp2_common/pico_stdio_usb/stdio_usb.c.obj
                0x10004254                stdio_usb_init
 .text.tud_descriptor_device_cb
                0x100042e4        0x8 CMakeFiles/FreeRTOS_Blink.dir/E_/Pi_Pico/pico-sdk/src/rp2_common/pico_stdio_usb/stdio_usb_descriptors.c.obj
                0x100042e4                tud_descriptor_device_cb
 .text.tud_descriptor_configuration_cb
                0x100042ec        0x8 CMakeFiles/FreeRTOS_Blink.dir/E_/Pi_Pico/pico-sdk/src/rp2_common/pico_stdio_usb/stdio_usb_descriptors.c.obj
                0x100042ec                tud_descriptor_configuration_cb
 .text.tud_descriptor_string_cb
                0x100042f4       0x50 CMakeFiles/FreeRTOS_Blink.dir/E_/Pi_Pico/pico-sdk/src/rp2_common/pico_stdio_usb/stdio_usb_descriptors.c.obj
                0x100042f4                tud_descriptor_string_cb
 .text.hw_endpoint_get_by_addr
                0x10004344       0x1c CMakeFiles/FreeRTOS_Blink.dir/E_/Pi_Pico/pico-sdk/lib/tinyusb/src/portable/raspberrypi/rp2040/dcd_rp2040.c.obj
 .text.reset_ep0
                0x10004360       0x2c CMakeFiles/FreeRTOS_Blink.dir/E_/Pi_Pico/pico-sdk/lib/tinyusb/src/portable/raspberrypi/rp2040/dcd_rp2040.c.obj
 .text._hw_endpoint_alloc
                0x1000438c       0x7c CMakeFiles/FreeRTOS_Blink.dir/E_/Pi_Pico/pico-sdk/lib/tinyusb/src/portable/raspberrypi/rp2040/dcd_rp2040.c.obj
 .text._hw_endpoint_init
                0x10004408       0xbc CMakeFiles/FreeRTOS_Blink.dir/E_/Pi_Pico/pico-sdk/lib/tinyusb/src/portable/raspberrypi/rp2040/dcd_rp2040.c.obj
 .text.hw_endpoint_init
                0x100044c4       0x18 CMakeFiles/FreeRTOS_Blink.dir/E_/Pi_Pico/pico-sdk/lib/tinyusb/src/portable/raspberrypi/rp2040/dcd_rp2040.c.obj
 .text.hw_handle_buff_status
                0x100044dc       0xb8 CMakeFiles/FreeRTOS_Blink.dir/E_/Pi_Pico/pico-sdk/lib/tinyusb/src/portable/raspberrypi/rp2040/dcd_rp2040.c.obj
 .text.dcd_rp2040_irq
                0x10004594       0x8c CMakeFiles/FreeRTOS_Blink.dir/E_/Pi_Pico/pico-sdk/lib/tinyusb/src/portable/raspberrypi/rp2040/dcd_rp2040.c.obj
 .text.hw_endpoint_xfer
                0x10004620       0x18 CMakeFiles/FreeRTOS_Blink.dir/E_/Pi_Pico/pico-sdk/lib/tinyusb/src/portable/raspberrypi/rp2040/dcd_rp2040.c.obj
 .text.ep0_0len_status
                0x10004638       0x14 CMakeFiles/FreeRTOS_Blink.dir/E_/Pi_Pico/pico-sdk/lib/tinyusb/src/portable/raspberrypi/rp2040/dcd_rp2040.c.obj
 .text._hw_endpoint_stall
                0x1000464c       0x54 CMakeFiles/FreeRTOS_Blink.dir/E_/Pi_Pico/pico-sdk/lib/tinyusb/src/portable/raspberrypi/rp2040/dcd_rp2040.c.obj
 .text.hw_endpoint_stall
                0x100046a0        0xc CMakeFiles/FreeRTOS_Blink.dir/E_/Pi_Pico/pico-sdk/lib/tinyusb/src/portable/raspberrypi/rp2040/dcd_rp2040.c.obj
 .text._hw_endpoint_clear_stall
                0x100046ac       0x34 CMakeFiles/FreeRTOS_Blink.dir/E_/Pi_Pico/pico-sdk/lib/tinyusb/src/portable/raspberrypi/rp2040/dcd_rp2040.c.obj
 .text.hw_endpoint_clear_stall
                0x100046e0        0xc CMakeFiles/FreeRTOS_Blink.dir/E_/Pi_Pico/pico-sdk/lib/tinyusb/src/portable/raspberrypi/rp2040/dcd_rp2040.c.obj
 .text.dcd_int_enable
                0x100046ec       0x2c CMakeFiles/FreeRTOS_Blink.dir/E_/Pi_Pico/pico-sdk/lib/tinyusb/src/portable/raspberrypi/rp2040/dcd_rp2040.c.obj
                0x100046ec                dcd_int_enable
 .text.dcd_set_address
                0x10004718       0x30 CMakeFiles/FreeRTOS_Blink.dir/E_/Pi_Pico/pico-sdk/lib/tinyusb/src/portable/raspberrypi/rp2040/dcd_rp2040.c.obj
                0x10004718                dcd_set_address
 .text.dcd_connect
                0x10004748       0x30 CMakeFiles/FreeRTOS_Blink.dir/E_/Pi_Pico/pico-sdk/lib/tinyusb/src/portable/raspberrypi/rp2040/dcd_rp2040.c.obj
                0x10004748                dcd_connect
 .text.dcd_init
                0x10004778       0x90 CMakeFiles/FreeRTOS_Blink.dir/E_/Pi_Pico/pico-sdk/lib/tinyusb/src/portable/raspberrypi/rp2040/dcd_rp2040.c.obj
                0x10004778                dcd_init
 .text.dcd_edpt0_status_complete
                0x10004808       0x44 CMakeFiles/FreeRTOS_Blink.dir/E_/Pi_Pico/pico-sdk/lib/tinyusb/src/portable/raspberrypi/rp2040/dcd_rp2040.c.obj
                0x10004808                dcd_edpt0_status_complete
 .text.dcd_edpt_open
                0x1000484c       0x40 CMakeFiles/FreeRTOS_Blink.dir/E_/Pi_Pico/pico-sdk/lib/tinyusb/src/portable/raspberrypi/rp2040/dcd_rp2040.c.obj
                0x1000484c                dcd_edpt_open
 .text.dcd_edpt_xfer
                0x1000488c       0x34 CMakeFiles/FreeRTOS_Blink.dir/E_/Pi_Pico/pico-sdk/lib/tinyusb/src/portable/raspberrypi/rp2040/dcd_rp2040.c.obj
                0x1000488c                dcd_edpt_xfer
 .text.dcd_edpt_stall
                0x100048c0       0x28 CMakeFiles/FreeRTOS_Blink.dir/E_/Pi_Pico/pico-sdk/lib/tinyusb/src/portable/raspberrypi/rp2040/dcd_rp2040.c.obj
                0x100048c0                dcd_edpt_stall
 .text.dcd_edpt_clear_stall
                0x100048e8       0x28 CMakeFiles/FreeRTOS_Blink.dir/E_/Pi_Pico/pico-sdk/lib/tinyusb/src/portable/raspberrypi/rp2040/dcd_rp2040.c.obj
                0x100048e8                dcd_edpt_clear_stall
 .text.rp2040_usb_init
                0x10004910       0x50 CMakeFiles/FreeRTOS_Blink.dir/E_/Pi_Pico/pico-sdk/lib/tinyusb/src/portable/raspberrypi/rp2040/rp2040_usb.c.obj
                0x10004910                rp2040_usb_init
 .text.hw_endpoint_reset_transfer
                0x10004960       0x14 CMakeFiles/FreeRTOS_Blink.dir/E_/Pi_Pico/pico-sdk/lib/tinyusb/src/portable/raspberrypi/rp2040/rp2040_usb.c.obj
                0x10004960                hw_endpoint_reset_transfer
 .text._hw_endpoint_buffer_control_update32
                0x10004974       0x54 CMakeFiles/FreeRTOS_Blink.dir/E_/Pi_Pico/pico-sdk/lib/tinyusb/src/portable/raspberrypi/rp2040/rp2040_usb.c.obj
                0x10004974                _hw_endpoint_buffer_control_update32
 .text._hw_endpoint_start_next_buffer
                0x100049c8       0x5a CMakeFiles/FreeRTOS_Blink.dir/E_/Pi_Pico/pico-sdk/lib/tinyusb/src/portable/raspberrypi/rp2040/rp2040_usb.c.obj
                0x100049c8                _hw_endpoint_start_next_buffer
 .text._hw_endpoint_xfer_start
                0x10004a22       0x46 CMakeFiles/FreeRTOS_Blink.dir/E_/Pi_Pico/pico-sdk/lib/tinyusb/src/portable/raspberrypi/rp2040/rp2040_usb.c.obj
                0x10004a22                _hw_endpoint_xfer_start
 .text._hw_endpoint_xfer_sync
                0x10004a68       0x74 CMakeFiles/FreeRTOS_Blink.dir/E_/Pi_Pico/pico-sdk/lib/tinyusb/src/portable/raspberrypi/rp2040/rp2040_usb.c.obj
                0x10004a68                _hw_endpoint_xfer_sync
 .text._hw_endpoint_xfer_continue
                0x10004adc       0x58 CMakeFiles/FreeRTOS_Blink.dir/E_/Pi_Pico/pico-sdk/lib/tinyusb/src/portable/raspberrypi/rp2040/rp2040_usb.c.obj
                0x10004adc                _hw_endpoint_xfer_continue
 .text._hw_endpoint_xfer
                0x10004b34       0x34 CMakeFiles/FreeRTOS_Blink.dir/E_/Pi_Pico/pico-sdk/lib/tinyusb/src/portable/raspberrypi/rp2040/rp2040_usb.c.obj
                0x10004b34                _hw_endpoint_xfer
 .text.mark_interface_endpoint
                0x10004b68       0x2a CMakeFiles/FreeRTOS_Blink.dir/E_/Pi_Pico/pico-sdk/lib/tinyusb/src/device/usbd.c.obj
 *fill*         0x10004b92        0x2 
 .text.usbd_reset
                0x10004b94       0x88 CMakeFiles/FreeRTOS_Blink.dir/E_/Pi_Pico/pico-sdk/lib/tinyusb/src/device/usbd.c.obj
 .text.invoke_class_control
                0x10004c1c       0x18 CMakeFiles/FreeRTOS_Blink.dir/E_/Pi_Pico/pico-sdk/lib/tinyusb/src/device/usbd.c.obj
 .text.process_set_config
                0x10004c34      0x1d0 CMakeFiles/FreeRTOS_Blink.dir/E_/Pi_Pico/pico-sdk/lib/tinyusb/src/device/usbd.c.obj
 .text.process_get_descriptor
                0x10004e04       0xf4 CMakeFiles/FreeRTOS_Blink.dir/E_/Pi_Pico/pico-sdk/lib/tinyusb/src/device/usbd.c.obj
 .text.tud_mounted
                0x10004ef8       0x10 CMakeFiles/FreeRTOS_Blink.dir/E_/Pi_Pico/pico-sdk/lib/tinyusb/src/device/usbd.c.obj
                0x10004ef8                tud_mounted
 .text.tud_suspended
                0x10004f08       0x10 CMakeFiles/FreeRTOS_Blink.dir/E_/Pi_Pico/pico-sdk/lib/tinyusb/src/device/usbd.c.obj
                0x10004f08                tud_suspended
 .text.tud_init
                0x10004f18       0xb8 CMakeFiles/FreeRTOS_Blink.dir/E_/Pi_Pico/pico-sdk/lib/tinyusb/src/device/usbd.c.obj
                0x10004f18                tud_init
 .text.dcd_event_handler
                0x10004fd0      0x1c4 CMakeFiles/FreeRTOS_Blink.dir/E_/Pi_Pico/pico-sdk/lib/tinyusb/src/device/usbd.c.obj
                0x10004fd0                dcd_event_handler
 .text.dcd_event_bus_signal
                0x10005194       0x26 CMakeFiles/FreeRTOS_Blink.dir/E_/Pi_Pico/pico-sdk/lib/tinyusb/src/device/usbd.c.obj
                0x10005194                dcd_event_bus_signal
 .text.dcd_event_setup_received
                0x100051ba       0x34 CMakeFiles/FreeRTOS_Blink.dir/E_/Pi_Pico/pico-sdk/lib/tinyusb/src/device/usbd.c.obj
                0x100051ba                dcd_event_setup_received
 .text.dcd_event_xfer_complete
                0x100051ee       0x44 CMakeFiles/FreeRTOS_Blink.dir/E_/Pi_Pico/pico-sdk/lib/tinyusb/src/device/usbd.c.obj
                0x100051ee                dcd_event_xfer_complete
 .text.usbd_edpt_open
                0x10005232        0x8 CMakeFiles/FreeRTOS_Blink.dir/E_/Pi_Pico/pico-sdk/lib/tinyusb/src/device/usbd.c.obj
                0x10005232                usbd_edpt_open
 *fill*         0x1000523a        0x2 
 .text.usbd_open_edpt_pair
                0x1000523c       0x8c CMakeFiles/FreeRTOS_Blink.dir/E_/Pi_Pico/pico-sdk/lib/tinyusb/src/device/usbd.c.obj
                0x1000523c                usbd_open_edpt_pair
 .text.usbd_edpt_claim
                0x100052c8       0x8c CMakeFiles/FreeRTOS_Blink.dir/E_/Pi_Pico/pico-sdk/lib/tinyusb/src/device/usbd.c.obj
                0x100052c8                usbd_edpt_claim
 .text.usbd_edpt_release
                0x10005354       0x68 CMakeFiles/FreeRTOS_Blink.dir/E_/Pi_Pico/pico-sdk/lib/tinyusb/src/device/usbd.c.obj
                0x10005354                usbd_edpt_release
 .text.usbd_edpt_xfer
                0x100053bc       0x80 CMakeFiles/FreeRTOS_Blink.dir/E_/Pi_Pico/pico-sdk/lib/tinyusb/src/device/usbd.c.obj
                0x100053bc                usbd_edpt_xfer
 .text.usbd_edpt_stall
                0x1000543c       0x2c CMakeFiles/FreeRTOS_Blink.dir/E_/Pi_Pico/pico-sdk/lib/tinyusb/src/device/usbd.c.obj
                0x1000543c                usbd_edpt_stall
 .text.usbd_edpt_clear_stall
                0x10005468       0x2c CMakeFiles/FreeRTOS_Blink.dir/E_/Pi_Pico/pico-sdk/lib/tinyusb/src/device/usbd.c.obj
                0x10005468                usbd_edpt_clear_stall
 .text.usbd_edpt_stalled
                0x10005494       0x1c CMakeFiles/FreeRTOS_Blink.dir/E_/Pi_Pico/pico-sdk/lib/tinyusb/src/device/usbd.c.obj
                0x10005494                usbd_edpt_stalled
 .text.process_control_request
                0x100054b0      0x37c CMakeFiles/FreeRTOS_Blink.dir/E_/Pi_Pico/pico-sdk/lib/tinyusb/src/device/usbd.c.obj
 .text.tud_task
                0x1000582c      0x204 CMakeFiles/FreeRTOS_Blink.dir/E_/Pi_Pico/pico-sdk/lib/tinyusb/src/device/usbd.c.obj
                0x1000582c                tud_task
 .text._data_stage_xact
                0x10005a30       0x58 CMakeFiles/FreeRTOS_Blink.dir/E_/Pi_Pico/pico-sdk/lib/tinyusb/src/device/usbd_control.c.obj
 .text.tud_control_status
                0x10005a88       0x38 CMakeFiles/FreeRTOS_Blink.dir/E_/Pi_Pico/pico-sdk/lib/tinyusb/src/device/usbd_control.c.obj
                0x10005a88                tud_control_status
 .text.tud_control_xfer
                0x10005ac0       0xa8 CMakeFiles/FreeRTOS_Blink.dir/E_/Pi_Pico/pico-sdk/lib/tinyusb/src/device/usbd_control.c.obj
                0x10005ac0                tud_control_xfer
 .text.usbd_control_reset
                0x10005b68       0x14 CMakeFiles/FreeRTOS_Blink.dir/E_/Pi_Pico/pico-sdk/lib/tinyusb/src/device/usbd_control.c.obj
                0x10005b68                usbd_control_reset
 .text.usbd_control_set_complete_callback
                0x10005b7c        0xc CMakeFiles/FreeRTOS_Blink.dir/E_/Pi_Pico/pico-sdk/lib/tinyusb/src/device/usbd_control.c.obj
                0x10005b7c                usbd_control_set_complete_callback
 .text.usbd_control_set_request
                0x10005b88       0x1c CMakeFiles/FreeRTOS_Blink.dir/E_/Pi_Pico/pico-sdk/lib/tinyusb/src/device/usbd_control.c.obj
                0x10005b88                usbd_control_set_request
 .text.usbd_control_xfer_cb
                0x10005ba4       0xe8 CMakeFiles/FreeRTOS_Blink.dir/E_/Pi_Pico/pico-sdk/lib/tinyusb/src/device/usbd_control.c.obj
                0x10005ba4                usbd_control_xfer_cb
 .text._prep_out_transaction
                0x10005c8c       0x46 CMakeFiles/FreeRTOS_Blink.dir/E_/Pi_Pico/pico-sdk/lib/tinyusb/src/class/cdc/cdc_device.c.obj
 *fill*         0x10005cd2        0x2 
 .text.tud_cdc_n_connected
                0x10005cd4       0x48 CMakeFiles/FreeRTOS_Blink.dir/E_/Pi_Pico/pico-sdk/lib/tinyusb/src/class/cdc/cdc_device.c.obj
                0x10005cd4                tud_cdc_n_connected
 .text.tud_cdc_n_available
                0x10005d1c       0x20 CMakeFiles/FreeRTOS_Blink.dir/E_/Pi_Pico/pico-sdk/lib/tinyusb/src/class/cdc/cdc_device.c.obj
                0x10005d1c                tud_cdc_n_available
 .text.tud_cdc_n_read
                0x10005d3c       0x30 CMakeFiles/FreeRTOS_Blink.dir/E_/Pi_Pico/pico-sdk/lib/tinyusb/src/class/cdc/cdc_device.c.obj
                0x10005d3c                tud_cdc_n_read
 .text.tud_cdc_n_write_flush
                0x10005d6c       0xc4 CMakeFiles/FreeRTOS_Blink.dir/E_/Pi_Pico/pico-sdk/lib/tinyusb/src/class/cdc/cdc_device.c.obj
                0x10005d6c                tud_cdc_n_write_flush
 .text.tud_cdc_n_write
                0x10005e30       0x38 CMakeFiles/FreeRTOS_Blink.dir/E_/Pi_Pico/pico-sdk/lib/tinyusb/src/class/cdc/cdc_device.c.obj
                0x10005e30                tud_cdc_n_write
 .text.tud_cdc_n_write_available
                0x10005e68       0x20 CMakeFiles/FreeRTOS_Blink.dir/E_/Pi_Pico/pico-sdk/lib/tinyusb/src/class/cdc/cdc_device.c.obj
                0x10005e68                tud_cdc_n_write_available
 .text.cdcd_init
                0x10005e88       0xdc CMakeFiles/FreeRTOS_Blink.dir/E_/Pi_Pico/pico-sdk/lib/tinyusb/src/class/cdc/cdc_device.c.obj
                0x10005e88                cdcd_init
 .text.cdcd_reset
                0x10005f64       0x44 CMakeFiles/FreeRTOS_Blink.dir/E_/Pi_Pico/pico-sdk/lib/tinyusb/src/class/cdc/cdc_device.c.obj
                0x10005f64                cdcd_reset
 .text.cdcd_open
                0x10005fa8      0x118 CMakeFiles/FreeRTOS_Blink.dir/E_/Pi_Pico/pico-sdk/lib/tinyusb/src/class/cdc/cdc_device.c.obj
                0x10005fa8                cdcd_open
 .text.cdcd_control_complete
                0x100060c0       0x60 CMakeFiles/FreeRTOS_Blink.dir/E_/Pi_Pico/pico-sdk/lib/tinyusb/src/class/cdc/cdc_device.c.obj
                0x100060c0                cdcd_control_complete
 .text.cdcd_control_request
                0x10006120       0x9c CMakeFiles/FreeRTOS_Blink.dir/E_/Pi_Pico/pico-sdk/lib/tinyusb/src/class/cdc/cdc_device.c.obj
                0x10006120                cdcd_control_request
 .text.cdcd_xfer_cb
                0x100061bc      0x130 CMakeFiles/FreeRTOS_Blink.dir/E_/Pi_Pico/pico-sdk/lib/tinyusb/src/class/cdc/cdc_device.c.obj
                0x100061bc                cdcd_xfer_cb
 .text.tusb_init
                0x100062ec       0x38 CMakeFiles/FreeRTOS_Blink.dir/E_/Pi_Pico/pico-sdk/lib/tinyusb/src/tusb.c.obj
                0x100062ec                tusb_init
 .text.tusb_inited
                0x10006324        0xc CMakeFiles/FreeRTOS_Blink.dir/E_/Pi_Pico/pico-sdk/lib/tinyusb/src/tusb.c.obj
                0x10006324                tusb_inited
 .text.advance_pointer
                0x10006330       0x1e CMakeFiles/FreeRTOS_Blink.dir/E_/Pi_Pico/pico-sdk/lib/tinyusb/src/common/tusb_fifo.c.obj
 .text.backward_pointer
                0x1000634e       0x1a CMakeFiles/FreeRTOS_Blink.dir/E_/Pi_Pico/pico-sdk/lib/tinyusb/src/common/tusb_fifo.c.obj
 .text.get_relative_pointer
                0x10006368       0x16 CMakeFiles/FreeRTOS_Blink.dir/E_/Pi_Pico/pico-sdk/lib/tinyusb/src/common/tusb_fifo.c.obj
 .text.tu_fifo_lock
                0x1000637e       0x12 CMakeFiles/FreeRTOS_Blink.dir/E_/Pi_Pico/pico-sdk/lib/tinyusb/src/common/tusb_fifo.c.obj
 .text.tu_fifo_unlock
                0x10006390        0xe CMakeFiles/FreeRTOS_Blink.dir/E_/Pi_Pico/pico-sdk/lib/tinyusb/src/common/tusb_fifo.c.obj
 .text._tu_fifo_peek_at
                0x1000639e       0x66 CMakeFiles/FreeRTOS_Blink.dir/E_/Pi_Pico/pico-sdk/lib/tinyusb/src/common/tusb_fifo.c.obj
 .text._ff_pull_n
                0x10006404       0x4a CMakeFiles/FreeRTOS_Blink.dir/E_/Pi_Pico/pico-sdk/lib/tinyusb/src/common/tusb_fifo.c.obj
 .text._tu_fifo_peek_at_n
                0x1000644e       0x72 CMakeFiles/FreeRTOS_Blink.dir/E_/Pi_Pico/pico-sdk/lib/tinyusb/src/common/tusb_fifo.c.obj
 .text._ff_push_n
                0x100064c0       0x4a CMakeFiles/FreeRTOS_Blink.dir/E_/Pi_Pico/pico-sdk/lib/tinyusb/src/common/tusb_fifo.c.obj
 .text.tu_fifo_config
                0x1000650a       0x48 CMakeFiles/FreeRTOS_Blink.dir/E_/Pi_Pico/pico-sdk/lib/tinyusb/src/common/tusb_fifo.c.obj
                0x1000650a                tu_fifo_config
 .text.tu_fifo_count
                0x10006552       0x1c CMakeFiles/FreeRTOS_Blink.dir/E_/Pi_Pico/pico-sdk/lib/tinyusb/src/common/tusb_fifo.c.obj
                0x10006552                tu_fifo_count
 .text.tu_fifo_remaining
                0x1000656e       0x20 CMakeFiles/FreeRTOS_Blink.dir/E_/Pi_Pico/pico-sdk/lib/tinyusb/src/common/tusb_fifo.c.obj
                0x1000656e                tu_fifo_remaining
 .text.tu_fifo_read
                0x1000658e       0x3a CMakeFiles/FreeRTOS_Blink.dir/E_/Pi_Pico/pico-sdk/lib/tinyusb/src/common/tusb_fifo.c.obj
                0x1000658e                tu_fifo_read
 .text.tu_fifo_read_n
                0x100065c8       0x3e CMakeFiles/FreeRTOS_Blink.dir/E_/Pi_Pico/pico-sdk/lib/tinyusb/src/common/tusb_fifo.c.obj
                0x100065c8                tu_fifo_read_n
 .text.tu_fifo_write
                0x10006606       0x5c CMakeFiles/FreeRTOS_Blink.dir/E_/Pi_Pico/pico-sdk/lib/tinyusb/src/common/tusb_fifo.c.obj
                0x10006606                tu_fifo_write
 .text.tu_fifo_write_n
                0x10006662       0x7c CMakeFiles/FreeRTOS_Blink.dir/E_/Pi_Pico/pico-sdk/lib/tinyusb/src/common/tusb_fifo.c.obj
                0x10006662                tu_fifo_write_n
 .text.tu_fifo_clear
                0x100066de       0x18 CMakeFiles/FreeRTOS_Blink.dir/E_/Pi_Pico/pico-sdk/lib/tinyusb/src/common/tusb_fifo.c.obj
                0x100066de                tu_fifo_clear
 *fill*         0x100066f6        0x2 
 .text          0x100066f8      0xfa4 libFreeRTOS.a(tasks.c.obj)
                0x100069a8                xTaskCreate
                0x10006a08                vTaskDelete
                0x10006a84                uxTaskPriorityGet
                0x10006aa4                uxTaskPriorityGetFromISR
                0x10006ac4                vTaskPrioritySet
                0x10006b78                vTaskResume
                0x10006be0                xTaskResumeFromISR
                0x10006c60                vTaskStartScheduler
                0x10006cbc                vTaskEndScheduler
                0x10006cd0                vTaskSuspendAll
                0x10006ce0                xTaskGetTickCount
                0x10006cec                xTaskGetTickCountFromISR
                0x10006cf8                uxTaskGetNumberOfTasks
                0x10006d04                pcTaskGetName
                0x10006d18                xTaskIncrementTick
                0x10006de8                xTaskResumeAll
                0x10006eb0                xTaskDelayUntil
                0x10006f10                vTaskDelay
                0x10006f30                xTaskCatchUpTicks
                0x10006f4c                vTaskSwitchContext
                0x10006fc4                vTaskSuspend
                0x10007068                vTaskPlaceOnEventList
                0x10007084                vTaskPlaceOnUnorderedEventList
                0x100070ac                vTaskPlaceOnEventListRestricted
                0x100070d4                xTaskRemoveFromEventList
                0x10007144                vTaskRemoveFromUnorderedEventList
                0x10007198                vTaskSetTimeOutState
                0x100071b4                vTaskInternalSetTimeOutState
                0x100071c4                xTaskCheckForTimeOut
                0x1000721c                vTaskMissedYield
                0x10007228                vTaskSetThreadLocalStoragePointer
                0x10007244                pvTaskGetThreadLocalStoragePointer
                0x10007264                xTaskGetCurrentTaskHandle
                0x10007270                xTaskGetSchedulerState
                0x10007290                uxTaskResetEventItemValue
                0x100072a8                ulTaskGenericNotifyTake
                0x10007334                xTaskGenericNotifyWait
                0x100073d4                xTaskGenericNotify
                0x100074a8                xTaskGenericNotifyFromISR
                0x100075a4                vTaskGenericNotifyGiveFromISR
                0x10007634                xTaskGenericNotifyStateClear
                0x1000766c                ulTaskGenericNotifyValueClear
 .text          0x1000769c      0x498 libFreeRTOS.a(timers.c.obj)
                0x1000778e                xTimerCreateTimerTask
                0x100077c8                xTimerCreate
                0x100077fc                xTimerGenericCommand
                0x10007a92                xTimerGetTimerDaemonTaskHandle
                0x10007a9c                xTimerGetPeriod
                0x10007aa0                vTimerSetReloadMode
                0x10007aca                uxTimerGetReloadMode
                0x10007ae8                xTimerGetExpiryTime
                0x10007aec                pcTimerGetName
                0x10007af0                xTimerIsTimerActive
                0x10007b0e                pvTimerGetTimerID
                0x10007b20                vTimerSetTimerID
 *fill*         0x10007b34        0xc 
 .text          0x10007b40      0x18c libFreeRTOS.a(port.c.obj)
                0x10007b84                pxPortInitialiseStack
                0x10007ba4                isr_svcall
                0x10007ba6                vPortEndScheduler
                0x10007ba8                vPortYield
                0x10007bc0                vPortEnterCritical
                0x10007bd8                vPortExitCritical
                0x10007bec                ulSetInterruptMaskFromISR
                0x10007bf4                vClearInterruptMaskFromISR
                0x10007bfa                isr_pendsv
                0x10007c44                isr_systick
                0x10007c68                vPortSetupTimerInterrupt
                0x10007c90                xPortStartScheduler
 .text          0x10007ccc      0x238 libFreeRTOS.a(heap_4.c.obj)
                0x10007d6c                pvPortMalloc
                0x10007e38                vPortFree
                0x10007e80                xPortGetFreeHeapSize
                0x10007e8c                xPortGetMinimumEverFreeHeapSize
                0x10007e98                vPortInitialiseBlocks
                0x10007e9a                vPortGetHeapStats
 .text          0x10007f04       0x86 libFreeRTOS.a(list.c.obj)
                0x10007f04                vListInitialise
                0x10007f1a                vListInitialiseItem
                0x10007f20                vListInsertEnd
                0x10007f36                vListInsert
                0x10007f64                uxListRemove
 *fill*         0x10007f8a        0x2 
 .text          0x10007f8c      0x82c libFreeRTOS.a(queue.c.obj)
                0x100080bc                xQueueGenericReset
                0x1000813e                xQueueGenericCreate
                0x1000816c                xQueueGenericSend
                0x1000825e                xQueueGenericSendFromISR
                0x100082d8                xQueueGiveFromISR
                0x1000833c                xQueueReceive
                0x1000842a                xQueueSemaphoreTake
                0x1000850e                xQueuePeek
                0x100085fc                xQueueReceiveFromISR
                0x1000866e                xQueuePeekFromISR
                0x1000869c                uxQueueMessagesWaiting
                0x100086ae                uxQueueSpacesAvailable
                0x100086c4                uxQueueMessagesWaitingFromISR
                0x100086c8                xQueueIsQueueEmptyFromISR
                0x100086d6                xQueueIsQueueFullFromISR
                0x100086e6                vQueueAddToRegistry
                0x1000870c                pcQueueGetName
                0x10008730                vQueueUnregisterQueue
                0x10008758                vQueueDelete
                0x10008768                vQueueWaitForMessageRestricted
 .text.calloc   0x100087b8       0x18 c:/progra~2/gnuarm~1/102020~1/bin/../lib/gcc/arm-none-eabi/10.2.1/../../../../arm-none-eabi/lib/thumb/v6-m/nofp\libg.a(lib_a-calloc.o)
                0x100087b8                calloc
 .text._calloc_r
                0x100087d0       0x5c c:/progra~2/gnuarm~1/102020~1/bin/../lib/gcc/arm-none-eabi/10.2.1/../../../../arm-none-eabi/lib/thumb/v6-m/nofp\libg.a(lib_a-callocr.o)
                0x100087d0                _calloc_r
 .text.malloc   0x1000882c       0x14 c:/progra~2/gnuarm~1/102020~1/bin/../lib/gcc/arm-none-eabi/10.2.1/../../../../arm-none-eabi/lib/thumb/v6-m/nofp\libg.a(lib_a-malloc.o)
                0x1000882c                malloc
 .text._malloc_r
                0x10008840      0x580 c:/progra~2/gnuarm~1/102020~1/bin/../lib/gcc/arm-none-eabi/10.2.1/../../../../arm-none-eabi/lib/thumb/v6-m/nofp\libg.a(lib_a-mallocr.o)
                0x10008840                _malloc_r
 .text.__malloc_lock
                0x10008dc0       0x10 c:/progra~2/gnuarm~1/102020~1/bin/../lib/gcc/arm-none-eabi/10.2.1/../../../../arm-none-eabi/lib/thumb/v6-m/nofp\libg.a(lib_a-mlock.o)
                0x10008dc0                __malloc_lock
 .text.__malloc_unlock
                0x10008dd0       0x10 c:/progra~2/gnuarm~1/102020~1/bin/../lib/gcc/arm-none-eabi/10.2.1/../../../../arm-none-eabi/lib/thumb/v6-m/nofp\libg.a(lib_a-mlock.o)
                0x10008dd0                __malloc_unlock
 .text._sbrk_r  0x10008de0       0x24 c:/progra~2/gnuarm~1/102020~1/bin/../lib/gcc/arm-none-eabi/10.2.1/../../../../arm-none-eabi/lib/thumb/v6-m/nofp\libg.a(lib_a-sbrkr.o)
                0x10008de0                _sbrk_r
 .text.strlen   0x10008e04       0x5c c:/progra~2/gnuarm~1/102020~1/bin/../lib/gcc/arm-none-eabi/10.2.1/../../../../arm-none-eabi/lib/thumb/v6-m/nofp\libg.a(lib_a-strlen-stub.o)
                0x10008e04                strlen
 .text._malloc_trim_r
                0x10008e60       0x9c c:/progra~2/gnuarm~1/102020~1/bin/../lib/gcc/arm-none-eabi/10.2.1/../../../../arm-none-eabi/lib/thumb/v6-m/nofp\libg.a(lib_a-freer.o)
                0x10008e60                _malloc_trim_r
 .text._free_r  0x10008efc      0x1c4 c:/progra~2/gnuarm~1/102020~1/bin/../lib/gcc/arm-none-eabi/10.2.1/../../../../arm-none-eabi/lib/thumb/v6-m/nofp\libg.a(lib_a-freer.o)
                0x10008efc                _free_r
 .text.__retarget_lock_acquire_recursive
                0x100090c0        0x4 c:/progra~2/gnuarm~1/102020~1/bin/../lib/gcc/arm-none-eabi/10.2.1/../../../../arm-none-eabi/lib/thumb/v6-m/nofp\libg.a(lib_a-lock.o)
                0x100090c0                __retarget_lock_acquire_recursive
 .text.__retarget_lock_release_recursive
                0x100090c4        0x4 c:/progra~2/gnuarm~1/102020~1/bin/../lib/gcc/arm-none-eabi/10.2.1/../../../../arm-none-eabi/lib/thumb/v6-m/nofp\libg.a(lib_a-lock.o)
                0x100090c4                __retarget_lock_release_recursive
 *(.fini)
 .fini          0x100090c8        0x4 c:/progra~2/gnuarm~1/102020~1/bin/../lib/gcc/arm-none-eabi/10.2.1/thumb/v6-m/nofp/crti.o
                0x100090c8                _fini
 *fill*         0x100090cc        0x4 
 .fini.__stub   0x100090d0       0x60 linker stubs
 *crtbegin.o(.ctors)
 *crtbegin?.o(.ctors)
 *(EXCLUDE_FILE(*crtend.o *crtend?.o) .ctors)
 *(SORT_BY_NAME(.ctors.*))
 *(.ctors)
 *crtbegin.o(.dtors)
 *crtbegin?.o(.dtors)
 *(EXCLUDE_FILE(*crtend.o *crtend?.o) .dtors)
 *(SORT_BY_NAME(.dtors.*))
 *(.dtors)
 *(.eh_frame*)
 .eh_frame      0x10009130        0x0 c:/progra~2/gnuarm~1/102020~1/bin/../lib/gcc/arm-none-eabi/10.2.1/thumb/v6-m/nofp/crtbegin.o
                0x10009130                . = ALIGN (0x4)

.glue_7         0x10009130        0x0
 .glue_7        0x10009130        0x0 linker stubs

.glue_7t        0x10009130        0x0
 .glue_7t       0x10009130        0x0 linker stubs

.vfp11_veneer   0x10009130        0x0
 .vfp11_veneer  0x10009130        0x0 linker stubs

.v4_bx          0x10009130        0x0
 .v4_bx         0x10009130        0x0 linker stubs

.iplt           0x10009130        0x0
 .iplt          0x10009130        0x0 c:/progra~2/gnuarm~1/102020~1/bin/../lib/gcc/arm-none-eabi/10.2.1/thumb/v6-m/nofp/crtbegin.o

.rodata         0x10009130     0x1364
 *(EXCLUDE_FILE(*libm.a: *libc.a:*lib_a-mem*.o *libgcc.a:) .rodata*)
 .rodata.main.str1.4
                0x10009130       0x20 CMakeFiles/FreeRTOS_Blink.dir/src/main.c.obj
 .rodata.spin_lock_claim_unused.str1.4
                0x10009150       0x1b CMakeFiles/FreeRTOS_Blink.dir/E_/Pi_Pico/pico-sdk/src/rp2_common/hardware_sync/sync.c.obj
 *fill*         0x1000916b        0x1 
 .rodata.alarm_pool_dump_key.str1.4
                0x1000916c       0x63 CMakeFiles/FreeRTOS_Blink.dir/E_/Pi_Pico/pico-sdk/src/common/pico_time/time.c.obj
 *fill*         0x100091cf        0x1 
 .rodata.ph_add_child_node.str1.4
                0x100091d0       0x8e CMakeFiles/FreeRTOS_Blink.dir/E_/Pi_Pico/pico-sdk/src/common/pico_time/time.c.obj
 *fill*         0x1000925e        0x2 
 .rodata.add_alarm_under_lock.str1.4
                0x10009260       0x27 CMakeFiles/FreeRTOS_Blink.dir/E_/Pi_Pico/pico-sdk/src/common/pico_time/time.c.obj
 *fill*         0x10009287        0x1 
 .rodata.alarm_pool_alarm_callback.str1.4
                0x10009288       0x7d CMakeFiles/FreeRTOS_Blink.dir/E_/Pi_Pico/pico-sdk/src/common/pico_time/time.c.obj
 *fill*         0x10009305        0x3 
 .rodata.alarm_pool_get_default.str1.4
                0x10009308       0x13 CMakeFiles/FreeRTOS_Blink.dir/E_/Pi_Pico/pico-sdk/src/common/pico_time/time.c.obj
 *fill*         0x1000931b        0x1 
 .rodata.alarm_pool_cancel_alarm.str1.4
                0x1000931c       0x27 CMakeFiles/FreeRTOS_Blink.dir/E_/Pi_Pico/pico-sdk/src/common/pico_time/time.c.obj
 *fill*         0x10009343        0x1 
 .rodata.__func__.0
                0x10009344       0x18 CMakeFiles/FreeRTOS_Blink.dir/E_/Pi_Pico/pico-sdk/src/common/pico_time/time.c.obj
 .rodata.__func__.10
                0x1000935c       0x17 CMakeFiles/FreeRTOS_Blink.dir/E_/Pi_Pico/pico-sdk/src/common/pico_time/time.c.obj
 *fill*         0x10009373        0x1 
 .rodata.__func__.2
                0x10009374       0x12 CMakeFiles/FreeRTOS_Blink.dir/E_/Pi_Pico/pico-sdk/src/common/pico_time/time.c.obj
 *fill*         0x10009386        0x2 
 .rodata.__func__.3
                0x10009388       0x14 CMakeFiles/FreeRTOS_Blink.dir/E_/Pi_Pico/pico-sdk/src/common/pico_time/time.c.obj
 .rodata.__func__.4
                0x1000939c       0x12 CMakeFiles/FreeRTOS_Blink.dir/E_/Pi_Pico/pico-sdk/src/common/pico_time/time.c.obj
 *fill*         0x100093ae        0x2 
 .rodata.__func__.5
                0x100093b0        0xa CMakeFiles/FreeRTOS_Blink.dir/E_/Pi_Pico/pico-sdk/src/common/pico_time/time.c.obj
 *fill*         0x100093ba        0x2 
 .rodata.__func__.6
                0x100093bc        0xc CMakeFiles/FreeRTOS_Blink.dir/E_/Pi_Pico/pico-sdk/src/common/pico_time/time.c.obj
 .rodata.__func__.7
                0x100093c8       0x15 CMakeFiles/FreeRTOS_Blink.dir/E_/Pi_Pico/pico-sdk/src/common/pico_time/time.c.obj
 *fill*         0x100093dd        0x3 
 .rodata.__func__.8
                0x100093e0       0x1a CMakeFiles/FreeRTOS_Blink.dir/E_/Pi_Pico/pico-sdk/src/common/pico_time/time.c.obj
 *fill*         0x100093fa        0x2 
 .rodata.__func__.9
                0x100093fc        0xa CMakeFiles/FreeRTOS_Blink.dir/E_/Pi_Pico/pico-sdk/src/common/pico_time/time.c.obj
 *fill*         0x10009406        0x2 
 .rodata.hardware_alarm_claim.str1.4
                0x10009408       0x22 CMakeFiles/FreeRTOS_Blink.dir/E_/Pi_Pico/pico-sdk/src/rp2_common/hardware_timer/timer.c.obj
 *fill*         0x1000942a        0x2 
 .rodata.hardware_alarm_set_target.str1.4
                0x1000942c       0x5e CMakeFiles/FreeRTOS_Blink.dir/E_/Pi_Pico/pico-sdk/src/rp2_common/hardware_timer/timer.c.obj
 *fill*         0x1000948a        0x2 
 .rodata.__func__.0
                0x1000948c       0x1a CMakeFiles/FreeRTOS_Blink.dir/E_/Pi_Pico/pico-sdk/src/rp2_common/hardware_timer/timer.c.obj
 *fill*         0x100094a6        0x2 
 .rodata.lock_init.str1.4
                0x100094a8       0x61 CMakeFiles/FreeRTOS_Blink.dir/E_/Pi_Pico/pico-sdk/src/common/pico_sync/lock_core.c.obj
 *fill*         0x10009509        0x3 
 .rodata.__func__.0
                0x1000950c        0xa CMakeFiles/FreeRTOS_Blink.dir/E_/Pi_Pico/pico-sdk/src/common/pico_sync/lock_core.c.obj
 *fill*         0x10009516        0x2 
 .rodata.str1.4
                0x10009518       0x58 CMakeFiles/FreeRTOS_Blink.dir/E_/Pi_Pico/pico-sdk/src/common/pico_sync/mutex.c.obj
 .rodata.__func__.0
                0x10009570        0xb CMakeFiles/FreeRTOS_Blink.dir/E_/Pi_Pico/pico-sdk/src/common/pico_sync/mutex.c.obj
 *fill*         0x1000957b        0x1 
 .rodata.__func__.1
                0x1000957c       0x18 CMakeFiles/FreeRTOS_Blink.dir/E_/Pi_Pico/pico-sdk/src/common/pico_sync/mutex.c.obj
 .rodata.__func__.2
                0x10009594       0x15 CMakeFiles/FreeRTOS_Blink.dir/E_/Pi_Pico/pico-sdk/src/common/pico_sync/mutex.c.obj
 .rodata.ph_add_child_node.str1.4
                0x100095a9       0x8e CMakeFiles/FreeRTOS_Blink.dir/E_/Pi_Pico/pico-sdk/src/common/pico_util/pheap.c.obj
 *fill*         0x100095a9        0x3 
 .rodata.ph_remove_any_head.str1.4
                0x100095ac       0x88 CMakeFiles/FreeRTOS_Blink.dir/E_/Pi_Pico/pico-sdk/src/common/pico_util/pheap.c.obj
 .rodata.ph_delete.str1.4
                0x10009634       0x26 CMakeFiles/FreeRTOS_Blink.dir/E_/Pi_Pico/pico-sdk/src/common/pico_util/pheap.c.obj
 *fill*         0x1000965a        0x2 
 .rodata.__func__.0
                0x1000965c        0xa CMakeFiles/FreeRTOS_Blink.dir/E_/Pi_Pico/pico-sdk/src/common/pico_util/pheap.c.obj
 *fill*         0x10009666        0x2 
 .rodata.__func__.1
                0x10009668       0x13 CMakeFiles/FreeRTOS_Blink.dir/E_/Pi_Pico/pico-sdk/src/common/pico_util/pheap.c.obj
 *fill*         0x1000967b        0x1 
 .rodata.__func__.2
                0x1000967c       0x12 CMakeFiles/FreeRTOS_Blink.dir/E_/Pi_Pico/pico-sdk/src/common/pico_util/pheap.c.obj
 *fill*         0x1000968e        0x2 
 .rodata.__func__.3
                0x10009690        0xc CMakeFiles/FreeRTOS_Blink.dir/E_/Pi_Pico/pico-sdk/src/common/pico_util/pheap.c.obj
 .rodata.__assert_func.str1.4
                0x1000969c       0x3f CMakeFiles/FreeRTOS_Blink.dir/E_/Pi_Pico/pico-sdk/src/rp2_common/pico_runtime/runtime.c.obj
                                 0x43 (size before relaxing)
 *fill*         0x100096db        0x1 
 .rodata.panic.str1.4
                0x100096dc       0x12 CMakeFiles/FreeRTOS_Blink.dir/E_/Pi_Pico/pico-sdk/src/rp2_common/pico_runtime/runtime.c.obj
 *fill*         0x100096ee        0x2 
 .rodata.clock_configure.str1.4
                0x100096f0       0x50 CMakeFiles/FreeRTOS_Blink.dir/E_/Pi_Pico/pico-sdk/src/rp2_common/hardware_clocks/clocks.c.obj
 .rodata.__func__.1
                0x10009740       0x10 CMakeFiles/FreeRTOS_Blink.dir/E_/Pi_Pico/pico-sdk/src/rp2_common/hardware_clocks/clocks.c.obj
 .rodata.pll_init.str1.4
                0x10009750       0xd3 CMakeFiles/FreeRTOS_Blink.dir/E_/Pi_Pico/pico-sdk/src/rp2_common/hardware_pll/pll.c.obj
 *fill*         0x10009823        0x1 
 .rodata.__func__.0
                0x10009824        0x9 CMakeFiles/FreeRTOS_Blink.dir/E_/Pi_Pico/pico-sdk/src/rp2_common/hardware_pll/pll.c.obj
 *fill*         0x1000982d        0x3 
 .rodata.make_branch.str1.4
                0x10009830       0x46 CMakeFiles/FreeRTOS_Blink.dir/E_/Pi_Pico/pico-sdk/src/rp2_common/hardware_irq/irq.c.obj
 *fill*         0x10009876        0x2 
 .rodata.irq_set_exclusive_handler.str1.4
                0x10009878       0x36 CMakeFiles/FreeRTOS_Blink.dir/E_/Pi_Pico/pico-sdk/src/rp2_common/hardware_irq/irq.c.obj
 *fill*         0x100098ae        0x2 
 .rodata.irq_add_shared_handler.str1.4
                0x100098b0       0xd9 CMakeFiles/FreeRTOS_Blink.dir/E_/Pi_Pico/pico-sdk/src/rp2_common/hardware_irq/irq.c.obj
 *fill*         0x10009989        0x3 
 .rodata.irq_remove_handler.str1.4
                0x1000998c       0x2a CMakeFiles/FreeRTOS_Blink.dir/E_/Pi_Pico/pico-sdk/src/rp2_common/hardware_irq/irq.c.obj
 *fill*         0x100099b6        0x2 
 .rodata.irq_add_tail_to_free_list.str1.4
                0x100099b8       0x32 CMakeFiles/FreeRTOS_Blink.dir/E_/Pi_Pico/pico-sdk/src/rp2_common/hardware_irq/irq.c.obj
                                 0x3a (size before relaxing)
 *fill*         0x100099ea        0x2 
 .rodata.__func__.0
                0x100099ec       0x1a CMakeFiles/FreeRTOS_Blink.dir/E_/Pi_Pico/pico-sdk/src/rp2_common/hardware_irq/irq.c.obj
 *fill*         0x10009a06        0x2 
 .rodata.__func__.1
                0x10009a08       0x17 CMakeFiles/FreeRTOS_Blink.dir/E_/Pi_Pico/pico-sdk/src/rp2_common/hardware_irq/irq.c.obj
 *fill*         0x10009a1f        0x1 
 .rodata.__func__.2
                0x10009a20       0x13 CMakeFiles/FreeRTOS_Blink.dir/E_/Pi_Pico/pico-sdk/src/rp2_common/hardware_irq/irq.c.obj
 *fill*         0x10009a33        0x1 
 .rodata.__func__.3
                0x10009a34        0xc CMakeFiles/FreeRTOS_Blink.dir/E_/Pi_Pico/pico-sdk/src/rp2_common/hardware_irq/irq.c.obj
 .rodata.__func__.4
                0x10009a40        0xf CMakeFiles/FreeRTOS_Blink.dir/E_/Pi_Pico/pico-sdk/src/rp2_common/hardware_irq/irq.c.obj
 *fill*         0x10009a4f        0x1 
 .rodata.__func__.6
                0x10009a50       0x1a CMakeFiles/FreeRTOS_Blink.dir/E_/Pi_Pico/pico-sdk/src/rp2_common/hardware_irq/irq.c.obj
 *fill*         0x10009a6a        0x2 
 .rodata._ftoa.str1.4
                0x10009a6c       0x15 CMakeFiles/FreeRTOS_Blink.dir/E_/Pi_Pico/pico-sdk/src/rp2_common/pico_printf/printf.c.obj
 *fill*         0x10009a81        0x3 
 .rodata._vsnprintf
                0x10009a84      0x1e0 CMakeFiles/FreeRTOS_Blink.dir/E_/Pi_Pico/pico-sdk/src/rp2_common/pico_printf/printf.c.obj
 *fill*         0x10009c64        0x4 
 .rodata.pow10.0
                0x10009c68       0x50 CMakeFiles/FreeRTOS_Blink.dir/E_/Pi_Pico/pico-sdk/src/rp2_common/pico_printf/printf.c.obj
 .rodata.__aeabi_double_init.str1.4
                0x10009cb8       0xa1 CMakeFiles/FreeRTOS_Blink.dir/E_/Pi_Pico/pico-sdk/src/rp2_common/pico_double/double_init_rom.c.obj
 *fill*         0x10009d59        0x3 
 .rodata.__func__.0
                0x10009d5c       0x14 CMakeFiles/FreeRTOS_Blink.dir/E_/Pi_Pico/pico-sdk/src/rp2_common/pico_double/double_init_rom.c.obj
 .rodata.__aeabi_float_init.str1.4
                0x10009d70       0x73 CMakeFiles/FreeRTOS_Blink.dir/E_/Pi_Pico/pico-sdk/src/rp2_common/pico_float/float_init_rom.c.obj
                                 0x77 (size before relaxing)
 *fill*         0x10009de3        0x1 
 .rodata.__func__.0
                0x10009de4       0x13 CMakeFiles/FreeRTOS_Blink.dir/E_/Pi_Pico/pico-sdk/src/rp2_common/pico_float/float_init_rom.c.obj
 *fill*         0x10009df7        0x1 
 .rodata.str1.4
                0x10009df8       0x34 CMakeFiles/FreeRTOS_Blink.dir/E_/Pi_Pico/pico-sdk/src/rp2_common/pico_standard_link/binary_info.c.obj
 .rodata.__bi_40
                0x10009e2c        0xc CMakeFiles/FreeRTOS_Blink.dir/E_/Pi_Pico/pico-sdk/src/rp2_common/pico_standard_link/binary_info.c.obj
 .rodata.__bi_71
                0x10009e38        0xc CMakeFiles/FreeRTOS_Blink.dir/E_/Pi_Pico/pico-sdk/src/rp2_common/pico_standard_link/binary_info.c.obj
 .rodata.crlf_str.1
                0x10009e44        0x2 CMakeFiles/FreeRTOS_Blink.dir/E_/Pi_Pico/pico-sdk/src/rp2_common/pico_stdio/stdio.c.obj
 *fill*         0x10009e46        0x2 
 .rodata.str1.4
                0x10009e48       0x13 CMakeFiles/FreeRTOS_Blink.dir/E_/Pi_Pico/pico-sdk/src/rp2_common/pico_stdio_usb/stdio_usb.c.obj
 *fill*         0x10009e5b        0x1 
 .rodata.__bi_93.0
                0x10009e5c        0xc CMakeFiles/FreeRTOS_Blink.dir/E_/Pi_Pico/pico-sdk/src/rp2_common/pico_stdio_usb/stdio_usb.c.obj
 .rodata.str1.4
                0x10009e68       0x32 CMakeFiles/FreeRTOS_Blink.dir/E_/Pi_Pico/pico-sdk/src/rp2_common/pico_stdio_usb/stdio_usb_descriptors.c.obj
 *fill*         0x10009e9a        0x2 
 .rodata.usbd_desc_cfg
                0x10009e9c       0x4b CMakeFiles/FreeRTOS_Blink.dir/E_/Pi_Pico/pico-sdk/src/rp2_common/pico_stdio_usb/stdio_usb_descriptors.c.obj
 *fill*         0x10009ee7        0x1 
 .rodata.usbd_desc_device
                0x10009ee8       0x12 CMakeFiles/FreeRTOS_Blink.dir/E_/Pi_Pico/pico-sdk/src/rp2_common/pico_stdio_usb/stdio_usb_descriptors.c.obj
 *fill*         0x10009efa        0x2 
 .rodata.usbd_desc_str
                0x10009efc       0x14 CMakeFiles/FreeRTOS_Blink.dir/E_/Pi_Pico/pico-sdk/src/rp2_common/pico_stdio_usb/stdio_usb_descriptors.c.obj
 .rodata._hw_endpoint_alloc.str1.4
                0x10009f10       0xb1 CMakeFiles/FreeRTOS_Blink.dir/E_/Pi_Pico/pico-sdk/lib/tinyusb/src/portable/raspberrypi/rp2040/dcd_rp2040.c.obj
 *fill*         0x10009fc1        0x3 
 .rodata._hw_endpoint_init.str1.4
                0x10009fc4       0x28 CMakeFiles/FreeRTOS_Blink.dir/E_/Pi_Pico/pico-sdk/lib/tinyusb/src/portable/raspberrypi/rp2040/dcd_rp2040.c.obj
 .rodata.hw_handle_buff_status.str1.4
                0x10009fec        0xb CMakeFiles/FreeRTOS_Blink.dir/E_/Pi_Pico/pico-sdk/lib/tinyusb/src/portable/raspberrypi/rp2040/dcd_rp2040.c.obj
 *fill*         0x10009ff7        0x1 
 .rodata.dcd_rp2040_irq.str1.4
                0x10009ff8       0x14 CMakeFiles/FreeRTOS_Blink.dir/E_/Pi_Pico/pico-sdk/lib/tinyusb/src/portable/raspberrypi/rp2040/dcd_rp2040.c.obj
 .rodata._hw_endpoint_stall.str1.4
                0x1000a00c        0xd CMakeFiles/FreeRTOS_Blink.dir/E_/Pi_Pico/pico-sdk/lib/tinyusb/src/portable/raspberrypi/rp2040/dcd_rp2040.c.obj
 *fill*         0x1000a019        0x3 
 .rodata.dcd_int_enable.str1.4
                0x1000a01c        0xc CMakeFiles/FreeRTOS_Blink.dir/E_/Pi_Pico/pico-sdk/lib/tinyusb/src/portable/raspberrypi/rp2040/dcd_rp2040.c.obj
 .rodata.__func__.0
                0x1000a028       0x15 CMakeFiles/FreeRTOS_Blink.dir/E_/Pi_Pico/pico-sdk/lib/tinyusb/src/portable/raspberrypi/rp2040/dcd_rp2040.c.obj
 *fill*         0x1000a03d        0x3 
 .rodata.__func__.1
                0x1000a040       0x13 CMakeFiles/FreeRTOS_Blink.dir/E_/Pi_Pico/pico-sdk/lib/tinyusb/src/portable/raspberrypi/rp2040/dcd_rp2040.c.obj
 *fill*         0x1000a053        0x1 
 .rodata.__func__.10
                0x1000a054        0xf CMakeFiles/FreeRTOS_Blink.dir/E_/Pi_Pico/pico-sdk/lib/tinyusb/src/portable/raspberrypi/rp2040/dcd_rp2040.c.obj
 *fill*         0x1000a063        0x1 
 .rodata.__func__.11
                0x1000a064       0x13 CMakeFiles/FreeRTOS_Blink.dir/E_/Pi_Pico/pico-sdk/lib/tinyusb/src/portable/raspberrypi/rp2040/dcd_rp2040.c.obj
 *fill*         0x1000a077        0x1 
 .rodata.__func__.12
                0x1000a078       0x16 CMakeFiles/FreeRTOS_Blink.dir/E_/Pi_Pico/pico-sdk/lib/tinyusb/src/portable/raspberrypi/rp2040/dcd_rp2040.c.obj
 *fill*         0x1000a08e        0x2 
 .rodata.__func__.13
                0x1000a090        0x9 CMakeFiles/FreeRTOS_Blink.dir/E_/Pi_Pico/pico-sdk/lib/tinyusb/src/portable/raspberrypi/rp2040/dcd_rp2040.c.obj
 *fill*         0x1000a099        0x3 
 .rodata.__func__.2
                0x1000a09c        0xf CMakeFiles/FreeRTOS_Blink.dir/E_/Pi_Pico/pico-sdk/lib/tinyusb/src/portable/raspberrypi/rp2040/dcd_rp2040.c.obj
 *fill*         0x1000a0ab        0x1 
 .rodata.__func__.3
                0x1000a0ac        0xe CMakeFiles/FreeRTOS_Blink.dir/E_/Pi_Pico/pico-sdk/lib/tinyusb/src/portable/raspberrypi/rp2040/dcd_rp2040.c.obj
 *fill*         0x1000a0ba        0x2 
 .rodata.__func__.4
                0x1000a0bc        0xe CMakeFiles/FreeRTOS_Blink.dir/E_/Pi_Pico/pico-sdk/lib/tinyusb/src/portable/raspberrypi/rp2040/dcd_rp2040.c.obj
 *fill*         0x1000a0ca        0x2 
 .rodata.__func__.5
                0x1000a0cc       0x1a CMakeFiles/FreeRTOS_Blink.dir/E_/Pi_Pico/pico-sdk/lib/tinyusb/src/portable/raspberrypi/rp2040/dcd_rp2040.c.obj
 *fill*         0x1000a0e6        0x2 
 .rodata.__func__.6
                0x1000a0e8        0xc CMakeFiles/FreeRTOS_Blink.dir/E_/Pi_Pico/pico-sdk/lib/tinyusb/src/portable/raspberrypi/rp2040/dcd_rp2040.c.obj
 .rodata.__func__.8
                0x1000a0f4       0x10 CMakeFiles/FreeRTOS_Blink.dir/E_/Pi_Pico/pico-sdk/lib/tinyusb/src/portable/raspberrypi/rp2040/dcd_rp2040.c.obj
 .rodata._hw_endpoint_buffer_control_update32.str1.4
                0x1000a104       0x1f CMakeFiles/FreeRTOS_Blink.dir/E_/Pi_Pico/pico-sdk/lib/tinyusb/src/portable/raspberrypi/rp2040/rp2040_usb.c.obj
 *fill*         0x1000a123        0x1 
 .rodata._hw_endpoint_xfer_sync.str1.4
                0x1000a124       0x8d CMakeFiles/FreeRTOS_Blink.dir/E_/Pi_Pico/pico-sdk/lib/tinyusb/src/portable/raspberrypi/rp2040/rp2040_usb.c.obj
 *fill*         0x1000a1b1        0x3 
 .rodata._hw_endpoint_xfer_continue.str1.4
                0x1000a1b4       0x50 CMakeFiles/FreeRTOS_Blink.dir/E_/Pi_Pico/pico-sdk/lib/tinyusb/src/portable/raspberrypi/rp2040/rp2040_usb.c.obj
 .rodata._hw_endpoint_xfer.str1.4
                0x1000a204        0xf CMakeFiles/FreeRTOS_Blink.dir/E_/Pi_Pico/pico-sdk/lib/tinyusb/src/portable/raspberrypi/rp2040/rp2040_usb.c.obj
 *fill*         0x1000a213        0x1 
 .rodata.str1.4
                0x1000a214        0x7 CMakeFiles/FreeRTOS_Blink.dir/E_/Pi_Pico/pico-sdk/lib/tinyusb/src/portable/raspberrypi/rp2040/rp2040_usb.c.obj
 *fill*         0x1000a21b        0x1 
 .rodata.__func__.0
                0x1000a21c       0x12 CMakeFiles/FreeRTOS_Blink.dir/E_/Pi_Pico/pico-sdk/lib/tinyusb/src/portable/raspberrypi/rp2040/rp2040_usb.c.obj
 *fill*         0x1000a22e        0x2 
 .rodata.__func__.1
                0x1000a230       0x17 CMakeFiles/FreeRTOS_Blink.dir/E_/Pi_Pico/pico-sdk/lib/tinyusb/src/portable/raspberrypi/rp2040/rp2040_usb.c.obj
 *fill*         0x1000a247        0x1 
 .rodata.process_set_config.str1.4
                0x1000a248       0x17 CMakeFiles/FreeRTOS_Blink.dir/E_/Pi_Pico/pico-sdk/lib/tinyusb/src/device/usbd.c.obj
 *fill*         0x1000a25f        0x1 
 .rodata.process_get_descriptor
                0x1000a260       0x40 CMakeFiles/FreeRTOS_Blink.dir/E_/Pi_Pico/pico-sdk/lib/tinyusb/src/device/usbd.c.obj
 .rodata.dcd_event_handler.str1.4
                0x1000a2a0       0x45 CMakeFiles/FreeRTOS_Blink.dir/E_/Pi_Pico/pico-sdk/lib/tinyusb/src/device/usbd.c.obj
 *fill*         0x1000a2e5        0x3 
 .rodata.process_control_request
                0x1000a2e8       0x28 CMakeFiles/FreeRTOS_Blink.dir/E_/Pi_Pico/pico-sdk/lib/tinyusb/src/device/usbd.c.obj
 .rodata.tud_task
                0x1000a310       0x24 CMakeFiles/FreeRTOS_Blink.dir/E_/Pi_Pico/pico-sdk/lib/tinyusb/src/device/usbd.c.obj
 .rodata.__func__.1
                0x1000a334        0xf CMakeFiles/FreeRTOS_Blink.dir/E_/Pi_Pico/pico-sdk/lib/tinyusb/src/device/usbd.c.obj
 *fill*         0x1000a343        0x1 
 .rodata.__func__.2
                0x1000a344       0x14 CMakeFiles/FreeRTOS_Blink.dir/E_/Pi_Pico/pico-sdk/lib/tinyusb/src/device/usbd.c.obj
 .rodata.__func__.3
                0x1000a358       0x10 CMakeFiles/FreeRTOS_Blink.dir/E_/Pi_Pico/pico-sdk/lib/tinyusb/src/device/usbd.c.obj
 .rodata.__func__.4
                0x1000a368       0x17 CMakeFiles/FreeRTOS_Blink.dir/E_/Pi_Pico/pico-sdk/lib/tinyusb/src/device/usbd.c.obj
 *fill*         0x1000a37f        0x1 
 .rodata.__func__.5
                0x1000a380       0x13 CMakeFiles/FreeRTOS_Blink.dir/E_/Pi_Pico/pico-sdk/lib/tinyusb/src/device/usbd.c.obj
 *fill*         0x1000a393        0x1 
 .rodata.__func__.6
                0x1000a394       0x18 CMakeFiles/FreeRTOS_Blink.dir/E_/Pi_Pico/pico-sdk/lib/tinyusb/src/device/usbd.c.obj
 .rodata.__func__.7
                0x1000a3ac       0x13 CMakeFiles/FreeRTOS_Blink.dir/E_/Pi_Pico/pico-sdk/lib/tinyusb/src/device/usbd.c.obj
 *fill*         0x1000a3bf        0x1 
 .rodata.__func__.8
                0x1000a3c0        0x9 CMakeFiles/FreeRTOS_Blink.dir/E_/Pi_Pico/pico-sdk/lib/tinyusb/src/device/usbd.c.obj
 *fill*         0x1000a3c9        0x3 
 .rodata._usbd_driver
                0x1000a3cc       0x1c CMakeFiles/FreeRTOS_Blink.dir/E_/Pi_Pico/pico-sdk/lib/tinyusb/src/device/usbd.c.obj
 .rodata.tud_control_xfer.str1.4
                0x1000a3e8       0x17 CMakeFiles/FreeRTOS_Blink.dir/E_/Pi_Pico/pico-sdk/lib/tinyusb/src/device/usbd_control.c.obj
 .rodata.__func__.0
                0x1000a3e8       0x15 CMakeFiles/FreeRTOS_Blink.dir/E_/Pi_Pico/pico-sdk/lib/tinyusb/src/device/usbd_control.c.obj
 *fill*         0x1000a3fd        0x3 
 .rodata.__func__.1
                0x1000a400       0x11 CMakeFiles/FreeRTOS_Blink.dir/E_/Pi_Pico/pico-sdk/lib/tinyusb/src/device/usbd_control.c.obj
 .rodata.tud_cdc_n_write_flush.str1.4
                0x1000a411       0x17 CMakeFiles/FreeRTOS_Blink.dir/E_/Pi_Pico/pico-sdk/lib/tinyusb/src/class/cdc/cdc_device.c.obj
 *fill*         0x1000a411        0x3 
 .rodata.__func__.0
                0x1000a414        0xd CMakeFiles/FreeRTOS_Blink.dir/E_/Pi_Pico/pico-sdk/lib/tinyusb/src/class/cdc/cdc_device.c.obj
 *fill*         0x1000a421        0x3 
 .rodata.__func__.1
                0x1000a424        0xa CMakeFiles/FreeRTOS_Blink.dir/E_/Pi_Pico/pico-sdk/lib/tinyusb/src/class/cdc/cdc_device.c.obj
 *fill*         0x1000a42e        0x2 
 .rodata.__func__.2
                0x1000a430       0x16 CMakeFiles/FreeRTOS_Blink.dir/E_/Pi_Pico/pico-sdk/lib/tinyusb/src/class/cdc/cdc_device.c.obj
 .rodata.tusb_init.str1.4
                0x1000a446       0x17 CMakeFiles/FreeRTOS_Blink.dir/E_/Pi_Pico/pico-sdk/lib/tinyusb/src/tusb.c.obj
 *fill*         0x1000a446        0x2 
 .rodata.__func__.0
                0x1000a448        0xa CMakeFiles/FreeRTOS_Blink.dir/E_/Pi_Pico/pico-sdk/lib/tinyusb/src/tusb.c.obj
 *fill*         0x1000a452        0x2 
 .rodata.str1.4
                0x1000a454        0x5 libFreeRTOS.a(tasks.c.obj)
 *fill*         0x1000a459        0x3 
 .rodata.str1.4
                0x1000a45c       0x10 libFreeRTOS.a(timers.c.obj)
 .rodata        0x1000a46c       0x28 libFreeRTOS.a(timers.c.obj)
                0x1000a494                . = ALIGN (0x4)
 *(SORT_BY_ALIGNMENT(SORT_BY_NAME(.flashdata*)))
                0x1000a494                . = ALIGN (0x4)

.rel.dyn        0x1000a494        0x0
 .rel.iplt      0x1000a494        0x0 c:/progra~2/gnuarm~1/102020~1/bin/../lib/gcc/arm-none-eabi/10.2.1/thumb/v6-m/nofp/crtbegin.o

.ARM.extab
 *(.ARM.extab* .gnu.linkonce.armextab.*)
                0x1000a494                __exidx_start = .

.ARM.exidx
 *(.ARM.exidx* .gnu.linkonce.armexidx.*)
                0x1000a494                __exidx_end = .
                0x1000a494                . = ALIGN (0x4)
                0x1000a494                __binary_info_start = .

.binary_info    0x1000a494       0x1c
 *(.binary_info.keep.*)
 .binary_info.keep.__bi_ptr18
                0x1000a494        0x4 CMakeFiles/FreeRTOS_Blink.dir/E_/Pi_Pico/pico-sdk/src/rp2_common/pico_standard_link/binary_info.c.obj
 .binary_info.keep.__bi_ptr26
                0x1000a498        0x4 CMakeFiles/FreeRTOS_Blink.dir/E_/Pi_Pico/pico-sdk/src/rp2_common/pico_standard_link/binary_info.c.obj
 .binary_info.keep.__bi_ptr34
                0x1000a49c        0x4 CMakeFiles/FreeRTOS_Blink.dir/E_/Pi_Pico/pico-sdk/src/rp2_common/pico_standard_link/binary_info.c.obj
 .binary_info.keep.__bi_ptr40
                0x1000a4a0        0x4 CMakeFiles/FreeRTOS_Blink.dir/E_/Pi_Pico/pico-sdk/src/rp2_common/pico_standard_link/binary_info.c.obj
 .binary_info.keep.__bi_ptr46
                0x1000a4a4        0x4 CMakeFiles/FreeRTOS_Blink.dir/E_/Pi_Pico/pico-sdk/src/rp2_common/pico_standard_link/binary_info.c.obj
 .binary_info.keep.__bi_ptr71
                0x1000a4a8        0x4 CMakeFiles/FreeRTOS_Blink.dir/E_/Pi_Pico/pico-sdk/src/rp2_common/pico_standard_link/binary_info.c.obj
 *(.binary_info.*)
 .binary_info.__bi_ptr93
                0x1000a4ac        0x4 CMakeFiles/FreeRTOS_Blink.dir/E_/Pi_Pico/pico-sdk/src/rp2_common/pico_stdio_usb/stdio_usb.c.obj
                0x1000a4b0                __binary_info_end = .
                0x1000a4b0                . = ALIGN (0x4)
                0x1000a4b0                __etext = .

.ram_vector_table
                0x20000000       0xc0
 *(.ram_vector_table)
 .ram_vector_table
                0x20000000       0xc0 CMakeFiles/FreeRTOS_Blink.dir/E_/Pi_Pico/pico-sdk/src/rp2_common/pico_runtime/runtime.c.obj
                0x20000000                ram_vector_table

.data           0x200000c0      0xb0c load address 0x1000a4b0
                0x200000c0                __data_start__ = .
 *(vtable)
 *(.time_critical*)
 .time_critical.mutex_enter_blocking
                0x200000c0       0x64 CMakeFiles/FreeRTOS_Blink.dir/E_/Pi_Pico/pico-sdk/src/common/pico_sync/mutex.c.obj
                0x200000c0                mutex_enter_blocking
 .time_critical.mutex_try_enter
                0x20000124       0x44 CMakeFiles/FreeRTOS_Blink.dir/E_/Pi_Pico/pico-sdk/src/common/pico_sync/mutex.c.obj
                0x20000124                mutex_try_enter
 .time_critical.mutex_enter_block_until
                0x20000168       0x78 CMakeFiles/FreeRTOS_Blink.dir/E_/Pi_Pico/pico-sdk/src/common/pico_sync/mutex.c.obj
                0x20000168                mutex_enter_block_until
 .time_critical.mutex_enter_timeout_ms
                0x200001e0       0x4a CMakeFiles/FreeRTOS_Blink.dir/E_/Pi_Pico/pico-sdk/src/common/pico_sync/mutex.c.obj
                0x200001e0                mutex_enter_timeout_ms
 *fill*         0x2000022a        0x2 
 .time_critical.mutex_exit
                0x2000022c       0x4c CMakeFiles/FreeRTOS_Blink.dir/E_/Pi_Pico/pico-sdk/src/common/pico_sync/mutex.c.obj
                0x2000022c                mutex_exit
 *(.text*)
 .text          0x20000278        0x4 c:/progra~2/gnuarm~1/102020~1/bin/../lib/gcc/arm-none-eabi/10.2.1/thumb/v6-m/nofp\libgcc.a(_dvmd_tls.o)
                0x20000278                __aeabi_idiv0
                0x20000278                __aeabi_ldiv0
 *fill*         0x2000027c        0x4 
 .text.__stub   0x20000280       0x40 linker stubs
                0x200002c0                . = ALIGN (0x4)
 *(.rodata*)
                0x200002c0                . = ALIGN (0x4)
 *(.data*)
 .data.striped_spin_lock_num
                0x200002c0        0x1 CMakeFiles/FreeRTOS_Blink.dir/E_/Pi_Pico/pico-sdk/src/rp2_common/hardware_sync/sync.c.obj
 *fill*         0x200002c1        0x3 
 .data          0x200002c4       0x48 CMakeFiles/FreeRTOS_Blink.dir/E_/Pi_Pico/pico-sdk/src/rp2_common/hardware_irq/irq_handler_chain.S.obj
                0x200002c4                irq_handler_chain_slots
                0x200002f4                irq_handler_chain_first_slot
                0x200002fe                irq_handler_chain_remove_tail
 *fill*         0x2000030c        0x4 
 .data.aeabi_bits_funcs
                0x20000310       0x10 CMakeFiles/FreeRTOS_Blink.dir/E_/Pi_Pico/pico-sdk/src/rp2_common/pico_bit_ops/bit_ops_aeabi.S.obj
                0x20000310                aeabi_bits_funcs
                0x20000320                aeabi_bits_funcs_end
 .data.aeabi_mem_funcs
                0x20000320       0x10 CMakeFiles/FreeRTOS_Blink.dir/E_/Pi_Pico/pico-sdk/src/rp2_common/pico_mem_ops/mem_ops_aeabi.S.obj
                0x20000320                aeabi_mem_funcs
                0x20000330                aeabi_mem_funcs_end
 .data.stdio_usb
                0x20000330       0x14 CMakeFiles/FreeRTOS_Blink.dir/E_/Pi_Pico/pico-sdk/src/rp2_common/pico_stdio_usb/stdio_usb.c.obj
                0x20000330                stdio_usb
 .data.ep_dir_string
                0x20000344        0x8 CMakeFiles/FreeRTOS_Blink.dir/E_/Pi_Pico/pico-sdk/lib/tinyusb/src/portable/raspberrypi/rp2040/rp2040_usb.c.obj
                0x20000344                ep_dir_string
 .data._usbd_qdef
                0x2000034c       0x20 CMakeFiles/FreeRTOS_Blink.dir/E_/Pi_Pico/pico-sdk/lib/tinyusb/src/device/usbd.c.obj
                0x2000034c                _usbd_qdef
 .data          0x2000036c        0x4 libFreeRTOS.a(tasks.c.obj)
                0x2000036c                uxTopUsedPriority
 .data          0x20000370        0x4 libFreeRTOS.a(port.c.obj)
 .data._impure_ptr
                0x20000374        0x4 c:/progra~2/gnuarm~1/102020~1/bin/../lib/gcc/arm-none-eabi/10.2.1/../../../../arm-none-eabi/lib/thumb/v6-m/nofp\libg.a(lib_a-impure.o)
                0x20000374                _impure_ptr
 .data.impure_data
                0x20000378      0x428 c:/progra~2/gnuarm~1/102020~1/bin/../lib/gcc/arm-none-eabi/10.2.1/../../../../arm-none-eabi/lib/thumb/v6-m/nofp\libg.a(lib_a-impure.o)
 .data.__malloc_av_
                0x200007a0      0x408 c:/progra~2/gnuarm~1/102020~1/bin/../lib/gcc/arm-none-eabi/10.2.1/../../../../arm-none-eabi/lib/thumb/v6-m/nofp\libg.a(lib_a-mallocr.o)
                0x200007a0                __malloc_av_
 .data.__malloc_sbrk_base
                0x20000ba8        0x4 c:/progra~2/gnuarm~1/102020~1/bin/../lib/gcc/arm-none-eabi/10.2.1/../../../../arm-none-eabi/lib/thumb/v6-m/nofp\libg.a(lib_a-mallocr.o)
                0x20000ba8                __malloc_sbrk_base
 .data.__malloc_trim_threshold
                0x20000bac        0x4 c:/progra~2/gnuarm~1/102020~1/bin/../lib/gcc/arm-none-eabi/10.2.1/../../../../arm-none-eabi/lib/thumb/v6-m/nofp\libg.a(lib_a-mallocr.o)
                0x20000bac                __malloc_trim_threshold
                0x20000bb0                . = ALIGN (0x4)
 *(.after_data.*)
                0x20000bb0                . = ALIGN (0x4)
                0x20000bb0                PROVIDE (__mutex_array_start = .)
 *(SORT_BY_NAME(.mutex_array.*))
 *(.mutex_array)
 .mutex_array   0x20000bb0        0x8 CMakeFiles/FreeRTOS_Blink.dir/E_/Pi_Pico/pico-sdk/src/rp2_common/pico_stdio/stdio.c.obj
                0x20000bb8                PROVIDE (__mutex_array_end = .)
                0x20000bb8                . = ALIGN (0x4)
                0x20000bb8                PROVIDE (__preinit_array_start = .)
 *(SORT_BY_NAME(.preinit_array.*))
 .preinit_array.00001
                0x20000bb8        0x4 CMakeFiles/FreeRTOS_Blink.dir/E_/Pi_Pico/pico-sdk/src/rp2_common/pico_mem_ops/mem_ops_aeabi.S.obj
 .preinit_array.00010
                0x20000bbc        0x4 CMakeFiles/FreeRTOS_Blink.dir/E_/Pi_Pico/pico-sdk/src/rp2_common/pico_bit_ops/bit_ops_aeabi.S.obj
 .preinit_array.00020
                0x20000bc0        0x4 CMakeFiles/FreeRTOS_Blink.dir/E_/Pi_Pico/pico-sdk/src/rp2_common/pico_double/double_aeabi.S.obj
 .preinit_array.00020
                0x20000bc4        0x4 CMakeFiles/FreeRTOS_Blink.dir/E_/Pi_Pico/pico-sdk/src/rp2_common/pico_float/float_aeabi.S.obj
 *(.preinit_array)
                0x20000bc8                PROVIDE (__preinit_array_end = .)
                0x20000bc8                . = ALIGN (0x4)
                0x20000bc8                PROVIDE (__init_array_start = .)
 *(SORT_BY_NAME(.init_array.*))
 *(.init_array)
 .init_array    0x20000bc8        0x4 c:/progra~2/gnuarm~1/102020~1/bin/../lib/gcc/arm-none-eabi/10.2.1/thumb/v6-m/nofp/crtbegin.o
                0x20000bcc                PROVIDE (__init_array_end = .)
                0x20000bcc                . = ALIGN (0x4)
                [!provide]                PROVIDE (__fini_array_start = .)
 *(SORT_BY_NAME(.fini_array.*))
 *(.fini_array)
                [!provide]                PROVIDE (__fini_array_end = .)
 *(.jcr)
                0x20000bcc                . = ALIGN (0x4)
                0x20000bcc                __data_end__ = .

.igot.plt       0x20000bcc        0x0 load address 0x1000afbc
 .igot.plt      0x20000bcc        0x0 c:/progra~2/gnuarm~1/102020~1/bin/../lib/gcc/arm-none-eabi/10.2.1/thumb/v6-m/nofp/crtbegin.o

.uninitialized_data
                0x20000bcc        0x0 load address 0x1000afbc
                0x20000bcc                . = ALIGN (0x4)
 *(.uninitialized_data*)

.scratch_x      0x20040000        0x0 load address 0x1000afbc
                0x20040000                __scratch_x_start__ = .
 *(.scratch_x.*)
                0x20040000                . = ALIGN (0x4)
                0x20040000                __scratch_x_end__ = .
                0x1000afbc                __scratch_x_source__ = LOADADDR (.scratch_x)

.scratch_y      0x20041000        0x0 load address 0x1000afbc
                0x20041000                __scratch_y_start__ = .
 *(.scratch_y.*)
                0x20041000                . = ALIGN (0x4)
                0x20041000                __scratch_y_end__ = .
                0x1000afbc                __scratch_y_source__ = LOADADDR (.scratch_y)

.bss            0x20000bd0     0xd2bc
                0x20000bd0                . = ALIGN (0x4)
                0x20000bd0                __bss_start__ = .
 *(SORT_BY_ALIGNMENT(SORT_BY_NAME(.bss*)))
 .bss.last_avail_time.1
                0x20000bd0        0x8 CMakeFiles/FreeRTOS_Blink.dir/E_/Pi_Pico/pico-sdk/src/rp2_common/pico_stdio_usb/stdio_usb.c.obj
 .bss           0x20000bd8       0x1c c:/progra~2/gnuarm~1/102020~1/bin/../lib/gcc/arm-none-eabi/10.2.1/thumb/v6-m/nofp/crtbegin.o
 .bss           0x20000bf4      0x104 libFreeRTOS.a(tasks.c.obj)
                0x20000ccc                pxCurrentTCB
 .bss           0x20000cf8       0x3c libFreeRTOS.a(timers.c.obj)
 .bss           0x20000d34     0xc370 libFreeRTOS.a(heap_4.c.obj)
 .bss           0x2000d0a4       0x50 libFreeRTOS.a(queue.c.obj)
                0x2000d0a4                xQueueRegistry
 .bss.__lock___malloc_recursive_mutex
                0x2000d0f4        0x1 c:/progra~2/gnuarm~1/102020~1/bin/../lib/gcc/arm-none-eabi/10.2.1/../../../../arm-none-eabi/lib/thumb/v6-m/nofp\libg.a(lib_a-lock.o)
                0x2000d0f4                __lock___malloc_recursive_mutex
 *fill*         0x2000d0f5        0x3 
 .bss.__malloc_current_mallinfo
                0x2000d0f8       0x28 c:/progra~2/gnuarm~1/102020~1/bin/../lib/gcc/arm-none-eabi/10.2.1/../../../../arm-none-eabi/lib/thumb/v6-m/nofp\libg.a(lib_a-mallocr.o)
                0x2000d0f8                __malloc_current_mallinfo
 .bss.__malloc_max_sbrked_mem
                0x2000d120        0x4 c:/progra~2/gnuarm~1/102020~1/bin/../lib/gcc/arm-none-eabi/10.2.1/../../../../arm-none-eabi/lib/thumb/v6-m/nofp\libg.a(lib_a-mallocr.o)
                0x2000d120                __malloc_max_sbrked_mem
 .bss.__malloc_max_total_mem
                0x2000d124        0x4 c:/progra~2/gnuarm~1/102020~1/bin/../lib/gcc/arm-none-eabi/10.2.1/../../../../arm-none-eabi/lib/thumb/v6-m/nofp\libg.a(lib_a-mallocr.o)
                0x2000d124                __malloc_max_total_mem
 .bss.__malloc_top_pad
                0x2000d128        0x4 c:/progra~2/gnuarm~1/102020~1/bin/../lib/gcc/arm-none-eabi/10.2.1/../../../../arm-none-eabi/lib/thumb/v6-m/nofp\libg.a(lib_a-mallocr.o)
                0x2000d128                __malloc_top_pad
 .bss._app_driver
                0x2000d12c        0x4 CMakeFiles/FreeRTOS_Blink.dir/E_/Pi_Pico/pico-sdk/lib/tinyusb/src/device/usbd.c.obj
 .bss._cdcd_itf
                0x2000d130      0x2d0 CMakeFiles/FreeRTOS_Blink.dir/E_/Pi_Pico/pico-sdk/lib/tinyusb/src/class/cdc/cdc_device.c.obj
 .bss._ctrl_xfer
                0x2000d400       0x14 CMakeFiles/FreeRTOS_Blink.dir/E_/Pi_Pico/pico-sdk/lib/tinyusb/src/device/usbd_control.c.obj
 .bss._ubsd_mutexdef
                0x2000d414        0x8 CMakeFiles/FreeRTOS_Blink.dir/E_/Pi_Pico/pico-sdk/lib/tinyusb/src/device/usbd.c.obj
 .bss._usbd_ctrl_buf
                0x2000d41c       0x40 CMakeFiles/FreeRTOS_Blink.dir/E_/Pi_Pico/pico-sdk/lib/tinyusb/src/device/usbd_control.c.obj
 .bss._usbd_dev
                0x2000d45c       0x37 CMakeFiles/FreeRTOS_Blink.dir/E_/Pi_Pico/pico-sdk/lib/tinyusb/src/device/usbd.c.obj
 *fill*         0x2000d493        0x1 
 .bss._usbd_mutex
                0x2000d494        0x4 CMakeFiles/FreeRTOS_Blink.dir/E_/Pi_Pico/pico-sdk/lib/tinyusb/src/device/usbd.c.obj
 .bss._usbd_q   0x2000d498        0x4 CMakeFiles/FreeRTOS_Blink.dir/E_/Pi_Pico/pico-sdk/lib/tinyusb/src/device/usbd.c.obj
 .bss._usbd_qdef_buf
                0x2000d49c       0xc0 CMakeFiles/FreeRTOS_Blink.dir/E_/Pi_Pico/pico-sdk/lib/tinyusb/src/device/usbd.c.obj
                0x2000d49c                _usbd_qdef_buf
 .bss.alarm_callbacks
                0x2000d55c       0x10 CMakeFiles/FreeRTOS_Blink.dir/E_/Pi_Pico/pico-sdk/src/rp2_common/hardware_timer/timer.c.obj
 .bss.claimed   0x2000d56c        0x4 CMakeFiles/FreeRTOS_Blink.dir/E_/Pi_Pico/pico-sdk/src/rp2_common/hardware_sync/sync.c.obj
 .bss.configured_freq
                0x2000d570       0x28 CMakeFiles/FreeRTOS_Blink.dir/E_/Pi_Pico/pico-sdk/src/rp2_common/hardware_clocks/clocks.c.obj
 .bss.default_alarm_pool
                0x2000d598        0x4 CMakeFiles/FreeRTOS_Blink.dir/E_/Pi_Pico/pico-sdk/src/common/pico_time/time.c.obj
 .bss.desc_str.0
                0x2000d59c       0x28 CMakeFiles/FreeRTOS_Blink.dir/E_/Pi_Pico/pico-sdk/src/rp2_common/pico_stdio_usb/stdio_usb_descriptors.c.obj
 .bss.drivers   0x2000d5c4        0x4 CMakeFiles/FreeRTOS_Blink.dir/E_/Pi_Pico/pico-sdk/src/rp2_common/pico_stdio/stdio.c.obj
 .bss.errno     0x2000d5c8        0x4 c:/progra~2/gnuarm~1/102020~1/bin/../lib/gcc/arm-none-eabi/10.2.1/../../../../arm-none-eabi/lib/thumb/v6-m/nofp\libg.a(lib_a-reent.o)
                0x2000d5c8                errno
 .bss.filter    0x2000d5cc        0x4 CMakeFiles/FreeRTOS_Blink.dir/E_/Pi_Pico/pico-sdk/src/rp2_common/pico_stdio/stdio.c.obj
 .bss.heap_end.0
                0x2000d5d0        0x4 CMakeFiles/FreeRTOS_Blink.dir/E_/Pi_Pico/pico-sdk/src/rp2_common/pico_runtime/runtime.c.obj
 .bss.hw_endpoints
                0x2000d5d4      0x680 CMakeFiles/FreeRTOS_Blink.dir/E_/Pi_Pico/pico-sdk/lib/tinyusb/src/portable/raspberrypi/rp2040/dcd_rp2040.c.obj
 .bss.next_buffer_ptr
                0x2000dc54        0x4 CMakeFiles/FreeRTOS_Blink.dir/E_/Pi_Pico/pico-sdk/lib/tinyusb/src/portable/raspberrypi/rp2040/dcd_rp2040.c.obj
 .bss.pools     0x2000dc58       0x10 CMakeFiles/FreeRTOS_Blink.dir/E_/Pi_Pico/pico-sdk/src/common/pico_time/time.c.obj
 .bss.sd_table  0x2000dc68      0x100 CMakeFiles/FreeRTOS_Blink.dir/E_/Pi_Pico/pico-sdk/src/rp2_common/pico_double/double_init_rom.c.obj
                0x2000dc68                sd_table
 .bss.sf_clz_func
                0x2000dd68        0x4 CMakeFiles/FreeRTOS_Blink.dir/E_/Pi_Pico/pico-sdk/src/rp2_common/pico_float/float_init_rom.c.obj
                0x2000dd68                sf_clz_func
 .bss.sf_table  0x2000dd6c      0x100 CMakeFiles/FreeRTOS_Blink.dir/E_/Pi_Pico/pico-sdk/src/rp2_common/pico_float/float_init_rom.c.obj
                0x2000dd6c                sf_table
 .bss.stdio_usb_mutex
                0x2000de6c        0x8 CMakeFiles/FreeRTOS_Blink.dir/E_/Pi_Pico/pico-sdk/src/rp2_common/pico_stdio_usb/stdio_usb.c.obj
 .bss.target_hi
                0x2000de74       0x10 CMakeFiles/FreeRTOS_Blink.dir/E_/Pi_Pico/pico-sdk/src/rp2_common/hardware_timer/timer.c.obj
 .bss._app_driver_count
                0x2000de84        0x1 CMakeFiles/FreeRTOS_Blink.dir/E_/Pi_Pico/pico-sdk/lib/tinyusb/src/device/usbd.c.obj
 .bss._initialized
                0x2000de85        0x1 CMakeFiles/FreeRTOS_Blink.dir/E_/Pi_Pico/pico-sdk/lib/tinyusb/src/tusb.c.obj
 .bss.assigned_address
                0x2000de86        0x1 CMakeFiles/FreeRTOS_Blink.dir/E_/Pi_Pico/pico-sdk/lib/tinyusb/src/portable/raspberrypi/rp2040/dcd_rp2040.c.obj
 .bss.claimed   0x2000de87        0x1 CMakeFiles/FreeRTOS_Blink.dir/E_/Pi_Pico/pico-sdk/src/rp2_common/hardware_timer/timer.c.obj
 .bss.irq_hander_chain_free_slot_head
                0x2000de88        0x1 CMakeFiles/FreeRTOS_Blink.dir/E_/Pi_Pico/pico-sdk/src/rp2_common/hardware_irq/irq.c.obj
 .bss.timer_callbacks_pending
                0x2000de89        0x1 CMakeFiles/FreeRTOS_Blink.dir/E_/Pi_Pico/pico-sdk/src/rp2_common/hardware_timer/timer.c.obj
 *(COMMON)
                0x2000de8c                . = ALIGN (0x4)
 *fill*         0x2000de8a        0x2 
                0x2000de8c                __bss_end__ = .

.heap           0x2000de8c      0x800
                0x2000de8c                __end__ = .
                0x2000de8c                end = __end__
 *(.heap*)
 .heap          0x2000de8c      0x800 CMakeFiles/FreeRTOS_Blink.dir/E_/Pi_Pico/pico-sdk/src/rp2_common/pico_standard_link/crt0.S.obj
                0x2000e68c                __HeapLimit = .

.stack1_dummy   0x20040000        0x0
 *(.stack1*)

.stack_dummy    0x20041000      0x800
 *(.stack*)
 .stack         0x20041000      0x800 CMakeFiles/FreeRTOS_Blink.dir/E_/Pi_Pico/pico-sdk/src/rp2_common/pico_standard_link/crt0.S.obj

.flash_end      0x1000afbc        0x0
                0x1000afbc                __flash_binary_end = .
                0x20040000                __StackLimit = (ORIGIN (RAM) + LENGTH (RAM))
                0x20041000                __StackOneTop = (ORIGIN (SCRATCH_X) + LENGTH (SCRATCH_X))
                0x20042000                __StackTop = (ORIGIN (SCRATCH_Y) + LENGTH (SCRATCH_Y))
                0x20041000                __StackOneBottom = (__StackOneTop - SIZEOF (.stack1_dummy))
                0x20041800                __StackBottom = (__StackTop - SIZEOF (.stack_dummy))
                0x20042000                PROVIDE (__stack = __StackTop)
                0x00000001                ASSERT ((__StackLimit >= __HeapLimit), region RAM overflowed)
                0x00000001                ASSERT (((__binary_info_header_end - __logical_binary_start) <= 0x100), Binary info must be in first 256 bytes of the binary)
LOAD CMakeFiles/FreeRTOS_Blink.dir/src/main.c.obj
LOAD CMakeFiles/FreeRTOS_Blink.dir/E_/Pi_Pico/pico-sdk/src/rp2_common/pico_stdlib/stdlib.c.obj
LOAD CMakeFiles/FreeRTOS_Blink.dir/E_/Pi_Pico/pico-sdk/src/rp2_common/hardware_gpio/gpio.c.obj
LOAD CMakeFiles/FreeRTOS_Blink.dir/E_/Pi_Pico/pico-sdk/src/rp2_common/hardware_claim/claim.c.obj
LOAD CMakeFiles/FreeRTOS_Blink.dir/E_/Pi_Pico/pico-sdk/src/rp2_common/hardware_sync/sync.c.obj
LOAD CMakeFiles/FreeRTOS_Blink.dir/E_/Pi_Pico/pico-sdk/src/rp2_common/pico_platform/platform.c.obj
LOAD CMakeFiles/FreeRTOS_Blink.dir/E_/Pi_Pico/pico-sdk/src/rp2_common/hardware_uart/uart.c.obj
LOAD CMakeFiles/FreeRTOS_Blink.dir/E_/Pi_Pico/pico-sdk/src/rp2_common/hardware_divider/divider.S.obj
LOAD CMakeFiles/FreeRTOS_Blink.dir/E_/Pi_Pico/pico-sdk/src/common/pico_time/time.c.obj
LOAD CMakeFiles/FreeRTOS_Blink.dir/E_/Pi_Pico/pico-sdk/src/common/pico_time/timeout_helper.c.obj
LOAD CMakeFiles/FreeRTOS_Blink.dir/E_/Pi_Pico/pico-sdk/src/rp2_common/hardware_timer/timer.c.obj
LOAD CMakeFiles/FreeRTOS_Blink.dir/E_/Pi_Pico/pico-sdk/src/common/pico_sync/sem.c.obj
LOAD CMakeFiles/FreeRTOS_Blink.dir/E_/Pi_Pico/pico-sdk/src/common/pico_sync/lock_core.c.obj
LOAD CMakeFiles/FreeRTOS_Blink.dir/E_/Pi_Pico/pico-sdk/src/common/pico_sync/mutex.c.obj
LOAD CMakeFiles/FreeRTOS_Blink.dir/E_/Pi_Pico/pico-sdk/src/common/pico_sync/critical_section.c.obj
LOAD CMakeFiles/FreeRTOS_Blink.dir/E_/Pi_Pico/pico-sdk/src/common/pico_util/datetime.c.obj
LOAD CMakeFiles/FreeRTOS_Blink.dir/E_/Pi_Pico/pico-sdk/src/common/pico_util/pheap.c.obj
LOAD CMakeFiles/FreeRTOS_Blink.dir/E_/Pi_Pico/pico-sdk/src/common/pico_util/queue.c.obj
LOAD CMakeFiles/FreeRTOS_Blink.dir/E_/Pi_Pico/pico-sdk/src/rp2_common/pico_runtime/runtime.c.obj
LOAD CMakeFiles/FreeRTOS_Blink.dir/E_/Pi_Pico/pico-sdk/src/rp2_common/hardware_clocks/clocks.c.obj
LOAD CMakeFiles/FreeRTOS_Blink.dir/E_/Pi_Pico/pico-sdk/src/rp2_common/hardware_watchdog/watchdog.c.obj
LOAD CMakeFiles/FreeRTOS_Blink.dir/E_/Pi_Pico/pico-sdk/src/rp2_common/hardware_xosc/xosc.c.obj
LOAD CMakeFiles/FreeRTOS_Blink.dir/E_/Pi_Pico/pico-sdk/src/rp2_common/hardware_pll/pll.c.obj
LOAD CMakeFiles/FreeRTOS_Blink.dir/E_/Pi_Pico/pico-sdk/src/rp2_common/hardware_vreg/vreg.c.obj
LOAD CMakeFiles/FreeRTOS_Blink.dir/E_/Pi_Pico/pico-sdk/src/rp2_common/hardware_irq/irq.c.obj
LOAD CMakeFiles/FreeRTOS_Blink.dir/E_/Pi_Pico/pico-sdk/src/rp2_common/hardware_irq/irq_handler_chain.S.obj
LOAD CMakeFiles/FreeRTOS_Blink.dir/E_/Pi_Pico/pico-sdk/src/rp2_common/pico_printf/printf.c.obj
LOAD CMakeFiles/FreeRTOS_Blink.dir/E_/Pi_Pico/pico-sdk/src/rp2_common/pico_bit_ops/bit_ops_aeabi.S.obj
LOAD CMakeFiles/FreeRTOS_Blink.dir/E_/Pi_Pico/pico-sdk/src/rp2_common/pico_bootrom/bootrom.c.obj
LOAD CMakeFiles/FreeRTOS_Blink.dir/E_/Pi_Pico/pico-sdk/src/rp2_common/pico_divider/divider.S.obj
LOAD CMakeFiles/FreeRTOS_Blink.dir/E_/Pi_Pico/pico-sdk/src/rp2_common/pico_double/double_aeabi.S.obj
LOAD CMakeFiles/FreeRTOS_Blink.dir/E_/Pi_Pico/pico-sdk/src/rp2_common/pico_double/double_init_rom.c.obj
LOAD CMakeFiles/FreeRTOS_Blink.dir/E_/Pi_Pico/pico-sdk/src/rp2_common/pico_double/double_math.c.obj
LOAD CMakeFiles/FreeRTOS_Blink.dir/E_/Pi_Pico/pico-sdk/src/rp2_common/pico_double/double_v1_rom_shim.S.obj
LOAD CMakeFiles/FreeRTOS_Blink.dir/E_/Pi_Pico/pico-sdk/src/rp2_common/pico_int64_ops/pico_int64_ops_aeabi.S.obj
LOAD CMakeFiles/FreeRTOS_Blink.dir/E_/Pi_Pico/pico-sdk/src/rp2_common/pico_float/float_aeabi.S.obj
LOAD CMakeFiles/FreeRTOS_Blink.dir/E_/Pi_Pico/pico-sdk/src/rp2_common/pico_float/float_init_rom.c.obj
LOAD CMakeFiles/FreeRTOS_Blink.dir/E_/Pi_Pico/pico-sdk/src/rp2_common/pico_float/float_math.c.obj
LOAD CMakeFiles/FreeRTOS_Blink.dir/E_/Pi_Pico/pico-sdk/src/rp2_common/pico_float/float_v1_rom_shim.S.obj
LOAD CMakeFiles/FreeRTOS_Blink.dir/E_/Pi_Pico/pico-sdk/src/rp2_common/pico_malloc/pico_malloc.c.obj
LOAD CMakeFiles/FreeRTOS_Blink.dir/E_/Pi_Pico/pico-sdk/src/rp2_common/pico_mem_ops/mem_ops_aeabi.S.obj
LOAD CMakeFiles/FreeRTOS_Blink.dir/E_/Pi_Pico/pico-sdk/src/rp2_common/pico_standard_link/crt0.S.obj
LOAD CMakeFiles/FreeRTOS_Blink.dir/E_/Pi_Pico/pico-sdk/src/rp2_common/pico_standard_link/new_delete.cpp.obj
LOAD CMakeFiles/FreeRTOS_Blink.dir/E_/Pi_Pico/pico-sdk/src/rp2_common/pico_standard_link/binary_info.c.obj
LOAD CMakeFiles/FreeRTOS_Blink.dir/E_/Pi_Pico/pico-sdk/src/rp2_common/pico_stdio/stdio.c.obj
LOAD CMakeFiles/FreeRTOS_Blink.dir/E_/Pi_Pico/pico-sdk/src/rp2_common/pico_stdio_usb/stdio_usb.c.obj
LOAD CMakeFiles/FreeRTOS_Blink.dir/E_/Pi_Pico/pico-sdk/src/rp2_common/pico_stdio_usb/stdio_usb_descriptors.c.obj
LOAD CMakeFiles/FreeRTOS_Blink.dir/E_/Pi_Pico/pico-sdk/lib/tinyusb/src/portable/raspberrypi/rp2040/dcd_rp2040.c.obj
LOAD CMakeFiles/FreeRTOS_Blink.dir/E_/Pi_Pico/pico-sdk/lib/tinyusb/src/portable/raspberrypi/rp2040/rp2040_usb.c.obj
LOAD CMakeFiles/FreeRTOS_Blink.dir/E_/Pi_Pico/pico-sdk/lib/tinyusb/src/device/usbd.c.obj
LOAD CMakeFiles/FreeRTOS_Blink.dir/E_/Pi_Pico/pico-sdk/lib/tinyusb/src/device/usbd_control.c.obj
LOAD CMakeFiles/FreeRTOS_Blink.dir/E_/Pi_Pico/pico-sdk/lib/tinyusb/src/class/audio/audio_device.c.obj
LOAD CMakeFiles/FreeRTOS_Blink.dir/E_/Pi_Pico/pico-sdk/lib/tinyusb/src/class/cdc/cdc_device.c.obj
LOAD CMakeFiles/FreeRTOS_Blink.dir/E_/Pi_Pico/pico-sdk/lib/tinyusb/src/class/dfu/dfu_rt_device.c.obj
LOAD CMakeFiles/FreeRTOS_Blink.dir/E_/Pi_Pico/pico-sdk/lib/tinyusb/src/class/hid/hid_device.c.obj
LOAD CMakeFiles/FreeRTOS_Blink.dir/E_/Pi_Pico/pico-sdk/lib/tinyusb/src/class/midi/midi_device.c.obj
LOAD CMakeFiles/FreeRTOS_Blink.dir/E_/Pi_Pico/pico-sdk/lib/tinyusb/src/class/msc/msc_device.c.obj
LOAD CMakeFiles/FreeRTOS_Blink.dir/E_/Pi_Pico/pico-sdk/lib/tinyusb/src/class/net/net_device.c.obj
LOAD CMakeFiles/FreeRTOS_Blink.dir/E_/Pi_Pico/pico-sdk/lib/tinyusb/src/class/usbtmc/usbtmc_device.c.obj
LOAD CMakeFiles/FreeRTOS_Blink.dir/E_/Pi_Pico/pico-sdk/lib/tinyusb/src/class/vendor/vendor_device.c.obj
LOAD CMakeFiles/FreeRTOS_Blink.dir/E_/Pi_Pico/pico-sdk/lib/tinyusb/src/tusb.c.obj
LOAD CMakeFiles/FreeRTOS_Blink.dir/E_/Pi_Pico/pico-sdk/lib/tinyusb/src/common/tusb_fifo.c.obj
LOAD CMakeFiles/FreeRTOS_Blink.dir/E_/Pi_Pico/pico-sdk/src/rp2_common/pico_fix/rp2040_usb_device_enumeration/rp2040_usb_device_enumeration.c.obj
LOAD libFreeRTOS.a
LOAD C:\Users\Venki\AppData\Local\Temp\ccmvFWll.o
LOAD c:/progra~2/gnuarm~1/102020~1/bin/../lib/gcc/arm-none-eabi/10.2.1/../../../../arm-none-eabi/lib/thumb/v6-m/nofp\libstdc++.a
LOAD c:/progra~2/gnuarm~1/102020~1/bin/../lib/gcc/arm-none-eabi/10.2.1/../../../../arm-none-eabi/lib/thumb/v6-m/nofp\libm.a
START GROUP
LOAD c:/progra~2/gnuarm~1/102020~1/bin/../lib/gcc/arm-none-eabi/10.2.1/thumb/v6-m/nofp\libgcc.a
LOAD c:/progra~2/gnuarm~1/102020~1/bin/../lib/gcc/arm-none-eabi/10.2.1/../../../../arm-none-eabi/lib/thumb/v6-m/nofp\libg.a
LOAD c:/progra~2/gnuarm~1/102020~1/bin/../lib/gcc/arm-none-eabi/10.2.1/../../../../arm-none-eabi/lib/thumb/v6-m/nofp\libc.a
END GROUP
START GROUP
LOAD c:/progra~2/gnuarm~1/102020~1/bin/../lib/gcc/arm-none-eabi/10.2.1/thumb/v6-m/nofp\libgcc.a
LOAD c:/progra~2/gnuarm~1/102020~1/bin/../lib/gcc/arm-none-eabi/10.2.1/../../../../arm-none-eabi/lib/thumb/v6-m/nofp\libc.a
LOAD c:/progra~2/gnuarm~1/102020~1/bin/../lib/gcc/arm-none-eabi/10.2.1/../../../../arm-none-eabi/lib/thumb/v6-m/nofp\libnosys.a
END GROUP
LOAD c:/progra~2/gnuarm~1/102020~1/bin/../lib/gcc/arm-none-eabi/10.2.1/thumb/v6-m/nofp/crtend.o
LOAD c:/progra~2/gnuarm~1/102020~1/bin/../lib/gcc/arm-none-eabi/10.2.1/thumb/v6-m/nofp/crtn.o
OUTPUT(FreeRTOS_Blink.elf elf32-littlearm)
LOAD linker stubs

.ARM.attributes
                0x00000000       0x28
 .ARM.attributes
                0x00000000       0x1e c:/progra~2/gnuarm~1/102020~1/bin/../lib/gcc/arm-none-eabi/10.2.1/thumb/v6-m/nofp/crti.o
 .ARM.attributes
                0x0000001e       0x2c c:/progra~2/gnuarm~1/102020~1/bin/../lib/gcc/arm-none-eabi/10.2.1/thumb/v6-m/nofp/crtbegin.o
 .ARM.attributes
                0x0000004a       0x2b CMakeFiles/FreeRTOS_Blink.dir/src/main.c.obj
 .ARM.attributes
                0x00000075       0x2b CMakeFiles/FreeRTOS_Blink.dir/E_/Pi_Pico/pico-sdk/src/rp2_common/hardware_gpio/gpio.c.obj
 .ARM.attributes
                0x000000a0       0x2b CMakeFiles/FreeRTOS_Blink.dir/E_/Pi_Pico/pico-sdk/src/rp2_common/hardware_claim/claim.c.obj
 .ARM.attributes
                0x000000cb       0x2b CMakeFiles/FreeRTOS_Blink.dir/E_/Pi_Pico/pico-sdk/src/rp2_common/hardware_sync/sync.c.obj
 .ARM.attributes
                0x000000f6       0x2b CMakeFiles/FreeRTOS_Blink.dir/E_/Pi_Pico/pico-sdk/src/rp2_common/pico_platform/platform.c.obj
 .ARM.attributes
                0x00000121       0x2b CMakeFiles/FreeRTOS_Blink.dir/E_/Pi_Pico/pico-sdk/src/common/pico_time/time.c.obj
 .ARM.attributes
                0x0000014c       0x2b CMakeFiles/FreeRTOS_Blink.dir/E_/Pi_Pico/pico-sdk/src/rp2_common/hardware_timer/timer.c.obj
 .ARM.attributes
                0x00000177       0x2b CMakeFiles/FreeRTOS_Blink.dir/E_/Pi_Pico/pico-sdk/src/common/pico_sync/lock_core.c.obj
 .ARM.attributes
                0x000001a2       0x2b CMakeFiles/FreeRTOS_Blink.dir/E_/Pi_Pico/pico-sdk/src/common/pico_sync/mutex.c.obj
 .ARM.attributes
                0x000001cd       0x2b CMakeFiles/FreeRTOS_Blink.dir/E_/Pi_Pico/pico-sdk/src/common/pico_sync/critical_section.c.obj
 .ARM.attributes
                0x000001f8       0x2b CMakeFiles/FreeRTOS_Blink.dir/E_/Pi_Pico/pico-sdk/src/common/pico_util/pheap.c.obj
 .ARM.attributes
                0x00000223       0x2b CMakeFiles/FreeRTOS_Blink.dir/E_/Pi_Pico/pico-sdk/src/rp2_common/pico_runtime/runtime.c.obj
 .ARM.attributes
                0x0000024e       0x2b CMakeFiles/FreeRTOS_Blink.dir/E_/Pi_Pico/pico-sdk/src/rp2_common/hardware_clocks/clocks.c.obj
 .ARM.attributes
                0x00000279       0x2b CMakeFiles/FreeRTOS_Blink.dir/E_/Pi_Pico/pico-sdk/src/rp2_common/hardware_watchdog/watchdog.c.obj
 .ARM.attributes
                0x000002a4       0x2b CMakeFiles/FreeRTOS_Blink.dir/E_/Pi_Pico/pico-sdk/src/rp2_common/hardware_xosc/xosc.c.obj
 .ARM.attributes
                0x000002cf       0x2b CMakeFiles/FreeRTOS_Blink.dir/E_/Pi_Pico/pico-sdk/src/rp2_common/hardware_pll/pll.c.obj
 .ARM.attributes
                0x000002fa       0x2b CMakeFiles/FreeRTOS_Blink.dir/E_/Pi_Pico/pico-sdk/src/rp2_common/hardware_irq/irq.c.obj
 .ARM.attributes
                0x00000325       0x22 CMakeFiles/FreeRTOS_Blink.dir/E_/Pi_Pico/pico-sdk/src/rp2_common/hardware_irq/irq_handler_chain.S.obj
 .ARM.attributes
                0x00000347       0x2b CMakeFiles/FreeRTOS_Blink.dir/E_/Pi_Pico/pico-sdk/src/rp2_common/pico_printf/printf.c.obj
 .ARM.attributes
                0x00000372       0x22 CMakeFiles/FreeRTOS_Blink.dir/E_/Pi_Pico/pico-sdk/src/rp2_common/pico_bit_ops/bit_ops_aeabi.S.obj
 .ARM.attributes
                0x00000394       0x2b CMakeFiles/FreeRTOS_Blink.dir/E_/Pi_Pico/pico-sdk/src/rp2_common/pico_bootrom/bootrom.c.obj
 .ARM.attributes
                0x000003bf       0x22 CMakeFiles/FreeRTOS_Blink.dir/E_/Pi_Pico/pico-sdk/src/rp2_common/pico_divider/divider.S.obj
 .ARM.attributes
                0x000003e1       0x22 CMakeFiles/FreeRTOS_Blink.dir/E_/Pi_Pico/pico-sdk/src/rp2_common/pico_double/double_aeabi.S.obj
 .ARM.attributes
                0x00000403       0x2b CMakeFiles/FreeRTOS_Blink.dir/E_/Pi_Pico/pico-sdk/src/rp2_common/pico_double/double_init_rom.c.obj
 .ARM.attributes
                0x0000042e       0x22 CMakeFiles/FreeRTOS_Blink.dir/E_/Pi_Pico/pico-sdk/src/rp2_common/pico_double/double_v1_rom_shim.S.obj
 .ARM.attributes
                0x00000450       0x22 CMakeFiles/FreeRTOS_Blink.dir/E_/Pi_Pico/pico-sdk/src/rp2_common/pico_int64_ops/pico_int64_ops_aeabi.S.obj
 .ARM.attributes
                0x00000472       0x22 CMakeFiles/FreeRTOS_Blink.dir/E_/Pi_Pico/pico-sdk/src/rp2_common/pico_float/float_aeabi.S.obj
 .ARM.attributes
                0x00000494       0x2b CMakeFiles/FreeRTOS_Blink.dir/E_/Pi_Pico/pico-sdk/src/rp2_common/pico_float/float_init_rom.c.obj
 .ARM.attributes
                0x000004bf       0x22 CMakeFiles/FreeRTOS_Blink.dir/E_/Pi_Pico/pico-sdk/src/rp2_common/pico_float/float_v1_rom_shim.S.obj
 .ARM.attributes
                0x000004e1       0x2b CMakeFiles/FreeRTOS_Blink.dir/E_/Pi_Pico/pico-sdk/src/rp2_common/pico_malloc/pico_malloc.c.obj
 .ARM.attributes
                0x0000050c       0x22 CMakeFiles/FreeRTOS_Blink.dir/E_/Pi_Pico/pico-sdk/src/rp2_common/pico_mem_ops/mem_ops_aeabi.S.obj
 .ARM.attributes
                0x0000052e       0x22 CMakeFiles/FreeRTOS_Blink.dir/E_/Pi_Pico/pico-sdk/src/rp2_common/pico_standard_link/crt0.S.obj
 .ARM.attributes
                0x00000550       0x32 CMakeFiles/FreeRTOS_Blink.dir/E_/Pi_Pico/pico-sdk/src/rp2_common/pico_standard_link/binary_info.c.obj
 .ARM.attributes
                0x00000582       0x2b CMakeFiles/FreeRTOS_Blink.dir/E_/Pi_Pico/pico-sdk/src/rp2_common/pico_stdio/stdio.c.obj
 .ARM.attributes
                0x000005ad       0x2b CMakeFiles/FreeRTOS_Blink.dir/E_/Pi_Pico/pico-sdk/src/rp2_common/pico_stdio_usb/stdio_usb.c.obj
 .ARM.attributes
                0x000005d8       0x2b CMakeFiles/FreeRTOS_Blink.dir/E_/Pi_Pico/pico-sdk/src/rp2_common/pico_stdio_usb/stdio_usb_descriptors.c.obj
 .ARM.attributes
                0x00000603       0x2b CMakeFiles/FreeRTOS_Blink.dir/E_/Pi_Pico/pico-sdk/lib/tinyusb/src/portable/raspberrypi/rp2040/dcd_rp2040.c.obj
 .ARM.attributes
                0x0000062e       0x2b CMakeFiles/FreeRTOS_Blink.dir/E_/Pi_Pico/pico-sdk/lib/tinyusb/src/portable/raspberrypi/rp2040/rp2040_usb.c.obj
 .ARM.attributes
                0x00000659       0x2b CMakeFiles/FreeRTOS_Blink.dir/E_/Pi_Pico/pico-sdk/lib/tinyusb/src/device/usbd.c.obj
 .ARM.attributes
                0x00000684       0x2b CMakeFiles/FreeRTOS_Blink.dir/E_/Pi_Pico/pico-sdk/lib/tinyusb/src/device/usbd_control.c.obj
 .ARM.attributes
                0x000006af       0x2b CMakeFiles/FreeRTOS_Blink.dir/E_/Pi_Pico/pico-sdk/lib/tinyusb/src/class/cdc/cdc_device.c.obj
 .ARM.attributes
                0x000006da       0x2b CMakeFiles/FreeRTOS_Blink.dir/E_/Pi_Pico/pico-sdk/lib/tinyusb/src/tusb.c.obj
 .ARM.attributes
                0x00000705       0x2b CMakeFiles/FreeRTOS_Blink.dir/E_/Pi_Pico/pico-sdk/lib/tinyusb/src/common/tusb_fifo.c.obj
 .ARM.attributes
                0x00000730       0x2b libFreeRTOS.a(tasks.c.obj)
 .ARM.attributes
                0x0000075b       0x2b libFreeRTOS.a(timers.c.obj)
 .ARM.attributes
                0x00000786       0x2b libFreeRTOS.a(port.c.obj)
 .ARM.attributes
                0x000007b1       0x2b libFreeRTOS.a(heap_4.c.obj)
 .ARM.attributes
                0x000007dc       0x2b libFreeRTOS.a(list.c.obj)
 .ARM.attributes
                0x00000807       0x2b libFreeRTOS.a(queue.c.obj)
 .ARM.attributes
                0x00000832       0x22 C:\Users\Venki\AppData\Local\Temp\ccmvFWll.o
 .ARM.attributes
                0x00000854       0x1e c:/progra~2/gnuarm~1/102020~1/bin/../lib/gcc/arm-none-eabi/10.2.1/thumb/v6-m/nofp\libgcc.a(_dvmd_tls.o)
 .ARM.attributes
                0x00000872       0x2c c:/progra~2/gnuarm~1/102020~1/bin/../lib/gcc/arm-none-eabi/10.2.1/../../../../arm-none-eabi/lib/thumb/v6-m/nofp\libg.a(lib_a-calloc.o)
 .ARM.attributes
                0x0000089e       0x2c c:/progra~2/gnuarm~1/102020~1/bin/../lib/gcc/arm-none-eabi/10.2.1/../../../../arm-none-eabi/lib/thumb/v6-m/nofp\libg.a(lib_a-callocr.o)
 .ARM.attributes
                0x000008ca       0x2c c:/progra~2/gnuarm~1/102020~1/bin/../lib/gcc/arm-none-eabi/10.2.1/../../../../arm-none-eabi/lib/thumb/v6-m/nofp\libg.a(lib_a-impure.o)
 .ARM.attributes
                0x000008f6       0x2c c:/progra~2/gnuarm~1/102020~1/bin/../lib/gcc/arm-none-eabi/10.2.1/../../../../arm-none-eabi/lib/thumb/v6-m/nofp\libg.a(lib_a-malloc.o)
 .ARM.attributes
                0x00000922       0x2c c:/progra~2/gnuarm~1/102020~1/bin/../lib/gcc/arm-none-eabi/10.2.1/../../../../arm-none-eabi/lib/thumb/v6-m/nofp\libg.a(lib_a-mallocr.o)
 .ARM.attributes
                0x0000094e       0x2c c:/progra~2/gnuarm~1/102020~1/bin/../lib/gcc/arm-none-eabi/10.2.1/../../../../arm-none-eabi/lib/thumb/v6-m/nofp\libg.a(lib_a-mlock.o)
 .ARM.attributes
                0x0000097a       0x2c c:/progra~2/gnuarm~1/102020~1/bin/../lib/gcc/arm-none-eabi/10.2.1/../../../../arm-none-eabi/lib/thumb/v6-m/nofp\libg.a(lib_a-sbrkr.o)
 .ARM.attributes
                0x000009a6       0x2c c:/progra~2/gnuarm~1/102020~1/bin/../lib/gcc/arm-none-eabi/10.2.1/../../../../arm-none-eabi/lib/thumb/v6-m/nofp\libg.a(lib_a-strlen-stub.o)
 .ARM.attributes
                0x000009d2       0x2c c:/progra~2/gnuarm~1/102020~1/bin/../lib/gcc/arm-none-eabi/10.2.1/../../../../arm-none-eabi/lib/thumb/v6-m/nofp\libg.a(lib_a-freer.o)
 .ARM.attributes
                0x000009fe       0x2c c:/progra~2/gnuarm~1/102020~1/bin/../lib/gcc/arm-none-eabi/10.2.1/../../../../arm-none-eabi/lib/thumb/v6-m/nofp\libg.a(lib_a-lock.o)
 .ARM.attributes
                0x00000a2a       0x2c c:/progra~2/gnuarm~1/102020~1/bin/../lib/gcc/arm-none-eabi/10.2.1/../../../../arm-none-eabi/lib/thumb/v6-m/nofp\libg.a(lib_a-reent.o)

.comment        0x00000000       0x4d
 .comment       0x00000000       0x4d CMakeFiles/FreeRTOS_Blink.dir/src/main.c.obj
                                 0x4e (size before relaxing)
 .comment       0x0000004d       0x4e CMakeFiles/FreeRTOS_Blink.dir/E_/Pi_Pico/pico-sdk/src/rp2_common/hardware_gpio/gpio.c.obj
 .comment       0x0000004d       0x4e CMakeFiles/FreeRTOS_Blink.dir/E_/Pi_Pico/pico-sdk/src/rp2_common/hardware_claim/claim.c.obj
 .comment       0x0000004d       0x4e CMakeFiles/FreeRTOS_Blink.dir/E_/Pi_Pico/pico-sdk/src/rp2_common/hardware_sync/sync.c.obj
 .comment       0x0000004d       0x4e CMakeFiles/FreeRTOS_Blink.dir/E_/Pi_Pico/pico-sdk/src/rp2_common/pico_platform/platform.c.obj
 .comment       0x0000004d       0x4e CMakeFiles/FreeRTOS_Blink.dir/E_/Pi_Pico/pico-sdk/src/common/pico_time/time.c.obj
 .comment       0x0000004d       0x4e CMakeFiles/FreeRTOS_Blink.dir/E_/Pi_Pico/pico-sdk/src/rp2_common/hardware_timer/timer.c.obj
 .comment       0x0000004d       0x4e CMakeFiles/FreeRTOS_Blink.dir/E_/Pi_Pico/pico-sdk/src/common/pico_sync/lock_core.c.obj
 .comment       0x0000004d       0x4e CMakeFiles/FreeRTOS_Blink.dir/E_/Pi_Pico/pico-sdk/src/common/pico_sync/mutex.c.obj
 .comment       0x0000004d       0x4e CMakeFiles/FreeRTOS_Blink.dir/E_/Pi_Pico/pico-sdk/src/common/pico_sync/critical_section.c.obj
 .comment       0x0000004d       0x4e CMakeFiles/FreeRTOS_Blink.dir/E_/Pi_Pico/pico-sdk/src/common/pico_util/pheap.c.obj
 .comment       0x0000004d       0x4e CMakeFiles/FreeRTOS_Blink.dir/E_/Pi_Pico/pico-sdk/src/rp2_common/pico_runtime/runtime.c.obj
 .comment       0x0000004d       0x4e CMakeFiles/FreeRTOS_Blink.dir/E_/Pi_Pico/pico-sdk/src/rp2_common/hardware_clocks/clocks.c.obj
 .comment       0x0000004d       0x4e CMakeFiles/FreeRTOS_Blink.dir/E_/Pi_Pico/pico-sdk/src/rp2_common/hardware_watchdog/watchdog.c.obj
 .comment       0x0000004d       0x4e CMakeFiles/FreeRTOS_Blink.dir/E_/Pi_Pico/pico-sdk/src/rp2_common/hardware_xosc/xosc.c.obj
 .comment       0x0000004d       0x4e CMakeFiles/FreeRTOS_Blink.dir/E_/Pi_Pico/pico-sdk/src/rp2_common/hardware_pll/pll.c.obj
 .comment       0x0000004d       0x4e CMakeFiles/FreeRTOS_Blink.dir/E_/Pi_Pico/pico-sdk/src/rp2_common/hardware_irq/irq.c.obj
 .comment       0x0000004d       0x4e CMakeFiles/FreeRTOS_Blink.dir/E_/Pi_Pico/pico-sdk/src/rp2_common/pico_printf/printf.c.obj
 .comment       0x0000004d       0x4e CMakeFiles/FreeRTOS_Blink.dir/E_/Pi_Pico/pico-sdk/src/rp2_common/pico_bootrom/bootrom.c.obj
 .comment       0x0000004d       0x4e CMakeFiles/FreeRTOS_Blink.dir/E_/Pi_Pico/pico-sdk/src/rp2_common/pico_double/double_init_rom.c.obj
 .comment       0x0000004d       0x4e CMakeFiles/FreeRTOS_Blink.dir/E_/Pi_Pico/pico-sdk/src/rp2_common/pico_float/float_init_rom.c.obj
 .comment       0x0000004d       0x4e CMakeFiles/FreeRTOS_Blink.dir/E_/Pi_Pico/pico-sdk/src/rp2_common/pico_malloc/pico_malloc.c.obj
 .comment       0x0000004d       0x4e CMakeFiles/FreeRTOS_Blink.dir/E_/Pi_Pico/pico-sdk/src/rp2_common/pico_standard_link/binary_info.c.obj
 .comment       0x0000004d       0x4e CMakeFiles/FreeRTOS_Blink.dir/E_/Pi_Pico/pico-sdk/src/rp2_common/pico_stdio/stdio.c.obj
 .comment       0x0000004d       0x4e CMakeFiles/FreeRTOS_Blink.dir/E_/Pi_Pico/pico-sdk/src/rp2_common/pico_stdio_usb/stdio_usb.c.obj
 .comment       0x0000004d       0x4e CMakeFiles/FreeRTOS_Blink.dir/E_/Pi_Pico/pico-sdk/src/rp2_common/pico_stdio_usb/stdio_usb_descriptors.c.obj
 .comment       0x0000004d       0x4e CMakeFiles/FreeRTOS_Blink.dir/E_/Pi_Pico/pico-sdk/lib/tinyusb/src/portable/raspberrypi/rp2040/dcd_rp2040.c.obj
 .comment       0x0000004d       0x4e CMakeFiles/FreeRTOS_Blink.dir/E_/Pi_Pico/pico-sdk/lib/tinyusb/src/portable/raspberrypi/rp2040/rp2040_usb.c.obj
 .comment       0x0000004d       0x4e CMakeFiles/FreeRTOS_Blink.dir/E_/Pi_Pico/pico-sdk/lib/tinyusb/src/device/usbd.c.obj
 .comment       0x0000004d       0x4e CMakeFiles/FreeRTOS_Blink.dir/E_/Pi_Pico/pico-sdk/lib/tinyusb/src/device/usbd_control.c.obj
 .comment       0x0000004d       0x4e CMakeFiles/FreeRTOS_Blink.dir/E_/Pi_Pico/pico-sdk/lib/tinyusb/src/class/cdc/cdc_device.c.obj
 .comment       0x0000004d       0x4e CMakeFiles/FreeRTOS_Blink.dir/E_/Pi_Pico/pico-sdk/lib/tinyusb/src/tusb.c.obj
 .comment       0x0000004d       0x4e CMakeFiles/FreeRTOS_Blink.dir/E_/Pi_Pico/pico-sdk/lib/tinyusb/src/common/tusb_fifo.c.obj
 .comment       0x0000004d       0x4e libFreeRTOS.a(tasks.c.obj)
 .comment       0x0000004d       0x4e libFreeRTOS.a(timers.c.obj)
 .comment       0x0000004d       0x4e libFreeRTOS.a(port.c.obj)
 .comment       0x0000004d       0x4e libFreeRTOS.a(heap_4.c.obj)
 .comment       0x0000004d       0x4e libFreeRTOS.a(list.c.obj)
 .comment       0x0000004d       0x4e libFreeRTOS.a(queue.c.obj)

.debug_info     0x00000000    0x21354
 .debug_info    0x00000000      0x899 CMakeFiles/FreeRTOS_Blink.dir/src/main.c.obj
 .debug_info    0x00000899     0x1141 CMakeFiles/FreeRTOS_Blink.dir/E_/Pi_Pico/pico-sdk/src/rp2_common/hardware_gpio/gpio.c.obj
 .debug_info    0x000019da      0x620 CMakeFiles/FreeRTOS_Blink.dir/E_/Pi_Pico/pico-sdk/src/rp2_common/hardware_claim/claim.c.obj
 .debug_info    0x00001ffa      0x4a5 CMakeFiles/FreeRTOS_Blink.dir/E_/Pi_Pico/pico-sdk/src/rp2_common/hardware_sync/sync.c.obj
 .debug_info    0x0000249f      0x1d5 CMakeFiles/FreeRTOS_Blink.dir/E_/Pi_Pico/pico-sdk/src/rp2_common/pico_platform/platform.c.obj
 .debug_info    0x00002674     0x3349 CMakeFiles/FreeRTOS_Blink.dir/E_/Pi_Pico/pico-sdk/src/common/pico_time/time.c.obj
 .debug_info    0x000059bd      0xf9d CMakeFiles/FreeRTOS_Blink.dir/E_/Pi_Pico/pico-sdk/src/rp2_common/hardware_timer/timer.c.obj
 .debug_info    0x0000695a      0x1c5 CMakeFiles/FreeRTOS_Blink.dir/E_/Pi_Pico/pico-sdk/src/common/pico_sync/lock_core.c.obj
 .debug_info    0x00006b1f      0xd50 CMakeFiles/FreeRTOS_Blink.dir/E_/Pi_Pico/pico-sdk/src/common/pico_sync/mutex.c.obj
 .debug_info    0x0000786f      0x292 CMakeFiles/FreeRTOS_Blink.dir/E_/Pi_Pico/pico-sdk/src/common/pico_sync/critical_section.c.obj
 .debug_info    0x00007b01     0x1164 CMakeFiles/FreeRTOS_Blink.dir/E_/Pi_Pico/pico-sdk/src/common/pico_util/pheap.c.obj
 .debug_info    0x00008c65      0x986 CMakeFiles/FreeRTOS_Blink.dir/E_/Pi_Pico/pico-sdk/src/rp2_common/pico_runtime/runtime.c.obj
 .debug_info    0x000095eb     0x1068 CMakeFiles/FreeRTOS_Blink.dir/E_/Pi_Pico/pico-sdk/src/rp2_common/hardware_clocks/clocks.c.obj
 .debug_info    0x0000a653      0x49c CMakeFiles/FreeRTOS_Blink.dir/E_/Pi_Pico/pico-sdk/src/rp2_common/hardware_watchdog/watchdog.c.obj
 .debug_info    0x0000aaef      0x214 CMakeFiles/FreeRTOS_Blink.dir/E_/Pi_Pico/pico-sdk/src/rp2_common/hardware_xosc/xosc.c.obj
 .debug_info    0x0000ad03      0x3c1 CMakeFiles/FreeRTOS_Blink.dir/E_/Pi_Pico/pico-sdk/src/rp2_common/hardware_pll/pll.c.obj
 .debug_info    0x0000b0c4     0x1807 CMakeFiles/FreeRTOS_Blink.dir/E_/Pi_Pico/pico-sdk/src/rp2_common/hardware_irq/irq.c.obj
 .debug_info    0x0000c8cb       0x26 CMakeFiles/FreeRTOS_Blink.dir/E_/Pi_Pico/pico-sdk/src/rp2_common/hardware_irq/irq_handler_chain.S.obj
 .debug_info    0x0000c8f1     0x1a32 CMakeFiles/FreeRTOS_Blink.dir/E_/Pi_Pico/pico-sdk/src/rp2_common/pico_printf/printf.c.obj
 .debug_info    0x0000e323       0x22 CMakeFiles/FreeRTOS_Blink.dir/E_/Pi_Pico/pico-sdk/src/rp2_common/pico_bit_ops/bit_ops_aeabi.S.obj
 .debug_info    0x0000e345      0x231 CMakeFiles/FreeRTOS_Blink.dir/E_/Pi_Pico/pico-sdk/src/rp2_common/pico_bootrom/bootrom.c.obj
 .debug_info    0x0000e576       0x22 CMakeFiles/FreeRTOS_Blink.dir/E_/Pi_Pico/pico-sdk/src/rp2_common/pico_divider/divider.S.obj
 .debug_info    0x0000e598       0x22 CMakeFiles/FreeRTOS_Blink.dir/E_/Pi_Pico/pico-sdk/src/rp2_common/pico_double/double_aeabi.S.obj
 .debug_info    0x0000e5ba      0x2a0 CMakeFiles/FreeRTOS_Blink.dir/E_/Pi_Pico/pico-sdk/src/rp2_common/pico_double/double_init_rom.c.obj
 .debug_info    0x0000e85a       0x22 CMakeFiles/FreeRTOS_Blink.dir/E_/Pi_Pico/pico-sdk/src/rp2_common/pico_double/double_v1_rom_shim.S.obj
 .debug_info    0x0000e87c       0x26 CMakeFiles/FreeRTOS_Blink.dir/E_/Pi_Pico/pico-sdk/src/rp2_common/pico_int64_ops/pico_int64_ops_aeabi.S.obj
 .debug_info    0x0000e8a2       0x22 CMakeFiles/FreeRTOS_Blink.dir/E_/Pi_Pico/pico-sdk/src/rp2_common/pico_float/float_aeabi.S.obj
 .debug_info    0x0000e8c4      0x2ef CMakeFiles/FreeRTOS_Blink.dir/E_/Pi_Pico/pico-sdk/src/rp2_common/pico_float/float_init_rom.c.obj
 .debug_info    0x0000ebb3       0x22 CMakeFiles/FreeRTOS_Blink.dir/E_/Pi_Pico/pico-sdk/src/rp2_common/pico_float/float_v1_rom_shim.S.obj
 .debug_info    0x0000ebd5      0x1e7 CMakeFiles/FreeRTOS_Blink.dir/E_/Pi_Pico/pico-sdk/src/rp2_common/pico_malloc/pico_malloc.c.obj
 .debug_info    0x0000edbc       0x22 CMakeFiles/FreeRTOS_Blink.dir/E_/Pi_Pico/pico-sdk/src/rp2_common/pico_mem_ops/mem_ops_aeabi.S.obj
 .debug_info    0x0000edde       0x22 CMakeFiles/FreeRTOS_Blink.dir/E_/Pi_Pico/pico-sdk/src/rp2_common/pico_standard_link/crt0.S.obj
 .debug_info    0x0000ee00      0x2c5 CMakeFiles/FreeRTOS_Blink.dir/E_/Pi_Pico/pico-sdk/src/rp2_common/pico_standard_link/binary_info.c.obj
 .debug_info    0x0000f0c5     0x1064 CMakeFiles/FreeRTOS_Blink.dir/E_/Pi_Pico/pico-sdk/src/rp2_common/pico_stdio/stdio.c.obj
 .debug_info    0x00010129      0xe0d CMakeFiles/FreeRTOS_Blink.dir/E_/Pi_Pico/pico-sdk/src/rp2_common/pico_stdio_usb/stdio_usb.c.obj
 .debug_info    0x00010f36      0x618 CMakeFiles/FreeRTOS_Blink.dir/E_/Pi_Pico/pico-sdk/src/rp2_common/pico_stdio_usb/stdio_usb_descriptors.c.obj
 .debug_info    0x0001154e     0x1a31 CMakeFiles/FreeRTOS_Blink.dir/E_/Pi_Pico/pico-sdk/lib/tinyusb/src/portable/raspberrypi/rp2040/dcd_rp2040.c.obj
 .debug_info    0x00012f7f      0xca4 CMakeFiles/FreeRTOS_Blink.dir/E_/Pi_Pico/pico-sdk/lib/tinyusb/src/portable/raspberrypi/rp2040/rp2040_usb.c.obj
 .debug_info    0x00013c23     0x3fac CMakeFiles/FreeRTOS_Blink.dir/E_/Pi_Pico/pico-sdk/lib/tinyusb/src/device/usbd.c.obj
 .debug_info    0x00017bcf      0x9ea CMakeFiles/FreeRTOS_Blink.dir/E_/Pi_Pico/pico-sdk/lib/tinyusb/src/device/usbd_control.c.obj
 .debug_info    0x000185b9     0x1b30 CMakeFiles/FreeRTOS_Blink.dir/E_/Pi_Pico/pico-sdk/lib/tinyusb/src/class/cdc/cdc_device.c.obj
 .debug_info    0x0001a0e9      0x511 CMakeFiles/FreeRTOS_Blink.dir/E_/Pi_Pico/pico-sdk/lib/tinyusb/src/tusb.c.obj
 .debug_info    0x0001a5fa     0x166f CMakeFiles/FreeRTOS_Blink.dir/E_/Pi_Pico/pico-sdk/lib/tinyusb/src/common/tusb_fifo.c.obj
 .debug_info    0x0001bc69     0x2229 libFreeRTOS.a(tasks.c.obj)
 .debug_info    0x0001de92     0x10c8 libFreeRTOS.a(timers.c.obj)
 .debug_info    0x0001ef5a      0x2e3 libFreeRTOS.a(port.c.obj)
 .debug_info    0x0001f23d      0x532 libFreeRTOS.a(heap_4.c.obj)
 .debug_info    0x0001f76f      0x2e0 libFreeRTOS.a(list.c.obj)
 .debug_info    0x0001fa4f     0x1905 libFreeRTOS.a(queue.c.obj)

.debug_abbrev   0x00000000     0x643a
 .debug_abbrev  0x00000000      0x1f9 CMakeFiles/FreeRTOS_Blink.dir/src/main.c.obj
 .debug_abbrev  0x000001f9      0x309 CMakeFiles/FreeRTOS_Blink.dir/E_/Pi_Pico/pico-sdk/src/rp2_common/hardware_gpio/gpio.c.obj
 .debug_abbrev  0x00000502      0x276 CMakeFiles/FreeRTOS_Blink.dir/E_/Pi_Pico/pico-sdk/src/rp2_common/hardware_claim/claim.c.obj
 .debug_abbrev  0x00000778      0x212 CMakeFiles/FreeRTOS_Blink.dir/E_/Pi_Pico/pico-sdk/src/rp2_common/hardware_sync/sync.c.obj
 .debug_abbrev  0x0000098a       0xe7 CMakeFiles/FreeRTOS_Blink.dir/E_/Pi_Pico/pico-sdk/src/rp2_common/pico_platform/platform.c.obj
 .debug_abbrev  0x00000a71      0x54b CMakeFiles/FreeRTOS_Blink.dir/E_/Pi_Pico/pico-sdk/src/common/pico_time/time.c.obj
 .debug_abbrev  0x00000fbc      0x34c CMakeFiles/FreeRTOS_Blink.dir/E_/Pi_Pico/pico-sdk/src/rp2_common/hardware_timer/timer.c.obj
 .debug_abbrev  0x00001308      0x133 CMakeFiles/FreeRTOS_Blink.dir/E_/Pi_Pico/pico-sdk/src/common/pico_sync/lock_core.c.obj
 .debug_abbrev  0x0000143b      0x32b CMakeFiles/FreeRTOS_Blink.dir/E_/Pi_Pico/pico-sdk/src/common/pico_sync/mutex.c.obj
 .debug_abbrev  0x00001766      0x199 CMakeFiles/FreeRTOS_Blink.dir/E_/Pi_Pico/pico-sdk/src/common/pico_sync/critical_section.c.obj
 .debug_abbrev  0x000018ff      0x297 CMakeFiles/FreeRTOS_Blink.dir/E_/Pi_Pico/pico-sdk/src/common/pico_util/pheap.c.obj
 .debug_abbrev  0x00001b96      0x348 CMakeFiles/FreeRTOS_Blink.dir/E_/Pi_Pico/pico-sdk/src/rp2_common/pico_runtime/runtime.c.obj
 .debug_abbrev  0x00001ede      0x386 CMakeFiles/FreeRTOS_Blink.dir/E_/Pi_Pico/pico-sdk/src/rp2_common/hardware_clocks/clocks.c.obj
 .debug_abbrev  0x00002264      0x1b1 CMakeFiles/FreeRTOS_Blink.dir/E_/Pi_Pico/pico-sdk/src/rp2_common/hardware_watchdog/watchdog.c.obj
 .debug_abbrev  0x00002415      0x12c CMakeFiles/FreeRTOS_Blink.dir/E_/Pi_Pico/pico-sdk/src/rp2_common/hardware_xosc/xosc.c.obj
 .debug_abbrev  0x00002541      0x1bc CMakeFiles/FreeRTOS_Blink.dir/E_/Pi_Pico/pico-sdk/src/rp2_common/hardware_pll/pll.c.obj
 .debug_abbrev  0x000026fd      0x494 CMakeFiles/FreeRTOS_Blink.dir/E_/Pi_Pico/pico-sdk/src/rp2_common/hardware_irq/irq.c.obj
 .debug_abbrev  0x00002b91       0x14 CMakeFiles/FreeRTOS_Blink.dir/E_/Pi_Pico/pico-sdk/src/rp2_common/hardware_irq/irq_handler_chain.S.obj
 .debug_abbrev  0x00002ba5      0x384 CMakeFiles/FreeRTOS_Blink.dir/E_/Pi_Pico/pico-sdk/src/rp2_common/pico_printf/printf.c.obj
 .debug_abbrev  0x00002f29       0x12 CMakeFiles/FreeRTOS_Blink.dir/E_/Pi_Pico/pico-sdk/src/rp2_common/pico_bit_ops/bit_ops_aeabi.S.obj
 .debug_abbrev  0x00002f3b       0xf8 CMakeFiles/FreeRTOS_Blink.dir/E_/Pi_Pico/pico-sdk/src/rp2_common/pico_bootrom/bootrom.c.obj
 .debug_abbrev  0x00003033       0x12 CMakeFiles/FreeRTOS_Blink.dir/E_/Pi_Pico/pico-sdk/src/rp2_common/pico_divider/divider.S.obj
 .debug_abbrev  0x00003045       0x12 CMakeFiles/FreeRTOS_Blink.dir/E_/Pi_Pico/pico-sdk/src/rp2_common/pico_double/double_aeabi.S.obj
 .debug_abbrev  0x00003057      0x162 CMakeFiles/FreeRTOS_Blink.dir/E_/Pi_Pico/pico-sdk/src/rp2_common/pico_double/double_init_rom.c.obj
 .debug_abbrev  0x000031b9       0x12 CMakeFiles/FreeRTOS_Blink.dir/E_/Pi_Pico/pico-sdk/src/rp2_common/pico_double/double_v1_rom_shim.S.obj
 .debug_abbrev  0x000031cb       0x14 CMakeFiles/FreeRTOS_Blink.dir/E_/Pi_Pico/pico-sdk/src/rp2_common/pico_int64_ops/pico_int64_ops_aeabi.S.obj
 .debug_abbrev  0x000031df       0x12 CMakeFiles/FreeRTOS_Blink.dir/E_/Pi_Pico/pico-sdk/src/rp2_common/pico_float/float_aeabi.S.obj
 .debug_abbrev  0x000031f1      0x17a CMakeFiles/FreeRTOS_Blink.dir/E_/Pi_Pico/pico-sdk/src/rp2_common/pico_float/float_init_rom.c.obj
 .debug_abbrev  0x0000336b       0x12 CMakeFiles/FreeRTOS_Blink.dir/E_/Pi_Pico/pico-sdk/src/rp2_common/pico_float/float_v1_rom_shim.S.obj
 .debug_abbrev  0x0000337d      0x111 CMakeFiles/FreeRTOS_Blink.dir/E_/Pi_Pico/pico-sdk/src/rp2_common/pico_malloc/pico_malloc.c.obj
 .debug_abbrev  0x0000348e       0x12 CMakeFiles/FreeRTOS_Blink.dir/E_/Pi_Pico/pico-sdk/src/rp2_common/pico_mem_ops/mem_ops_aeabi.S.obj
 .debug_abbrev  0x000034a0       0x12 CMakeFiles/FreeRTOS_Blink.dir/E_/Pi_Pico/pico-sdk/src/rp2_common/pico_standard_link/crt0.S.obj
 .debug_abbrev  0x000034b2       0xad CMakeFiles/FreeRTOS_Blink.dir/E_/Pi_Pico/pico-sdk/src/rp2_common/pico_standard_link/binary_info.c.obj
 .debug_abbrev  0x0000355f      0x4f4 CMakeFiles/FreeRTOS_Blink.dir/E_/Pi_Pico/pico-sdk/src/rp2_common/pico_stdio/stdio.c.obj
 .debug_abbrev  0x00003a53      0x3df CMakeFiles/FreeRTOS_Blink.dir/E_/Pi_Pico/pico-sdk/src/rp2_common/pico_stdio_usb/stdio_usb.c.obj
 .debug_abbrev  0x00003e32      0x122 CMakeFiles/FreeRTOS_Blink.dir/E_/Pi_Pico/pico-sdk/src/rp2_common/pico_stdio_usb/stdio_usb_descriptors.c.obj
 .debug_abbrev  0x00003f54      0x3fa CMakeFiles/FreeRTOS_Blink.dir/E_/Pi_Pico/pico-sdk/lib/tinyusb/src/portable/raspberrypi/rp2040/dcd_rp2040.c.obj
 .debug_abbrev  0x0000434e      0x31a CMakeFiles/FreeRTOS_Blink.dir/E_/Pi_Pico/pico-sdk/lib/tinyusb/src/portable/raspberrypi/rp2040/rp2040_usb.c.obj
 .debug_abbrev  0x00004668      0x57f CMakeFiles/FreeRTOS_Blink.dir/E_/Pi_Pico/pico-sdk/lib/tinyusb/src/device/usbd.c.obj
 .debug_abbrev  0x00004be7      0x303 CMakeFiles/FreeRTOS_Blink.dir/E_/Pi_Pico/pico-sdk/lib/tinyusb/src/device/usbd_control.c.obj
 .debug_abbrev  0x00004eea      0x444 CMakeFiles/FreeRTOS_Blink.dir/E_/Pi_Pico/pico-sdk/lib/tinyusb/src/class/cdc/cdc_device.c.obj
 .debug_abbrev  0x0000532e      0x200 CMakeFiles/FreeRTOS_Blink.dir/E_/Pi_Pico/pico-sdk/lib/tinyusb/src/tusb.c.obj
 .debug_abbrev  0x0000552e      0x33a CMakeFiles/FreeRTOS_Blink.dir/E_/Pi_Pico/pico-sdk/lib/tinyusb/src/common/tusb_fifo.c.obj
 .debug_abbrev  0x00005868      0x2a1 libFreeRTOS.a(tasks.c.obj)
 .debug_abbrev  0x00005b09      0x249 libFreeRTOS.a(timers.c.obj)
 .debug_abbrev  0x00005d52      0x1ac libFreeRTOS.a(port.c.obj)
 .debug_abbrev  0x00005efe      0x1f2 libFreeRTOS.a(heap_4.c.obj)
 .debug_abbrev  0x000060f0      0x106 libFreeRTOS.a(list.c.obj)
 .debug_abbrev  0x000061f6      0x244 libFreeRTOS.a(queue.c.obj)

.debug_loc      0x00000000    0x16499
 .debug_loc     0x00000000      0x272 CMakeFiles/FreeRTOS_Blink.dir/src/main.c.obj
 .debug_loc     0x00000272      0xafe CMakeFiles/FreeRTOS_Blink.dir/E_/Pi_Pico/pico-sdk/src/rp2_common/hardware_gpio/gpio.c.obj
 .debug_loc     0x00000d70      0x457 CMakeFiles/FreeRTOS_Blink.dir/E_/Pi_Pico/pico-sdk/src/rp2_common/hardware_claim/claim.c.obj
 .debug_loc     0x000011c7      0x1d7 CMakeFiles/FreeRTOS_Blink.dir/E_/Pi_Pico/pico-sdk/src/rp2_common/hardware_sync/sync.c.obj
 .debug_loc     0x0000139e       0xe9 CMakeFiles/FreeRTOS_Blink.dir/E_/Pi_Pico/pico-sdk/src/rp2_common/pico_platform/platform.c.obj
 .debug_loc     0x00001487     0x28f8 CMakeFiles/FreeRTOS_Blink.dir/E_/Pi_Pico/pico-sdk/src/common/pico_time/time.c.obj
 .debug_loc     0x00003d7f      0x831 CMakeFiles/FreeRTOS_Blink.dir/E_/Pi_Pico/pico-sdk/src/rp2_common/hardware_timer/timer.c.obj
 .debug_loc     0x000045b0       0xa2 CMakeFiles/FreeRTOS_Blink.dir/E_/Pi_Pico/pico-sdk/src/common/pico_sync/lock_core.c.obj
 .debug_loc     0x00004652      0x641 CMakeFiles/FreeRTOS_Blink.dir/E_/Pi_Pico/pico-sdk/src/common/pico_sync/mutex.c.obj
 .debug_loc     0x00004c93       0xc9 CMakeFiles/FreeRTOS_Blink.dir/E_/Pi_Pico/pico-sdk/src/common/pico_sync/critical_section.c.obj
 .debug_loc     0x00004d5c     0x13a5 CMakeFiles/FreeRTOS_Blink.dir/E_/Pi_Pico/pico-sdk/src/common/pico_util/pheap.c.obj
 .debug_loc     0x00006101      0x3d7 CMakeFiles/FreeRTOS_Blink.dir/E_/Pi_Pico/pico-sdk/src/rp2_common/pico_runtime/runtime.c.obj
 .debug_loc     0x000064d8      0x890 CMakeFiles/FreeRTOS_Blink.dir/E_/Pi_Pico/pico-sdk/src/rp2_common/hardware_clocks/clocks.c.obj
 .debug_loc     0x00006d68      0x267 CMakeFiles/FreeRTOS_Blink.dir/E_/Pi_Pico/pico-sdk/src/rp2_common/hardware_watchdog/watchdog.c.obj
 .debug_loc     0x00006fcf       0x71 CMakeFiles/FreeRTOS_Blink.dir/E_/Pi_Pico/pico-sdk/src/rp2_common/hardware_xosc/xosc.c.obj
 .debug_loc     0x00007040      0x278 CMakeFiles/FreeRTOS_Blink.dir/E_/Pi_Pico/pico-sdk/src/rp2_common/hardware_pll/pll.c.obj
 .debug_loc     0x000072b8     0x1240 CMakeFiles/FreeRTOS_Blink.dir/E_/Pi_Pico/pico-sdk/src/rp2_common/hardware_irq/irq.c.obj
 .debug_loc     0x000084f8     0x203e CMakeFiles/FreeRTOS_Blink.dir/E_/Pi_Pico/pico-sdk/src/rp2_common/pico_printf/printf.c.obj
 .debug_loc     0x0000a536      0x16f CMakeFiles/FreeRTOS_Blink.dir/E_/Pi_Pico/pico-sdk/src/rp2_common/pico_bootrom/bootrom.c.obj
 .debug_loc     0x0000a6a5       0x59 CMakeFiles/FreeRTOS_Blink.dir/E_/Pi_Pico/pico-sdk/src/rp2_common/pico_double/double_init_rom.c.obj
 .debug_loc     0x0000a6fe       0x73 CMakeFiles/FreeRTOS_Blink.dir/E_/Pi_Pico/pico-sdk/src/rp2_common/pico_float/float_init_rom.c.obj
 .debug_loc     0x0000a771       0xbe CMakeFiles/FreeRTOS_Blink.dir/E_/Pi_Pico/pico-sdk/src/rp2_common/pico_malloc/pico_malloc.c.obj
 .debug_loc     0x0000a82f      0x993 CMakeFiles/FreeRTOS_Blink.dir/E_/Pi_Pico/pico-sdk/src/rp2_common/pico_stdio/stdio.c.obj
 .debug_loc     0x0000b1c2      0x465 CMakeFiles/FreeRTOS_Blink.dir/E_/Pi_Pico/pico-sdk/src/rp2_common/pico_stdio_usb/stdio_usb.c.obj
 .debug_loc     0x0000b627      0x133 CMakeFiles/FreeRTOS_Blink.dir/E_/Pi_Pico/pico-sdk/src/rp2_common/pico_stdio_usb/stdio_usb_descriptors.c.obj
 .debug_loc     0x0000b75a      0xd88 CMakeFiles/FreeRTOS_Blink.dir/E_/Pi_Pico/pico-sdk/lib/tinyusb/src/portable/raspberrypi/rp2040/dcd_rp2040.c.obj
 .debug_loc     0x0000c4e2      0x583 CMakeFiles/FreeRTOS_Blink.dir/E_/Pi_Pico/pico-sdk/lib/tinyusb/src/portable/raspberrypi/rp2040/rp2040_usb.c.obj
 .debug_loc     0x0000ca65     0x22ec CMakeFiles/FreeRTOS_Blink.dir/E_/Pi_Pico/pico-sdk/lib/tinyusb/src/device/usbd.c.obj
 .debug_loc     0x0000ed51      0x5b9 CMakeFiles/FreeRTOS_Blink.dir/E_/Pi_Pico/pico-sdk/lib/tinyusb/src/device/usbd_control.c.obj
 .debug_loc     0x0000f30a      0xf74 CMakeFiles/FreeRTOS_Blink.dir/E_/Pi_Pico/pico-sdk/lib/tinyusb/src/class/cdc/cdc_device.c.obj
 .debug_loc     0x0001027e      0x2c7 CMakeFiles/FreeRTOS_Blink.dir/E_/Pi_Pico/pico-sdk/lib/tinyusb/src/tusb.c.obj
 .debug_loc     0x00010545     0x14dd CMakeFiles/FreeRTOS_Blink.dir/E_/Pi_Pico/pico-sdk/lib/tinyusb/src/common/tusb_fifo.c.obj
 .debug_loc     0x00011a22     0x1e68 libFreeRTOS.a(tasks.c.obj)
 .debug_loc     0x0001388a      0xd39 libFreeRTOS.a(timers.c.obj)
 .debug_loc     0x000145c3       0xbe libFreeRTOS.a(port.c.obj)
 .debug_loc     0x00014681      0x462 libFreeRTOS.a(heap_4.c.obj)
 .debug_loc     0x00014ae3       0xad libFreeRTOS.a(list.c.obj)
 .debug_loc     0x00014b90     0x1909 libFreeRTOS.a(queue.c.obj)

.debug_aranges  0x00000000     0x1230
 .debug_aranges
                0x00000000       0x30 CMakeFiles/FreeRTOS_Blink.dir/src/main.c.obj
 .debug_aranges
                0x00000030       0xa0 CMakeFiles/FreeRTOS_Blink.dir/E_/Pi_Pico/pico-sdk/src/rp2_common/hardware_gpio/gpio.c.obj
 .debug_aranges
                0x000000d0       0x48 CMakeFiles/FreeRTOS_Blink.dir/E_/Pi_Pico/pico-sdk/src/rp2_common/hardware_claim/claim.c.obj
 .debug_aranges
                0x00000118       0x50 CMakeFiles/FreeRTOS_Blink.dir/E_/Pi_Pico/pico-sdk/src/rp2_common/hardware_sync/sync.c.obj
 .debug_aranges
                0x00000168       0x28 CMakeFiles/FreeRTOS_Blink.dir/E_/Pi_Pico/pico-sdk/src/rp2_common/pico_platform/platform.c.obj
 .debug_aranges
                0x00000190       0xc8 CMakeFiles/FreeRTOS_Blink.dir/E_/Pi_Pico/pico-sdk/src/common/pico_time/time.c.obj
 .debug_aranges
                0x00000258       0x68 CMakeFiles/FreeRTOS_Blink.dir/E_/Pi_Pico/pico-sdk/src/rp2_common/hardware_timer/timer.c.obj
 .debug_aranges
                0x000002c0       0x20 CMakeFiles/FreeRTOS_Blink.dir/E_/Pi_Pico/pico-sdk/src/common/pico_sync/lock_core.c.obj
 .debug_aranges
                0x000002e0       0x48 CMakeFiles/FreeRTOS_Blink.dir/E_/Pi_Pico/pico-sdk/src/common/pico_sync/mutex.c.obj
 .debug_aranges
                0x00000328       0x30 CMakeFiles/FreeRTOS_Blink.dir/E_/Pi_Pico/pico-sdk/src/common/pico_sync/critical_section.c.obj
 .debug_aranges
                0x00000358       0x70 CMakeFiles/FreeRTOS_Blink.dir/E_/Pi_Pico/pico-sdk/src/common/pico_util/pheap.c.obj
 .debug_aranges
                0x000003c8       0x60 CMakeFiles/FreeRTOS_Blink.dir/E_/Pi_Pico/pico-sdk/src/rp2_common/pico_runtime/runtime.c.obj
 .debug_aranges
                0x00000428       0x70 CMakeFiles/FreeRTOS_Blink.dir/E_/Pi_Pico/pico-sdk/src/rp2_common/hardware_clocks/clocks.c.obj
 .debug_aranges
                0x00000498       0x50 CMakeFiles/FreeRTOS_Blink.dir/E_/Pi_Pico/pico-sdk/src/rp2_common/hardware_watchdog/watchdog.c.obj
 .debug_aranges
                0x000004e8       0x30 CMakeFiles/FreeRTOS_Blink.dir/E_/Pi_Pico/pico-sdk/src/rp2_common/hardware_xosc/xosc.c.obj
 .debug_aranges
                0x00000518       0x28 CMakeFiles/FreeRTOS_Blink.dir/E_/Pi_Pico/pico-sdk/src/rp2_common/hardware_pll/pll.c.obj
 .debug_aranges
                0x00000540       0x90 CMakeFiles/FreeRTOS_Blink.dir/E_/Pi_Pico/pico-sdk/src/rp2_common/hardware_irq/irq.c.obj
 .debug_aranges
                0x000005d0       0x20 CMakeFiles/FreeRTOS_Blink.dir/E_/Pi_Pico/pico-sdk/src/rp2_common/hardware_irq/irq_handler_chain.S.obj
 .debug_aranges
                0x000005f0       0x90 CMakeFiles/FreeRTOS_Blink.dir/E_/Pi_Pico/pico-sdk/src/rp2_common/pico_printf/printf.c.obj
 .debug_aranges
                0x00000680       0x68 CMakeFiles/FreeRTOS_Blink.dir/E_/Pi_Pico/pico-sdk/src/rp2_common/pico_bit_ops/bit_ops_aeabi.S.obj
 .debug_aranges
                0x000006e8       0x30 CMakeFiles/FreeRTOS_Blink.dir/E_/Pi_Pico/pico-sdk/src/rp2_common/pico_bootrom/bootrom.c.obj
 .debug_aranges
                0x00000718       0x40 CMakeFiles/FreeRTOS_Blink.dir/E_/Pi_Pico/pico-sdk/src/rp2_common/pico_divider/divider.S.obj
 .debug_aranges
                0x00000758      0x140 CMakeFiles/FreeRTOS_Blink.dir/E_/Pi_Pico/pico-sdk/src/rp2_common/pico_double/double_aeabi.S.obj
 .debug_aranges
                0x00000898       0x20 CMakeFiles/FreeRTOS_Blink.dir/E_/Pi_Pico/pico-sdk/src/rp2_common/pico_double/double_init_rom.c.obj
 .debug_aranges
                0x000008b8       0xc8 CMakeFiles/FreeRTOS_Blink.dir/E_/Pi_Pico/pico-sdk/src/rp2_common/pico_double/double_v1_rom_shim.S.obj
 .debug_aranges
                0x00000980       0x20 CMakeFiles/FreeRTOS_Blink.dir/E_/Pi_Pico/pico-sdk/src/rp2_common/pico_int64_ops/pico_int64_ops_aeabi.S.obj
 .debug_aranges
                0x000009a0      0x130 CMakeFiles/FreeRTOS_Blink.dir/E_/Pi_Pico/pico-sdk/src/rp2_common/pico_float/float_aeabi.S.obj
 .debug_aranges
                0x00000ad0       0x20 CMakeFiles/FreeRTOS_Blink.dir/E_/Pi_Pico/pico-sdk/src/rp2_common/pico_float/float_init_rom.c.obj
 .debug_aranges
                0x00000af0       0x50 CMakeFiles/FreeRTOS_Blink.dir/E_/Pi_Pico/pico-sdk/src/rp2_common/pico_float/float_v1_rom_shim.S.obj
 .debug_aranges
                0x00000b40       0x30 CMakeFiles/FreeRTOS_Blink.dir/E_/Pi_Pico/pico-sdk/src/rp2_common/pico_malloc/pico_malloc.c.obj
 .debug_aranges
                0x00000b70       0x38 CMakeFiles/FreeRTOS_Blink.dir/E_/Pi_Pico/pico-sdk/src/rp2_common/pico_mem_ops/mem_ops_aeabi.S.obj
 .debug_aranges
                0x00000ba8       0x28 CMakeFiles/FreeRTOS_Blink.dir/E_/Pi_Pico/pico-sdk/src/rp2_common/pico_standard_link/crt0.S.obj
 .debug_aranges
                0x00000bd0       0x18 CMakeFiles/FreeRTOS_Blink.dir/E_/Pi_Pico/pico-sdk/src/rp2_common/pico_standard_link/binary_info.c.obj
 .debug_aranges
                0x00000be8       0xb8 CMakeFiles/FreeRTOS_Blink.dir/E_/Pi_Pico/pico-sdk/src/rp2_common/pico_stdio/stdio.c.obj
 .debug_aranges
                0x00000ca0       0x40 CMakeFiles/FreeRTOS_Blink.dir/E_/Pi_Pico/pico-sdk/src/rp2_common/pico_stdio_usb/stdio_usb.c.obj
 .debug_aranges
                0x00000ce0       0x30 CMakeFiles/FreeRTOS_Blink.dir/E_/Pi_Pico/pico-sdk/src/rp2_common/pico_stdio_usb/stdio_usb_descriptors.c.obj
 .debug_aranges
                0x00000d10       0xe8 CMakeFiles/FreeRTOS_Blink.dir/E_/Pi_Pico/pico-sdk/lib/tinyusb/src/portable/raspberrypi/rp2040/dcd_rp2040.c.obj
 .debug_aranges
                0x00000df8       0x58 CMakeFiles/FreeRTOS_Blink.dir/E_/Pi_Pico/pico-sdk/lib/tinyusb/src/portable/raspberrypi/rp2040/rp2040_usb.c.obj
 .debug_aranges
                0x00000e50      0x110 CMakeFiles/FreeRTOS_Blink.dir/E_/Pi_Pico/pico-sdk/lib/tinyusb/src/device/usbd.c.obj
 .debug_aranges
                0x00000f60       0x50 CMakeFiles/FreeRTOS_Blink.dir/E_/Pi_Pico/pico-sdk/lib/tinyusb/src/device/usbd_control.c.obj
 .debug_aranges
                0x00000fb0       0xa8 CMakeFiles/FreeRTOS_Blink.dir/E_/Pi_Pico/pico-sdk/lib/tinyusb/src/class/cdc/cdc_device.c.obj
 .debug_aranges
                0x00001058       0x38 CMakeFiles/FreeRTOS_Blink.dir/E_/Pi_Pico/pico-sdk/lib/tinyusb/src/tusb.c.obj
 .debug_aranges
                0x00001090       0xe0 CMakeFiles/FreeRTOS_Blink.dir/E_/Pi_Pico/pico-sdk/lib/tinyusb/src/common/tusb_fifo.c.obj
 .debug_aranges
                0x00001170       0x20 libFreeRTOS.a(tasks.c.obj)
 .debug_aranges
                0x00001190       0x20 libFreeRTOS.a(timers.c.obj)
 .debug_aranges
                0x000011b0       0x20 libFreeRTOS.a(port.c.obj)
 .debug_aranges
                0x000011d0       0x20 libFreeRTOS.a(heap_4.c.obj)
 .debug_aranges
                0x000011f0       0x20 libFreeRTOS.a(list.c.obj)
 .debug_aranges
                0x00001210       0x20 libFreeRTOS.a(queue.c.obj)

.debug_ranges   0x00000000     0x2ec0
 .debug_ranges  0x00000000       0x20 CMakeFiles/FreeRTOS_Blink.dir/src/main.c.obj
 .debug_ranges  0x00000020       0xa8 CMakeFiles/FreeRTOS_Blink.dir/E_/Pi_Pico/pico-sdk/src/rp2_common/hardware_gpio/gpio.c.obj
 .debug_ranges  0x000000c8       0xd8 CMakeFiles/FreeRTOS_Blink.dir/E_/Pi_Pico/pico-sdk/src/rp2_common/hardware_claim/claim.c.obj
 .debug_ranges  0x000001a0       0xb8 CMakeFiles/FreeRTOS_Blink.dir/E_/Pi_Pico/pico-sdk/src/rp2_common/hardware_sync/sync.c.obj
 .debug_ranges  0x00000258       0x18 CMakeFiles/FreeRTOS_Blink.dir/E_/Pi_Pico/pico-sdk/src/rp2_common/pico_platform/platform.c.obj
 .debug_ranges  0x00000270      0x7e8 CMakeFiles/FreeRTOS_Blink.dir/E_/Pi_Pico/pico-sdk/src/common/pico_time/time.c.obj
 .debug_ranges  0x00000a58      0x2f0 CMakeFiles/FreeRTOS_Blink.dir/E_/Pi_Pico/pico-sdk/src/rp2_common/hardware_timer/timer.c.obj
 .debug_ranges  0x00000d48       0x10 CMakeFiles/FreeRTOS_Blink.dir/E_/Pi_Pico/pico-sdk/src/common/pico_sync/lock_core.c.obj
 .debug_ranges  0x00000d58      0x340 CMakeFiles/FreeRTOS_Blink.dir/E_/Pi_Pico/pico-sdk/src/common/pico_sync/mutex.c.obj
 .debug_ranges  0x00001098       0x38 CMakeFiles/FreeRTOS_Blink.dir/E_/Pi_Pico/pico-sdk/src/common/pico_sync/critical_section.c.obj
 .debug_ranges  0x000010d0      0x240 CMakeFiles/FreeRTOS_Blink.dir/E_/Pi_Pico/pico-sdk/src/common/pico_util/pheap.c.obj
 .debug_ranges  0x00001310       0x68 CMakeFiles/FreeRTOS_Blink.dir/E_/Pi_Pico/pico-sdk/src/rp2_common/pico_runtime/runtime.c.obj
 .debug_ranges  0x00001378       0x78 CMakeFiles/FreeRTOS_Blink.dir/E_/Pi_Pico/pico-sdk/src/rp2_common/hardware_clocks/clocks.c.obj
 .debug_ranges  0x000013f0       0x40 CMakeFiles/FreeRTOS_Blink.dir/E_/Pi_Pico/pico-sdk/src/rp2_common/hardware_watchdog/watchdog.c.obj
 .debug_ranges  0x00001430       0x20 CMakeFiles/FreeRTOS_Blink.dir/E_/Pi_Pico/pico-sdk/src/rp2_common/hardware_xosc/xosc.c.obj
 .debug_ranges  0x00001450       0x18 CMakeFiles/FreeRTOS_Blink.dir/E_/Pi_Pico/pico-sdk/src/rp2_common/hardware_pll/pll.c.obj
 .debug_ranges  0x00001468      0x3b0 CMakeFiles/FreeRTOS_Blink.dir/E_/Pi_Pico/pico-sdk/src/rp2_common/hardware_irq/irq.c.obj
 .debug_ranges  0x00001818      0x108 CMakeFiles/FreeRTOS_Blink.dir/E_/Pi_Pico/pico-sdk/src/rp2_common/pico_printf/printf.c.obj
 .debug_ranges  0x00001920       0x60 CMakeFiles/FreeRTOS_Blink.dir/E_/Pi_Pico/pico-sdk/src/rp2_common/pico_bit_ops/bit_ops_aeabi.S.obj
 .debug_ranges  0x00001980       0x38 CMakeFiles/FreeRTOS_Blink.dir/E_/Pi_Pico/pico-sdk/src/rp2_common/pico_bootrom/bootrom.c.obj
 .debug_ranges  0x000019b8       0x38 CMakeFiles/FreeRTOS_Blink.dir/E_/Pi_Pico/pico-sdk/src/rp2_common/pico_divider/divider.S.obj
 .debug_ranges  0x000019f0      0x138 CMakeFiles/FreeRTOS_Blink.dir/E_/Pi_Pico/pico-sdk/src/rp2_common/pico_double/double_aeabi.S.obj
 .debug_ranges  0x00001b28       0x30 CMakeFiles/FreeRTOS_Blink.dir/E_/Pi_Pico/pico-sdk/src/rp2_common/pico_double/double_init_rom.c.obj
 .debug_ranges  0x00001b58       0xc0 CMakeFiles/FreeRTOS_Blink.dir/E_/Pi_Pico/pico-sdk/src/rp2_common/pico_double/double_v1_rom_shim.S.obj
 .debug_ranges  0x00001c18      0x128 CMakeFiles/FreeRTOS_Blink.dir/E_/Pi_Pico/pico-sdk/src/rp2_common/pico_float/float_aeabi.S.obj
 .debug_ranges  0x00001d40       0x28 CMakeFiles/FreeRTOS_Blink.dir/E_/Pi_Pico/pico-sdk/src/rp2_common/pico_float/float_init_rom.c.obj
 .debug_ranges  0x00001d68       0x48 CMakeFiles/FreeRTOS_Blink.dir/E_/Pi_Pico/pico-sdk/src/rp2_common/pico_float/float_v1_rom_shim.S.obj
 .debug_ranges  0x00001db0       0x20 CMakeFiles/FreeRTOS_Blink.dir/E_/Pi_Pico/pico-sdk/src/rp2_common/pico_malloc/pico_malloc.c.obj
 .debug_ranges  0x00001dd0       0x30 CMakeFiles/FreeRTOS_Blink.dir/E_/Pi_Pico/pico-sdk/src/rp2_common/pico_mem_ops/mem_ops_aeabi.S.obj
 .debug_ranges  0x00001e00       0x20 CMakeFiles/FreeRTOS_Blink.dir/E_/Pi_Pico/pico-sdk/src/rp2_common/pico_standard_link/crt0.S.obj
 .debug_ranges  0x00001e20      0x120 CMakeFiles/FreeRTOS_Blink.dir/E_/Pi_Pico/pico-sdk/src/rp2_common/pico_stdio/stdio.c.obj
 .debug_ranges  0x00001f40       0x48 CMakeFiles/FreeRTOS_Blink.dir/E_/Pi_Pico/pico-sdk/src/rp2_common/pico_stdio_usb/stdio_usb.c.obj
 .debug_ranges  0x00001f88       0x20 CMakeFiles/FreeRTOS_Blink.dir/E_/Pi_Pico/pico-sdk/src/rp2_common/pico_stdio_usb/stdio_usb_descriptors.c.obj
 .debug_ranges  0x00001fa8      0x108 CMakeFiles/FreeRTOS_Blink.dir/E_/Pi_Pico/pico-sdk/lib/tinyusb/src/portable/raspberrypi/rp2040/dcd_rp2040.c.obj
 .debug_ranges  0x000020b0       0x60 CMakeFiles/FreeRTOS_Blink.dir/E_/Pi_Pico/pico-sdk/lib/tinyusb/src/portable/raspberrypi/rp2040/rp2040_usb.c.obj
 .debug_ranges  0x00002110      0x950 CMakeFiles/FreeRTOS_Blink.dir/E_/Pi_Pico/pico-sdk/lib/tinyusb/src/device/usbd.c.obj
 .debug_ranges  0x00002a60       0x88 CMakeFiles/FreeRTOS_Blink.dir/E_/Pi_Pico/pico-sdk/lib/tinyusb/src/device/usbd_control.c.obj
 .debug_ranges  0x00002ae8      0x110 CMakeFiles/FreeRTOS_Blink.dir/E_/Pi_Pico/pico-sdk/lib/tinyusb/src/class/cdc/cdc_device.c.obj
 .debug_ranges  0x00002bf8       0x88 CMakeFiles/FreeRTOS_Blink.dir/E_/Pi_Pico/pico-sdk/lib/tinyusb/src/tusb.c.obj
 .debug_ranges  0x00002c80       0xd0 CMakeFiles/FreeRTOS_Blink.dir/E_/Pi_Pico/pico-sdk/lib/tinyusb/src/common/tusb_fifo.c.obj
 .debug_ranges  0x00002d50       0xc8 libFreeRTOS.a(tasks.c.obj)
 .debug_ranges  0x00002e18       0xa8 libFreeRTOS.a(queue.c.obj)

.debug_line     0x00000000    0x14d55
 .debug_line    0x00000000      0x503 CMakeFiles/FreeRTOS_Blink.dir/src/main.c.obj
 .debug_line    0x00000503      0x84e CMakeFiles/FreeRTOS_Blink.dir/E_/Pi_Pico/pico-sdk/src/rp2_common/hardware_gpio/gpio.c.obj
 .debug_line    0x00000d51      0x435 CMakeFiles/FreeRTOS_Blink.dir/E_/Pi_Pico/pico-sdk/src/rp2_common/hardware_claim/claim.c.obj
 .debug_line    0x00001186      0x3d3 CMakeFiles/FreeRTOS_Blink.dir/E_/Pi_Pico/pico-sdk/src/rp2_common/hardware_sync/sync.c.obj
 .debug_line    0x00001559      0x20b CMakeFiles/FreeRTOS_Blink.dir/E_/Pi_Pico/pico-sdk/src/rp2_common/pico_platform/platform.c.obj
 .debug_line    0x00001764     0x1658 CMakeFiles/FreeRTOS_Blink.dir/E_/Pi_Pico/pico-sdk/src/common/pico_time/time.c.obj
 .debug_line    0x00002dbc      0x9d5 CMakeFiles/FreeRTOS_Blink.dir/E_/Pi_Pico/pico-sdk/src/rp2_common/hardware_timer/timer.c.obj
 .debug_line    0x00003791      0x23f CMakeFiles/FreeRTOS_Blink.dir/E_/Pi_Pico/pico-sdk/src/common/pico_sync/lock_core.c.obj
 .debug_line    0x000039d0      0x79a CMakeFiles/FreeRTOS_Blink.dir/E_/Pi_Pico/pico-sdk/src/common/pico_sync/mutex.c.obj
 .debug_line    0x0000416a      0x263 CMakeFiles/FreeRTOS_Blink.dir/E_/Pi_Pico/pico-sdk/src/common/pico_sync/critical_section.c.obj
 .debug_line    0x000043cd      0x852 CMakeFiles/FreeRTOS_Blink.dir/E_/Pi_Pico/pico-sdk/src/common/pico_util/pheap.c.obj
 .debug_line    0x00004c1f      0x78d CMakeFiles/FreeRTOS_Blink.dir/E_/Pi_Pico/pico-sdk/src/rp2_common/pico_runtime/runtime.c.obj
 .debug_line    0x000053ac      0x9dc CMakeFiles/FreeRTOS_Blink.dir/E_/Pi_Pico/pico-sdk/src/rp2_common/hardware_clocks/clocks.c.obj
 .debug_line    0x00005d88      0x381 CMakeFiles/FreeRTOS_Blink.dir/E_/Pi_Pico/pico-sdk/src/rp2_common/hardware_watchdog/watchdog.c.obj
 .debug_line    0x00006109      0x280 CMakeFiles/FreeRTOS_Blink.dir/E_/Pi_Pico/pico-sdk/src/rp2_common/hardware_xosc/xosc.c.obj
 .debug_line    0x00006389      0x36d CMakeFiles/FreeRTOS_Blink.dir/E_/Pi_Pico/pico-sdk/src/rp2_common/hardware_pll/pll.c.obj
 .debug_line    0x000066f6      0xd51 CMakeFiles/FreeRTOS_Blink.dir/E_/Pi_Pico/pico-sdk/src/rp2_common/hardware_irq/irq.c.obj
 .debug_line    0x00007447       0x7d CMakeFiles/FreeRTOS_Blink.dir/E_/Pi_Pico/pico-sdk/src/rp2_common/hardware_irq/irq_handler_chain.S.obj
 .debug_line    0x000074c4     0x11c1 CMakeFiles/FreeRTOS_Blink.dir/E_/Pi_Pico/pico-sdk/src/rp2_common/pico_printf/printf.c.obj
 .debug_line    0x00008685      0x140 CMakeFiles/FreeRTOS_Blink.dir/E_/Pi_Pico/pico-sdk/src/rp2_common/pico_bit_ops/bit_ops_aeabi.S.obj
 .debug_line    0x000087c5      0x1b4 CMakeFiles/FreeRTOS_Blink.dir/E_/Pi_Pico/pico-sdk/src/rp2_common/pico_bootrom/bootrom.c.obj
 .debug_line    0x00008979      0x2c1 CMakeFiles/FreeRTOS_Blink.dir/E_/Pi_Pico/pico-sdk/src/rp2_common/pico_divider/divider.S.obj
 .debug_line    0x00008c3a      0x3fc CMakeFiles/FreeRTOS_Blink.dir/E_/Pi_Pico/pico-sdk/src/rp2_common/pico_double/double_aeabi.S.obj
 .debug_line    0x00009036      0x302 CMakeFiles/FreeRTOS_Blink.dir/E_/Pi_Pico/pico-sdk/src/rp2_common/pico_double/double_init_rom.c.obj
 .debug_line    0x00009338      0x697 CMakeFiles/FreeRTOS_Blink.dir/E_/Pi_Pico/pico-sdk/src/rp2_common/pico_double/double_v1_rom_shim.S.obj
 .debug_line    0x000099cf       0x90 CMakeFiles/FreeRTOS_Blink.dir/E_/Pi_Pico/pico-sdk/src/rp2_common/pico_int64_ops/pico_int64_ops_aeabi.S.obj
 .debug_line    0x00009a5f      0x3ba CMakeFiles/FreeRTOS_Blink.dir/E_/Pi_Pico/pico-sdk/src/rp2_common/pico_float/float_aeabi.S.obj
 .debug_line    0x00009e19      0x304 CMakeFiles/FreeRTOS_Blink.dir/E_/Pi_Pico/pico-sdk/src/rp2_common/pico_float/float_init_rom.c.obj
 .debug_line    0x0000a11d      0x1c0 CMakeFiles/FreeRTOS_Blink.dir/E_/Pi_Pico/pico-sdk/src/rp2_common/pico_float/float_v1_rom_shim.S.obj
 .debug_line    0x0000a2dd      0x1ba CMakeFiles/FreeRTOS_Blink.dir/E_/Pi_Pico/pico-sdk/src/rp2_common/pico_malloc/pico_malloc.c.obj
 .debug_line    0x0000a497       0xba CMakeFiles/FreeRTOS_Blink.dir/E_/Pi_Pico/pico-sdk/src/rp2_common/pico_mem_ops/mem_ops_aeabi.S.obj
 .debug_line    0x0000a551       0xcb CMakeFiles/FreeRTOS_Blink.dir/E_/Pi_Pico/pico-sdk/src/rp2_common/pico_standard_link/crt0.S.obj
 .debug_line    0x0000a61c      0x192 CMakeFiles/FreeRTOS_Blink.dir/E_/Pi_Pico/pico-sdk/src/rp2_common/pico_standard_link/binary_info.c.obj
 .debug_line    0x0000a7ae      0xbef CMakeFiles/FreeRTOS_Blink.dir/E_/Pi_Pico/pico-sdk/src/rp2_common/pico_stdio/stdio.c.obj
 .debug_line    0x0000b39d      0x7ef CMakeFiles/FreeRTOS_Blink.dir/E_/Pi_Pico/pico-sdk/src/rp2_common/pico_stdio_usb/stdio_usb.c.obj
 .debug_line    0x0000bb8c      0x25d CMakeFiles/FreeRTOS_Blink.dir/E_/Pi_Pico/pico-sdk/src/rp2_common/pico_stdio_usb/stdio_usb_descriptors.c.obj
 .debug_line    0x0000bde9      0xb7f CMakeFiles/FreeRTOS_Blink.dir/E_/Pi_Pico/pico-sdk/lib/tinyusb/src/portable/raspberrypi/rp2040/dcd_rp2040.c.obj
 .debug_line    0x0000c968      0x70b CMakeFiles/FreeRTOS_Blink.dir/E_/Pi_Pico/pico-sdk/lib/tinyusb/src/portable/raspberrypi/rp2040/rp2040_usb.c.obj
 .debug_line    0x0000d073     0x1fc0 CMakeFiles/FreeRTOS_Blink.dir/E_/Pi_Pico/pico-sdk/lib/tinyusb/src/device/usbd.c.obj
 .debug_line    0x0000f033      0x568 CMakeFiles/FreeRTOS_Blink.dir/E_/Pi_Pico/pico-sdk/lib/tinyusb/src/device/usbd_control.c.obj
 .debug_line    0x0000f59b      0xe1f CMakeFiles/FreeRTOS_Blink.dir/E_/Pi_Pico/pico-sdk/lib/tinyusb/src/class/cdc/cdc_device.c.obj
 .debug_line    0x000103ba      0x417 CMakeFiles/FreeRTOS_Blink.dir/E_/Pi_Pico/pico-sdk/lib/tinyusb/src/tusb.c.obj
 .debug_line    0x000107d1      0xa66 CMakeFiles/FreeRTOS_Blink.dir/E_/Pi_Pico/pico-sdk/lib/tinyusb/src/common/tusb_fifo.c.obj
 .debug_line    0x00011237     0x1857 libFreeRTOS.a(tasks.c.obj)
 .debug_line    0x00012a8e      0x7db libFreeRTOS.a(timers.c.obj)
 .debug_line    0x00013269      0x303 libFreeRTOS.a(port.c.obj)
 .debug_line    0x0001356c      0x609 libFreeRTOS.a(heap_4.c.obj)
 .debug_line    0x00013b75      0x31c libFreeRTOS.a(list.c.obj)
 .debug_line    0x00013e91      0xec4 libFreeRTOS.a(queue.c.obj)

.debug_str      0x00000000     0x74e3
 .debug_str     0x00000000      0x420 CMakeFiles/FreeRTOS_Blink.dir/src/main.c.obj
                                0x49b (size before relaxing)
 .debug_str     0x00000420      0x408 CMakeFiles/FreeRTOS_Blink.dir/E_/Pi_Pico/pico-sdk/src/rp2_common/hardware_gpio/gpio.c.obj
                                0x7b2 (size before relaxing)
 .debug_str     0x00000828      0x1c3 CMakeFiles/FreeRTOS_Blink.dir/E_/Pi_Pico/pico-sdk/src/rp2_common/hardware_claim/claim.c.obj
                                0x364 (size before relaxing)
 .debug_str     0x000009eb       0xd0 CMakeFiles/FreeRTOS_Blink.dir/E_/Pi_Pico/pico-sdk/src/rp2_common/hardware_sync/sync.c.obj
                                0x328 (size before relaxing)
 .debug_str     0x00000abb       0x7a CMakeFiles/FreeRTOS_Blink.dir/E_/Pi_Pico/pico-sdk/src/rp2_common/pico_platform/platform.c.obj
                                0x21b (size before relaxing)
 .debug_str     0x00000b35      0x67f CMakeFiles/FreeRTOS_Blink.dir/E_/Pi_Pico/pico-sdk/src/common/pico_time/time.c.obj
                                0xa6e (size before relaxing)
 .debug_str     0x000011b4      0x135 CMakeFiles/FreeRTOS_Blink.dir/E_/Pi_Pico/pico-sdk/src/rp2_common/hardware_timer/timer.c.obj
                                0x620 (size before relaxing)
 .debug_str     0x000012e9       0x55 CMakeFiles/FreeRTOS_Blink.dir/E_/Pi_Pico/pico-sdk/src/common/pico_sync/lock_core.c.obj
                                0x209 (size before relaxing)
 .debug_str     0x0000133e       0xdf CMakeFiles/FreeRTOS_Blink.dir/E_/Pi_Pico/pico-sdk/src/common/pico_sync/mutex.c.obj
                                0x482 (size before relaxing)
 .debug_str     0x0000141d       0xcc CMakeFiles/FreeRTOS_Blink.dir/E_/Pi_Pico/pico-sdk/src/common/pico_sync/critical_section.c.obj
                                0x2be (size before relaxing)
 .debug_str     0x000014e9       0xdc CMakeFiles/FreeRTOS_Blink.dir/E_/Pi_Pico/pico-sdk/src/common/pico_util/pheap.c.obj
                                0x3d0 (size before relaxing)
 .debug_str     0x000015c5      0x2c3 CMakeFiles/FreeRTOS_Blink.dir/E_/Pi_Pico/pico-sdk/src/rp2_common/pico_runtime/runtime.c.obj
                                0x5b1 (size before relaxing)
 .debug_str     0x00001888      0x25f CMakeFiles/FreeRTOS_Blink.dir/E_/Pi_Pico/pico-sdk/src/rp2_common/hardware_clocks/clocks.c.obj
                                0x6ad (size before relaxing)
 .debug_str     0x00001ae7      0x105 CMakeFiles/FreeRTOS_Blink.dir/E_/Pi_Pico/pico-sdk/src/rp2_common/hardware_watchdog/watchdog.c.obj
                                0x304 (size before relaxing)
 .debug_str     0x00001bec       0x7c CMakeFiles/FreeRTOS_Blink.dir/E_/Pi_Pico/pico-sdk/src/rp2_common/hardware_xosc/xosc.c.obj
                                0x23f (size before relaxing)
 .debug_str     0x00001c68       0x7e CMakeFiles/FreeRTOS_Blink.dir/E_/Pi_Pico/pico-sdk/src/rp2_common/hardware_pll/pll.c.obj
                                0x282 (size before relaxing)
 .debug_str     0x00001ce6      0x2e1 CMakeFiles/FreeRTOS_Blink.dir/E_/Pi_Pico/pico-sdk/src/rp2_common/hardware_irq/irq.c.obj
                                0x6ba (size before relaxing)
 .debug_str     0x00001fc7       0x52 CMakeFiles/FreeRTOS_Blink.dir/E_/Pi_Pico/pico-sdk/src/rp2_common/hardware_irq/irq_handler_chain.S.obj
                                 0x81 (size before relaxing)
 .debug_str     0x00002019      0x266 CMakeFiles/FreeRTOS_Blink.dir/E_/Pi_Pico/pico-sdk/src/rp2_common/pico_printf/printf.c.obj
                                0x47b (size before relaxing)
 .debug_str     0x0000227f       0x40 CMakeFiles/FreeRTOS_Blink.dir/E_/Pi_Pico/pico-sdk/src/rp2_common/pico_bit_ops/bit_ops_aeabi.S.obj
                                 0x7d (size before relaxing)
 .debug_str     0x000022bf       0xa6 CMakeFiles/FreeRTOS_Blink.dir/E_/Pi_Pico/pico-sdk/src/rp2_common/pico_bootrom/bootrom.c.obj
                                0x243 (size before relaxing)
 .debug_str     0x00002365       0x3a CMakeFiles/FreeRTOS_Blink.dir/E_/Pi_Pico/pico-sdk/src/rp2_common/pico_divider/divider.S.obj
                                 0x77 (size before relaxing)
 .debug_str     0x0000239f       0x3e CMakeFiles/FreeRTOS_Blink.dir/E_/Pi_Pico/pico-sdk/src/rp2_common/pico_double/double_aeabi.S.obj
                                 0x7b (size before relaxing)
 .debug_str     0x000023dd       0x8a CMakeFiles/FreeRTOS_Blink.dir/E_/Pi_Pico/pico-sdk/src/rp2_common/pico_double/double_init_rom.c.obj
                                0x27d (size before relaxing)
 .debug_str     0x00002467       0x44 CMakeFiles/FreeRTOS_Blink.dir/E_/Pi_Pico/pico-sdk/src/rp2_common/pico_double/double_v1_rom_shim.S.obj
                                 0x81 (size before relaxing)
 .debug_str     0x000024ab       0x49 CMakeFiles/FreeRTOS_Blink.dir/E_/Pi_Pico/pico-sdk/src/rp2_common/pico_int64_ops/pico_int64_ops_aeabi.S.obj
                                 0x86 (size before relaxing)
 .debug_str     0x000024f4       0x3c CMakeFiles/FreeRTOS_Blink.dir/E_/Pi_Pico/pico-sdk/src/rp2_common/pico_float/float_aeabi.S.obj
                                 0x79 (size before relaxing)
 .debug_str     0x00002530       0x86 CMakeFiles/FreeRTOS_Blink.dir/E_/Pi_Pico/pico-sdk/src/rp2_common/pico_float/float_init_rom.c.obj
                                0x2b5 (size before relaxing)
 .debug_str     0x000025b6       0x42 CMakeFiles/FreeRTOS_Blink.dir/E_/Pi_Pico/pico-sdk/src/rp2_common/pico_float/float_v1_rom_shim.S.obj
                                 0x7f (size before relaxing)
 .debug_str     0x000025f8       0x99 CMakeFiles/FreeRTOS_Blink.dir/E_/Pi_Pico/pico-sdk/src/rp2_common/pico_malloc/pico_malloc.c.obj
                                0x20a (size before relaxing)
 .debug_str     0x00002691       0x40 CMakeFiles/FreeRTOS_Blink.dir/E_/Pi_Pico/pico-sdk/src/rp2_common/pico_mem_ops/mem_ops_aeabi.S.obj
                                 0x7d (size before relaxing)
 .debug_str     0x000026d1       0x3d CMakeFiles/FreeRTOS_Blink.dir/E_/Pi_Pico/pico-sdk/src/rp2_common/pico_standard_link/crt0.S.obj
                                 0x7a (size before relaxing)
 .debug_str     0x0000270e      0x1e6 CMakeFiles/FreeRTOS_Blink.dir/E_/Pi_Pico/pico-sdk/src/rp2_common/pico_standard_link/binary_info.c.obj
                                0x3aa (size before relaxing)
 .debug_str     0x000028f4      0x2bc CMakeFiles/FreeRTOS_Blink.dir/E_/Pi_Pico/pico-sdk/src/rp2_common/pico_stdio/stdio.c.obj
                                0x716 (size before relaxing)
 .debug_str     0x00002bb0      0x342 CMakeFiles/FreeRTOS_Blink.dir/E_/Pi_Pico/pico-sdk/src/rp2_common/pico_stdio_usb/stdio_usb.c.obj
                                0x831 (size before relaxing)
 .debug_str     0x00002ef2      0xca4 CMakeFiles/FreeRTOS_Blink.dir/E_/Pi_Pico/pico-sdk/src/rp2_common/pico_stdio_usb/stdio_usb_descriptors.c.obj
                                0xf64 (size before relaxing)
 .debug_str     0x00003b96      0x96c CMakeFiles/FreeRTOS_Blink.dir/E_/Pi_Pico/pico-sdk/lib/tinyusb/src/portable/raspberrypi/rp2040/dcd_rp2040.c.obj
                                0xdf4 (size before relaxing)
 .debug_str     0x00004502      0x162 CMakeFiles/FreeRTOS_Blink.dir/E_/Pi_Pico/pico-sdk/lib/tinyusb/src/portable/raspberrypi/rp2040/rp2040_usb.c.obj
                                0x89d (size before relaxing)
 .debug_str     0x00004664      0x9e8 CMakeFiles/FreeRTOS_Blink.dir/E_/Pi_Pico/pico-sdk/lib/tinyusb/src/device/usbd.c.obj
                               0x1719 (size before relaxing)
 .debug_str     0x0000504c       0xd6 CMakeFiles/FreeRTOS_Blink.dir/E_/Pi_Pico/pico-sdk/lib/tinyusb/src/device/usbd_control.c.obj
                                0x5d7 (size before relaxing)
 .debug_str     0x00005122      0x75d CMakeFiles/FreeRTOS_Blink.dir/E_/Pi_Pico/pico-sdk/lib/tinyusb/src/class/cdc/cdc_device.c.obj
                               0x16ce (size before relaxing)
 .debug_str     0x0000587f       0x96 CMakeFiles/FreeRTOS_Blink.dir/E_/Pi_Pico/pico-sdk/lib/tinyusb/src/tusb.c.obj
                                0x3c8 (size before relaxing)
 .debug_str     0x00005915      0x1ab CMakeFiles/FreeRTOS_Blink.dir/E_/Pi_Pico/pico-sdk/lib/tinyusb/src/common/tusb_fifo.c.obj
                                0x562 (size before relaxing)
 .debug_str     0x00005ac0      0xcfe libFreeRTOS.a(tasks.c.obj)
                                0xecc (size before relaxing)
 .debug_str     0x000067be      0x4e7 libFreeRTOS.a(timers.c.obj)
                                0x87d (size before relaxing)
 .debug_str     0x00006ca5       0xec libFreeRTOS.a(port.c.obj)
                                0x33c (size before relaxing)
 .debug_str     0x00006d91      0x2db libFreeRTOS.a(heap_4.c.obj)
                                0x4ab (size before relaxing)
 .debug_str     0x0000706c       0x7d libFreeRTOS.a(list.c.obj)
                                0x2bc (size before relaxing)
 .debug_str     0x000070e9      0x3fa libFreeRTOS.a(queue.c.obj)
                                0x8e7 (size before relaxing)

.debug_frame    0x00000000     0x2fd0
 .debug_frame   0x00000000       0x64 CMakeFiles/FreeRTOS_Blink.dir/src/main.c.obj
 .debug_frame   0x00000064      0x178 CMakeFiles/FreeRTOS_Blink.dir/E_/Pi_Pico/pico-sdk/src/rp2_common/hardware_gpio/gpio.c.obj
 .debug_frame   0x000001dc       0xa8 CMakeFiles/FreeRTOS_Blink.dir/E_/Pi_Pico/pico-sdk/src/rp2_common/hardware_claim/claim.c.obj
 .debug_frame   0x00000284       0xac CMakeFiles/FreeRTOS_Blink.dir/E_/Pi_Pico/pico-sdk/src/rp2_common/hardware_sync/sync.c.obj
 .debug_frame   0x00000330       0x38 CMakeFiles/FreeRTOS_Blink.dir/E_/Pi_Pico/pico-sdk/src/rp2_common/pico_platform/platform.c.obj
 .debug_frame   0x00000368      0x280 CMakeFiles/FreeRTOS_Blink.dir/E_/Pi_Pico/pico-sdk/src/common/pico_time/time.c.obj
 .debug_frame   0x000005e8      0x104 CMakeFiles/FreeRTOS_Blink.dir/E_/Pi_Pico/pico-sdk/src/rp2_common/hardware_timer/timer.c.obj
 .debug_frame   0x000006ec       0x28 CMakeFiles/FreeRTOS_Blink.dir/E_/Pi_Pico/pico-sdk/src/common/pico_sync/lock_core.c.obj
 .debug_frame   0x00000714       0xb0 CMakeFiles/FreeRTOS_Blink.dir/E_/Pi_Pico/pico-sdk/src/common/pico_sync/mutex.c.obj
 .debug_frame   0x000007c4       0x58 CMakeFiles/FreeRTOS_Blink.dir/E_/Pi_Pico/pico-sdk/src/common/pico_sync/critical_section.c.obj
 .debug_frame   0x0000081c      0x14c CMakeFiles/FreeRTOS_Blink.dir/E_/Pi_Pico/pico-sdk/src/common/pico_util/pheap.c.obj
 .debug_frame   0x00000968       0xdc CMakeFiles/FreeRTOS_Blink.dir/E_/Pi_Pico/pico-sdk/src/rp2_common/pico_runtime/runtime.c.obj
 .debug_frame   0x00000a44      0x128 CMakeFiles/FreeRTOS_Blink.dir/E_/Pi_Pico/pico-sdk/src/rp2_common/hardware_clocks/clocks.c.obj
 .debug_frame   0x00000b6c       0x98 CMakeFiles/FreeRTOS_Blink.dir/E_/Pi_Pico/pico-sdk/src/rp2_common/hardware_watchdog/watchdog.c.obj
 .debug_frame   0x00000c04       0x40 CMakeFiles/FreeRTOS_Blink.dir/E_/Pi_Pico/pico-sdk/src/rp2_common/hardware_xosc/xosc.c.obj
 .debug_frame   0x00000c44       0x48 CMakeFiles/FreeRTOS_Blink.dir/E_/Pi_Pico/pico-sdk/src/rp2_common/hardware_pll/pll.c.obj
 .debug_frame   0x00000c8c      0x180 CMakeFiles/FreeRTOS_Blink.dir/E_/Pi_Pico/pico-sdk/src/rp2_common/hardware_irq/irq.c.obj
 .debug_frame   0x00000e0c      0x1f8 CMakeFiles/FreeRTOS_Blink.dir/E_/Pi_Pico/pico-sdk/src/rp2_common/pico_printf/printf.c.obj
 .debug_frame   0x00001004       0x64 CMakeFiles/FreeRTOS_Blink.dir/E_/Pi_Pico/pico-sdk/src/rp2_common/pico_bootrom/bootrom.c.obj
 .debug_frame   0x00001068       0x2c CMakeFiles/FreeRTOS_Blink.dir/E_/Pi_Pico/pico-sdk/src/rp2_common/pico_double/double_init_rom.c.obj
 .debug_frame   0x00001094       0x2c CMakeFiles/FreeRTOS_Blink.dir/E_/Pi_Pico/pico-sdk/src/rp2_common/pico_float/float_init_rom.c.obj
 .debug_frame   0x000010c0       0x58 CMakeFiles/FreeRTOS_Blink.dir/E_/Pi_Pico/pico-sdk/src/rp2_common/pico_malloc/pico_malloc.c.obj
 .debug_frame   0x00001118      0x21c CMakeFiles/FreeRTOS_Blink.dir/E_/Pi_Pico/pico-sdk/src/rp2_common/pico_stdio/stdio.c.obj
 .debug_frame   0x00001334       0xa4 CMakeFiles/FreeRTOS_Blink.dir/E_/Pi_Pico/pico-sdk/src/rp2_common/pico_stdio_usb/stdio_usb.c.obj
 .debug_frame   0x000013d8       0x48 CMakeFiles/FreeRTOS_Blink.dir/E_/Pi_Pico/pico-sdk/src/rp2_common/pico_stdio_usb/stdio_usb_descriptors.c.obj
 .debug_frame   0x00001420      0x294 CMakeFiles/FreeRTOS_Blink.dir/E_/Pi_Pico/pico-sdk/lib/tinyusb/src/portable/raspberrypi/rp2040/dcd_rp2040.c.obj
 .debug_frame   0x000016b4       0xd8 CMakeFiles/FreeRTOS_Blink.dir/E_/Pi_Pico/pico-sdk/lib/tinyusb/src/portable/raspberrypi/rp2040/rp2040_usb.c.obj
 .debug_frame   0x0000178c      0x368 CMakeFiles/FreeRTOS_Blink.dir/E_/Pi_Pico/pico-sdk/lib/tinyusb/src/device/usbd.c.obj
 .debug_frame   0x00001af4       0xcc CMakeFiles/FreeRTOS_Blink.dir/E_/Pi_Pico/pico-sdk/lib/tinyusb/src/device/usbd_control.c.obj
 .debug_frame   0x00001bc0      0x200 CMakeFiles/FreeRTOS_Blink.dir/E_/Pi_Pico/pico-sdk/lib/tinyusb/src/class/cdc/cdc_device.c.obj
 .debug_frame   0x00001dc0       0x80 CMakeFiles/FreeRTOS_Blink.dir/E_/Pi_Pico/pico-sdk/lib/tinyusb/src/tusb.c.obj
 .debug_frame   0x00001e40      0x2bc CMakeFiles/FreeRTOS_Blink.dir/E_/Pi_Pico/pico-sdk/lib/tinyusb/src/common/tusb_fifo.c.obj
 .debug_frame   0x000020fc      0x500 libFreeRTOS.a(tasks.c.obj)
 .debug_frame   0x000025fc      0x238 libFreeRTOS.a(timers.c.obj)
 .debug_frame   0x00002834      0x10c libFreeRTOS.a(port.c.obj)
 .debug_frame   0x00002940       0xc8 libFreeRTOS.a(heap_4.c.obj)
 .debug_frame   0x00002a08       0x6c libFreeRTOS.a(list.c.obj)
 .debug_frame   0x00002a74      0x2a8 libFreeRTOS.a(queue.c.obj)
 .debug_frame   0x00002d1c       0x28 c:/progra~2/gnuarm~1/102020~1/bin/../lib/gcc/arm-none-eabi/10.2.1/../../../../arm-none-eabi/lib/thumb/v6-m/nofp\libg.a(lib_a-calloc.o)
 .debug_frame   0x00002d44       0x28 c:/progra~2/gnuarm~1/102020~1/bin/../lib/gcc/arm-none-eabi/10.2.1/../../../../arm-none-eabi/lib/thumb/v6-m/nofp\libg.a(lib_a-callocr.o)
 .debug_frame   0x00002d6c       0x40 c:/progra~2/gnuarm~1/102020~1/bin/../lib/gcc/arm-none-eabi/10.2.1/../../../../arm-none-eabi/lib/thumb/v6-m/nofp\libg.a(lib_a-malloc.o)
 .debug_frame   0x00002dac       0x3c c:/progra~2/gnuarm~1/102020~1/bin/../lib/gcc/arm-none-eabi/10.2.1/../../../../arm-none-eabi/lib/thumb/v6-m/nofp\libg.a(lib_a-mallocr.o)
 .debug_frame   0x00002de8       0x40 c:/progra~2/gnuarm~1/102020~1/bin/../lib/gcc/arm-none-eabi/10.2.1/../../../../arm-none-eabi/lib/thumb/v6-m/nofp\libg.a(lib_a-mlock.o)
 .debug_frame   0x00002e28       0x2c c:/progra~2/gnuarm~1/102020~1/bin/../lib/gcc/arm-none-eabi/10.2.1/../../../../arm-none-eabi/lib/thumb/v6-m/nofp\libg.a(lib_a-sbrkr.o)
 .debug_frame   0x00002e54       0x28 c:/progra~2/gnuarm~1/102020~1/bin/../lib/gcc/arm-none-eabi/10.2.1/../../../../arm-none-eabi/lib/thumb/v6-m/nofp\libg.a(lib_a-strlen-stub.o)
 .debug_frame   0x00002e7c       0x54 c:/progra~2/gnuarm~1/102020~1/bin/../lib/gcc/arm-none-eabi/10.2.1/../../../../arm-none-eabi/lib/thumb/v6-m/nofp\libg.a(lib_a-freer.o)
 .debug_frame   0x00002ed0       0xb0 c:/progra~2/gnuarm~1/102020~1/bin/../lib/gcc/arm-none-eabi/10.2.1/../../../../arm-none-eabi/lib/thumb/v6-m/nofp\libg.a(lib_a-lock.o)
 .debug_frame   0x00002f80       0x50 c:/progra~2/gnuarm~1/102020~1/bin/../lib/gcc/arm-none-eabi/10.2.1/../../../../arm-none-eabi/lib/thumb/v6-m/nofp\libg.a(lib_a-reent.o)
